; Listing generated by Microsoft (R) Optimizing Compiler Version 19.34.31937.0 

include listing.inc

INCLUDELIB MSVCRTD
INCLUDELIB OLDNAMES

PUBLIC	?words@@3PAPEBDA				; words
PUBLIC	?pa@@3PEADEA					; pa
PUBLIC	?ch@@3HA					; ch
PUBLIC	?sym@@3HA					; sym
PUBLIC	?int_val@@3HA					; int_val
PUBLIC	?id_name@@3PADA					; id_name
PUBLIC	?object@@3PADA					; object
PUBLIC	?here@@3PEADEA					; here
PUBLIC	?globals@@3PAHA					; globals
_BSS	SEGMENT
?pa@@3PEADEA DQ	01H DUP (?)				; pa
?sym@@3HA DD	01H DUP (?)				; sym
?int_val@@3HA DD 01H DUP (?)				; int_val
?id_name@@3PADA DB 064H DUP (?)				; id_name
?object@@3PADA DB 03e8H DUP (?)				; object
?globals@@3PAHA DD 01aH DUP (?)				; globals
_BSS	ENDS
_DATA	SEGMENT
?words@@3PAPEBDA DQ FLAT:$SG47170			; words
	DQ	FLAT:$SG47171
	DQ	FLAT:$SG47172
	DQ	FLAT:$SG47173
	DQ	0000000000000000H
?ch@@3HA DD	020H					; ch
	ORG $+4
?here@@3PEADEA DQ FLAT:?object@@3PADA			; here
_DATA	ENDS
CONST	SEGMENT
$SG41896 DB	'null', 00H
	ORG $+3
$SG41978 DB	'_KMGT', 00H
	ORG $+2
$SG41979 DB	'_kMGT', 00H
	ORG $+2
$SG42485 DB	'NaN', 00H
	ORG $+4
?stbsp__bot@@3QBNB DQ 03ff0000000000000r	; 1	; stbsp__bot
	DQ	04024000000000000r		; 10
	DQ	04059000000000000r		; 100
	DQ	0408f400000000000r		; 1000
	DQ	040c3880000000000r		; 10000
	DQ	040f86a0000000000r		; 100000
	DQ	0412e848000000000r		; 1e+06
	DQ	0416312d000000000r		; 1e+07
	DQ	04197d78400000000r		; 1e+08
	DQ	041cdcd6500000000r		; 1e+09
	DQ	04202a05f20000000r		; 1e+10
	DQ	042374876e8000000r		; 1e+11
	DQ	0426d1a94a2000000r		; 1e+12
	DQ	042a2309ce5400000r		; 1e+13
	DQ	042d6bcc41e900000r		; 1e+14
	DQ	0430c6bf526340000r		; 1e+15
	DQ	04341c37937e08000r		; 1e+16
	DQ	04376345785d8a000r		; 1e+17
	DQ	043abc16d674ec800r		; 1e+18
	DQ	043e158e460913d00r		; 1e+19
	DQ	04415af1d78b58c40r		; 1e+20
	DQ	0444b1ae4d6e2ef50r		; 1e+21
	DQ	04480f0cf064dd592r		; 1e+22
$SG42486 DB	'Inf', 00H
	ORG $+4
?stbsp__negbot@@3QBNB DQ 03fb999999999999ar	; 0.1	; stbsp__negbot
	DQ	03f847ae147ae147br		; 0.01
	DQ	03f50624dd2f1a9fcr		; 0.001
	DQ	03f1a36e2eb1c432dr		; 0.0001
	DQ	03ee4f8b588e368f1r		; 1e-05
	DQ	03eb0c6f7a0b5ed8dr		; 1e-06
	DQ	03e7ad7f29abcaf48r		; 1e-07
	DQ	03e45798ee2308c3ar		; 1e-08
	DQ	03e112e0be826d695r		; 1e-09
	DQ	03ddb7cdfd9d7bdbbr		; 1e-10
	DQ	03da5fd7fe1796495r		; 1e-11
	DQ	03d719799812dea11r		; 1e-12
	DQ	03d3c25c268497682r		; 1e-13
	DQ	03d06849b86a12b9br		; 1e-14
	DQ	03cd203af9ee75616r		; 1e-15
	DQ	03c9cd2b297d889bcr		; 1e-16
	DQ	03c670ef54646d497r		; 1e-17
	DQ	03c32725dd1d243acr		; 1e-18
	DQ	03bfd83c94fb6d2acr		; 1e-19
	DQ	03bc79ca10c924223r		; 1e-20
	DQ	03b92e3b40a0e9b4fr		; 1e-21
	DQ	03b5e392010175ee6r		; 1e-22
?stbsp__negboterr@@3QBNB DQ 0bc5999999999999ar	; -5.55112e-18 ; stbsp__negboterr
	DQ	0bc0eb851eb851eb8r		; -2.08167e-19
	DQ	0bbd89374bc6a7efar		; -2.08167e-20
	DQ	0bbb6a161e4f765fer		; -4.79217e-21
	DQ	0bb8ee78183f91e64r		; -8.18031e-22
	DQ	03b4b5a63f9a49c2cr		; 4.52519e-23
	DQ	03b15e1e99483b023r		; 4.52519e-24
	DQ	0bad03023df2d4c94r		; -2.09226e-25
	DQ	0bab34674bfabb83br		; -6.22816e-26
	DQ	0ba720a5465df8d2cr		; -3.64322e-27
	DQ	03a47f7bc7b4d28aar		; 6.0503e-28
	DQ	039f97f27f0f6e886r		; 2.01134e-29
	DQ	0b9cecd79a5a0df95r		; -3.03737e-30
	DQ	0394ea70909833de7r		; 1.18069e-32
	DQ	0b97937831647f5a0r		; -7.77054e-32
	DQ	03925b4c2ebe68799r		; 2.09022e-33
	DQ	0b90db7b2080a3029r		; -7.15424e-34
	DQ	0b8d7c628066e8ceer		; -7.15424e-35
	DQ	0388a52b31e9e3d07r		; 2.47541e-36
	DQ	038675447a5d8e536r		; 5.48467e-37
	DQ	0383f769fb7e0b75er		; 9.24625e-38
	DQ	0b7fa7566d9cba769r		; -4.85968e-39
?stbsp__top@@3QBNB DQ 044b52d02c7e14af6r	; 1e+23	; stbsp__top
	DQ	0497c06a5ec5433c6r		; 1e+46
	DQ	04e428bc8abe49f64r		; 1e+69
	DQ	053088ba3bf284e24r		; 1e+92
	DQ	057d03e29f5c2b18cr		; 1e+115
	DQ	05c957f48bb41db7cr		; 1e+138
	DQ	0615c73892ecbfbf4r		; 1e+161
	DQ	06622d3d6f88f0b3dr		; 1e+184
	DQ	06ae8eb0138858d0ar		; 1e+207
	DQ	06fb07d457124123dr		; 1e+230
	DQ	07475d2ce55747a18r		; 1e+253
	DQ	0793ce2137f743382r		; 1e+276
	DQ	07e031cfd3999f7b0r		; 1e+299
$SG42634 DB	'%s[%i] %s() %s: %s', 0aH, 00H
	ORG $+4
?stbsp__negtop@@3QBNB DQ 03b282db34012b251r	; 1e-23	; stbsp__negtop
	DQ	0366244ce242c5561r		; 1e-46
	DQ	0319b9b6364f30304r		; 1e-69
	DQ	02cd4dbf7b3f71cb7r		; 1e-92
	DQ	0280f8587e7083e30r		; 1e-115
	DQ	02347d12a4670c123r		; 1e-138
	DQ	01e81fee341fc585dr		; 1e-161
	DQ	019bb31bb5dc320d2r		; 1e-184
	DQ	014f48c22ca71a1bdr		; 1e-207
	DQ	0102f0ce4839198dbr		; 1e-230
	DQ	00b677603725064a8r		; 1e-253
	DQ	006a1ba03f5b21000r		; 1e-276
	DQ	001dac9a7b3b7302fr		; 1e-299
$SG43755 DB	'invalid key, already in hash table', 00H
	ORG $+5
?stbsp__toperr@@3QBNB DQ 04160000000000000r	; 8.38861e+06 ; stbsp__toperr
	DQ	045ebb542c80deb40r		; 6.86018e+28
	DQ	0cae83b80b9aab60ar		; -7.25314e+52
	DQ	0cfa32e22d17a166cr		; -4.33773e+75
	DQ	0d4523606902e180er		; -1.55594e+98
	DQ	0d9296fb782462e87r		; -3.28416e+121
	DQ	0ddf358952c0bd011r		; -3.77459e+144
	DQ	0e2a78c1376a34b6cr		; -1.73567e+167
	DQ	0e7817569fc243adfr		; -3.88936e+190
	DQ	0ec5d9365a897aaa6r		; -9.95664e+213
	DQ	07119050c256123a0r		; 6.36413e+236
	DQ	0f5db1799d76cc7a6r		; -5.20691e+259
	DQ	0faa213fe39571a38r		; -5.25048e+282
$SG43756 DB	'err', 00H
	ORG $+4
?stbsp__negtoperr@@3QBNB DQ 037c13badb829e079r	; 3.95653e-40 ; stbsp__negtoperr
	DQ	0b2ee46a98d3d9f64r		; -2.2999e-63
	DQ	02e3227c7218a2b65r		; 3.65062e-86
	DQ	02951d96999aa01e9r		; 1.18752e-109
	DQ	0a4acc2229efc3962r		; -5.06449e-132
	DQ	09fecd04a2263407ar		; -6.71568e-155
	DQ	09b123b80f187a157r		; -2.81208e-178
	DQ	0965c4e22914ed912r		; -5.77789e-201
	DQ	0119bc296cdf42f82r		; 7.49971e-224
	DQ	08cc9f9e7f4e16fe1r		; -4.64397e-247
	DQ	0880aeb0a72a8902ar		; -6.36911e-270
	DQ	0834e228e12c13408r		; -9.43681e-293
	DQ	00000000000fa1259r		; 8.09709e-317
$SG43803 DB	'__asm', 00H
	ORG $+2
?stbsp__powten@@3QB_KB DQ 0000000000000001H		; stbsp__powten
	DQ	000000000000000aH
	DQ	0000000000000064H
	DQ	00000000000003e8H
	DQ	0000000000002710H
	DQ	00000000000186a0H
	DQ	00000000000f4240H
	DQ	0000000000989680H
	DQ	0000000005f5e100H
	DQ	000000003b9aca00H
	DQ	00000002540be400H
	DQ	000000174876e800H
	DQ	000000e8d4a51000H
	DQ	000009184e72a000H
	DQ	00005af3107a4000H
	DQ	00038d7ea4c68000H
	DQ	002386f26fc10000H
	DQ	016345785d8a0000H
	DQ	0de0b6b3a7640000H
	DQ	8ac7230489e80000H
$SG43757 DB	'cclex_hashonly', 00H
	ORG $+1
$SG43758 DB	'W:\cpp\void\ktt-c\cclex.c', 00H
	ORG $+2
$SG43817 DB	'inline', 00H
	ORG $+1
$SG43828 DB	'int', 00H
$SG43804 DB	'__based', 00H
$SG43805 DB	'__cdecl', 00H
$SG43806 DB	'__clrcall', 00H
	ORG $+2
$SG43819 DB	'signed', 00H
	ORG $+1
$SG44144 DB	'err', 00H
$SG43807 DB	'__fastcall', 00H
	ORG $+1
$SG44172 DB	'err', 00H
$SG43808 DB	'__inline', 00H
	ORG $+3
$SG43814 DB	'const', 00H
	ORG $+2
$SG43821 DB	'__int8', 00H
	ORG $+1
$SG44179 DB	'err', 00H
$SG43809 DB	'__stdcall', 00H
	ORG $+2
$SG43825 DB	'double', 00H
	ORG $+1
$SG44220 DB	'err', 00H
$SG43810 DB	'__thiscall', 00H
	ORG $+1
$SG44318 DB	'err', 00H
$SG43811 DB	'__vectorcal', 00H
$SG44363 DB	'err', 00H
$SG43812 DB	'_Alignof', 00H
	ORG $+3
$SG43826 DB	'float', 00H
	ORG $+2
$SG43836 DB	'struct', 00H
	ORG $+1
$SG44369 DB	'err', 00H
$SG43813 DB	'_Alignas', 00H
	ORG $+3
$SG43829 DB	'short', 00H
	ORG $+2
$SG43839 DB	'extern', 00H
	ORG $+1
$SG44379 DB	'err', 00H
$SG43815 DB	'restrict', 00H
	ORG $+3
$SG43832 DB	'_Bool', 00H
	ORG $+2
$SG43841 DB	'static', 00H
	ORG $+1
$SG44390 DB	'err', 00H
$SG43816 DB	'volatile', 00H
	ORG $+3
$SG44408 DB	'err', 00H
$SG43818 DB	'_Noreturn', 00H
	ORG $+2
$SG44413 DB	'war', 00H
$SG43820 DB	'unsigned', 00H
	ORG $+3
$SG44418 DB	'war', 00H
$SG43822 DB	'__int16', 00H
$SG43823 DB	'__int32', 00H
$SG43824 DB	'__int64', 00H
$SG43827 DB	'long', 00H
	ORG $+3
$SG43830 DB	'char', 00H
	ORG $+3
$SG43831 DB	'void', 00H
	ORG $+3
$SG43833 DB	'_Complex', 00H
	ORG $+3
$SG44424 DB	'err', 00H
$SG43834 DB	'_Atomic', 00H
$SG43835 DB	'enum', 00H
	ORG $+3
$SG43837 DB	'typedef', 00H
$SG43838 DB	'auto', 00H
	ORG $+3
$SG43840 DB	'register', 00H
	ORG $+3
$SG44441 DB	'err', 00H
$SG43842 DB	'_Thread_local', 00H
	ORG $+2
$SG43843 DB	'__declspec', 00H
	ORG $+1
$SG44508 DB	'err', 00H
$SG43859 DB	'invalid string!', 00H
$SG43860 DB	'invalid string!', 00H
$SG43861 DB	'invalid string!', 00H
$SG44143 DB	'expected '')'' for primary expression', 00H
$SG44530 DB	'err', 00H
$SG44145 DB	'ccread_primary_expr', 00H
$SG44535 DB	'err', 00H
$SG44146 DB	'W:\cpp\void\ktt-c\kttc-read-expression.c', 00H
	ORG $+3
$SG44610 DB	'err', 00H
$SG44171 DB	'expected '')'', in postfix expression!', 00H
	ORG $+3
$SG44173 DB	'ccread_postfix_expr', 00H
$SG44650 DB	'err', 00H
$SG44174 DB	'W:\cpp\void\ktt-c\kttc-read-expression.c', 00H
	ORG $+3
$SG44657 DB	'err', 00H
$SG44178 DB	'expected '']'', in postfix expression!', 00H
	ORG $+3
$SG44180 DB	'ccread_postfix_expr', 00H
$SG44663 DB	'err', 00H
$SG44181 DB	'W:\cpp\void\ktt-c\kttc-read-expression.c', 00H
	ORG $+3
$SG44686 DB	';', 00H
	ORG $+2
$SG44219 DB	'expected '')''', 00H
	ORG $+3
$SG44221 DB	'ccread_cast_expr', 00H
	ORG $+3
$SG44688 DB	'...', 00H
$SG44222 DB	'W:\cpp\void\ktt-c\kttc-read-expression.c', 00H
	ORG $+3
$SG44690 DB	'%c', 00H
	ORG $+1
$SG44317 DB	'expected '':'' invalid conditional expression', 00H
$SG44694 DB	'%f', 00H
	ORG $+1
$SG44319 DB	'ccread_conditional_expr', 00H
$SG44320 DB	'W:\cpp\void\ktt-c\kttc-read-expression.c', 00H
	ORG $+3
$SG44697 DB	'"', 00H
	ORG $+2
$SG44362 DB	'expected ''='' for designation', 00H
	ORG $+3
$SG44364 DB	'ccread_init_designation', 00H
$SG44365 DB	'W:\cpp\void\ktt-c\kttc-read-declaration.c', 00H
	ORG $+2
$SG44698 DB	'"', 00H
	ORG $+2
$SG44368 DB	'expected ''initializer'' for designator', 00H
	ORG $+2
$SG44370 DB	'ccread_init_designation', 00H
$SG44371 DB	'W:\cpp\void\ktt-c\kttc-read-declaration.c', 00H
	ORG $+2
$SG44700 DB	'(', 00H
	ORG $+2
$SG44378 DB	'unexpected '','' in initializer list', 00H
	ORG $+1
$SG44702 DB	')', 00H
	ORG $+2
$SG44380 DB	'ccread_initializer_list', 00H
$SG44381 DB	'W:\cpp\void\ktt-c\kttc-read-declaration.c', 00H
	ORG $+2
$SG44704 DB	'[', 00H
	ORG $+2
$SG44389 DB	'expected ''}'' for initializer list', 00H
	ORG $+2
$SG44706 DB	']', 00H
	ORG $+2
$SG44391 DB	'ccread_initializer', 00H
	ORG $+1
$SG44708 DB	'[', 00H
	ORG $+2
$SG44392 DB	'W:\cpp\void\ktt-c\kttc-read-declaration.c', 00H
	ORG $+2
$SG44710 DB	']', 00H
	ORG $+2
$SG44407 DB	'expected closing '')'' for function modifier', 00H
	ORG $+1
$SG44712 DB	'?', 00H
	ORG $+2
$SG44409 DB	'ccread_direct_decl_name_modifier', 00H
	ORG $+3
$SG44714 DB	':', 00H
	ORG $+2
$SG44410 DB	'W:\cpp\void\ktt-c\kttc-read-declaration.c', 00H
	ORG $+2
$SG44716 DB	'.', 00H
	ORG $+2
$SG44412 DB	'function that returns function', 00H
	ORG $+1
$SG44414 DB	'ccread_direct_decl_name_modifier', 00H
	ORG $+3
$SG44718 DB	'->', 00H
	ORG $+1
$SG44415 DB	'W:\cpp\void\ktt-c\kttc-read-declaration.c', 00H
	ORG $+2
$SG44720 DB	',', 00H
	ORG $+2
$SG44417 DB	'function that returns array', 00H
$SG44722 DB	'*', 00H
	ORG $+2
$SG44419 DB	'ccread_direct_decl_name_modifier', 00H
	ORG $+3
$SG44724 DB	'/', 00H
	ORG $+2
$SG44420 DB	'W:\cpp\void\ktt-c\kttc-read-declaration.c', 00H
	ORG $+2
$SG44726 DB	'%', 00H
	ORG $+2
$SG44423 DB	'expected '']'' for array modifier', 00H
$SG44425 DB	'ccread_direct_decl_name_modifier', 00H
	ORG $+3
$SG44728 DB	'-', 00H
	ORG $+2
$SG44426 DB	'W:\cpp\void\ktt-c\kttc-read-declaration.c', 00H
	ORG $+2
$SG44730 DB	'+', 00H
	ORG $+2
$SG44440 DB	'expected closing '')'' for declarator', 00H
$SG44732 DB	'*', 00H
	ORG $+2
$SG44442 DB	'ccread_direct_decl_name', 00H
$SG44443 DB	'W:\cpp\void\ktt-c\kttc-read-declaration.c', 00H
	ORG $+2
$SG44734 DB	'&', 00H
	ORG $+2
$SG44507 DB	'expected '';'' at end of struct-declaration', 00H
	ORG $+2
$SG44736 DB	'--', 00H
	ORG $+1
$SG44509 DB	'ccread_struct_decl', 00H
	ORG $+1
$SG44738 DB	'++', 00H
	ORG $+1
$SG44510 DB	'W:\cpp\void\ktt-c\kttc-read-declaration.c', 00H
	ORG $+2
$SG44740 DB	'--', 00H
	ORG $+1
$SG44529 DB	'expected ''{'' for struct specifier', 00H
	ORG $+2
$SG44742 DB	'++', 00H
	ORG $+1
$SG44531 DB	'ccread_struct_or_union_specifier', 00H
	ORG $+3
$SG44744 DB	'!', 00H
	ORG $+2
$SG44532 DB	'W:\cpp\void\ktt-c\kttc-read-declaration.c', 00H
	ORG $+2
$SG44746 DB	'>', 00H
	ORG $+2
$SG44534 DB	'expected ''}'' for struct specifier', 00H
	ORG $+2
$SG44748 DB	'<', 00H
	ORG $+2
$SG44536 DB	'ccread_struct_or_union_specifier', 00H
	ORG $+3
$SG44750 DB	'~', 00H
	ORG $+2
$SG44537 DB	'W:\cpp\void\ktt-c\kttc-read-declaration.c', 00H
	ORG $+2
$SG44752 DB	'^', 00H
	ORG $+2
$SG44539 DB	'notimpl', 00H
$SG44609 DB	'misplaced or too many '','' in parameter list', 00H
$SG44754 DB	'^', 00H
	ORG $+2
$SG44611 DB	'ccread_parameter_list', 00H
	ORG $+2
$SG44612 DB	'W:\cpp\void\ktt-c\kttc-read-declaration.c', 00H
	ORG $+2
$SG44756 DB	'&', 00H
	ORG $+2
$SG44649 DB	'expected ending ''}'' of compound statement', 00H
	ORG $+2
$SG44758 DB	'<<', 00H
	ORG $+1
$SG44651 DB	'ccread_statement', 00H
	ORG $+3
$SG44760 DB	'>>', 00H
	ORG $+1
$SG44652 DB	'W:\cpp\void\ktt-c\kttc-read-statement.c', 00H
$SG44656 DB	'expected '';'' at end of statement', 00H
	ORG $+3
$SG44762 DB	'||', 00H
	ORG $+1
$SG44658 DB	'ccread_statement', 00H
	ORG $+3
$SG44764 DB	'&&', 00H
	ORG $+1
$SG44659 DB	'W:\cpp\void\ktt-c\kttc-read-statement.c', 00H
$SG44662 DB	'expected '';'' at end of statement', 00H
	ORG $+3
$SG44766 DB	'==', 00H
	ORG $+1
$SG44664 DB	'ccread_statement', 00H
	ORG $+3
$SG44768 DB	'!=', 00H
	ORG $+1
$SG44665 DB	'W:\cpp\void\ktt-c\kttc-read-statement.c', 00H
$SG44692 DB	'%lli', 00H
	ORG $+3
$SG44770 DB	'=', 00H
	ORG $+2
$SG44772 DB	'*=', 00H
	ORG $+1
$SG44774 DB	'/=', 00H
	ORG $+1
$SG44776 DB	'%=', 00H
	ORG $+1
$SG44778 DB	'-=', 00H
	ORG $+1
$SG44780 DB	'+=', 00H
	ORG $+1
$SG44782 DB	'<=', 00H
	ORG $+1
$SG44784 DB	'>=', 00H
	ORG $+1
$SG44786 DB	'^=', 00H
	ORG $+1
$SG44788 DB	'&=', 00H
	ORG $+1
$SG44790 DB	'^=', 00H
	ORG $+1
$SG44792 DB	'error', 00H
	ORG $+2
$SG44811 DB	'decl: ', 00H
	ORG $+1
$SG44812 DB	' ', 00H
	ORG $+2
$SG44814 DB	',', 00H
	ORG $+2
$SG44815 DB	'=', 00H
	ORG $+2
$SG44816 DB	0aH, 00H
	ORG $+2
$SG44831 DB	0aH, 00H
	ORG $+2
$SG44830 DB	'struct %s:', 00H
	ORG $+1
$SG44842 DB	')', 00H
	ORG $+2
$SG44832 DB	'struct <unnamed>', 00H
	ORG $+3
$SG44841 DB	'(arr: ', 00H
	ORG $+1
$SG44844 DB	'(fun: ', 00H
	ORG $+1
$SG44845 DB	')', 00H
	ORG $+2
$SG44847 DB	'(ptr: ', 00H
	ORG $+1
$SG44848 DB	')', 00H
	ORG $+2
$SG44862 DB	'uint64', 00H
	ORG $+1
$SG44893 DB	0aH, 00H
	ORG $+2
$SG44850 DB	'float32', 00H
$SG44852 DB	'float64', 00H
$SG44854 DB	'int64', 00H
	ORG $+2
$SG44856 DB	'int32', 00H
	ORG $+2
$SG44858 DB	'int16', 00H
	ORG $+2
$SG44860 DB	'int8', 00H
	ORG $+3
$SG44864 DB	'uint32', 00H
	ORG $+1
$SG44866 DB	'uint16', 00H
	ORG $+1
$SG44868 DB	'uint8', 00H
	ORG $+2
$SG44870 DB	'void', 00H
	ORG $+3
$SG44890 DB	'cctree_t::nil', 00H
	ORG $+2
$SG44895 DB	'=', 00H
	ORG $+2
$SG44897 DB	'(', 00H
	ORG $+2
$SG44898 DB	' ? ', 00H
$SG44899 DB	' : ', 00H
$SG44900 DB	')', 00H
	ORG $+2
$SG44902 DB	'(', 00H
	ORG $+2
$SG44903 DB	' ', 00H
	ORG $+2
$SG44904 DB	' ', 00H
	ORG $+2
$SG44905 DB	')', 00H
	ORG $+2
$SG44907 DB	'(', 00H
	ORG $+2
$SG44908 DB	' ', 00H
	ORG $+2
$SG44909 DB	')', 00H
	ORG $+2
$SG47170 DB	'do', 00H
	ORG $+1
$SG47171 DB	'else', 00H
	ORG $+3
$SG47172 DB	'if', 00H
	ORG $+1
$SG47173 DB	'while', 00H
	ORG $+2
$SG47181 DB	'syntax error', 0aH, 00H
	ORG $+2
$SG47400 DB	'%c = %d', 0aH, 00H
CONST	ENDS
PUBLIC	__local_stdio_printf_options
PUBLIC	_vfprintf_l
PUBLIC	printf
PUBLIC	stbsp_vsprintf
PUBLIC	stbsp_vsnprintf
PUBLIC	stbsp_sprintf
PUBLIC	stbsp_snprintf
PUBLIC	stbsp_vsprintfcb
PUBLIC	stbsp_set_separators
PUBLIC	?syntax_error@@YAXXZ				; syntax_error
PUBLIC	?next_ch@@YAXXZ					; next_ch
PUBLIC	?next_sym@@YAXXZ				; next_sym
PUBLIC	?new_node@@YAPEAUnode@@H@Z			; new_node
PUBLIC	?paren_expr@@YAPEAUnode@@XZ			; paren_expr
PUBLIC	?term@@YAPEAUnode@@XZ				; term
PUBLIC	?sum@@YAPEAUnode@@XZ				; sum
PUBLIC	?test@@YAPEAUnode@@XZ				; test
PUBLIC	?expr@@YAPEAUnode@@XZ				; expr
PUBLIC	?statement@@YAPEAUnode@@XZ			; statement
PUBLIC	?program@@YAPEAUnode@@XZ			; program
PUBLIC	?g@@YAXH@Z					; g
PUBLIC	?hole@@YAPEADXZ					; hole
PUBLIC	?fix@@YAXPEAD0@Z				; fix
PUBLIC	?c@@YAXPEAUnode@@@Z				; c
PUBLIC	?run@@YAXXZ					; run
PUBLIC	main
PUBLIC	?_OptionsStorage@?1??__local_stdio_printf_options@@9@4_KA ; `__local_stdio_printf_options'::`2'::_OptionsStorage
PUBLIC	__real@408f400000000000
PUBLIC	__real@4090000000000000
PUBLIC	__xmm@80000000000000008000000000000000
EXTRN	__report_rangecheckfailure:PROC
EXTRN	memset:PROC
EXTRN	strcmp:PROC
EXTRN	__imp_OutputDebugStringA:PROC
EXTRN	__imp___acrt_iob_func:PROC
EXTRN	__imp___stdio_common_vfprintf:PROC
EXTRN	__imp_malloc:PROC
EXTRN	__GSHandlerCheck:PROC
EXTRN	__security_check_cookie:PROC
EXTRN	__ImageBase:BYTE
EXTRN	__security_cookie:QWORD
EXTRN	_fltused:DWORD
;	COMDAT ?_OptionsStorage@?1??__local_stdio_printf_options@@9@4_KA
_BSS	SEGMENT
?_OptionsStorage@?1??__local_stdio_printf_options@@9@4_KA DQ 01H DUP (?) ; `__local_stdio_printf_options'::`2'::_OptionsStorage
_BSS	ENDS
_BSS	SEGMENT
	ALIGN	8

?ctype_flo32@@3PEAUcctype_t@@EA DQ 01H DUP (?)		; ctype_flo32
?ctype_flo64@@3PEAUcctype_t@@EA DQ 01H DUP (?)		; ctype_flo64
?ctype_int64@@3PEAUcctype_t@@EA DQ 01H DUP (?)		; ctype_int64
?ctype_int32@@3PEAUcctype_t@@EA DQ 01H DUP (?)		; ctype_int32
?ctype_int16@@3PEAUcctype_t@@EA DQ 01H DUP (?)		; ctype_int16
?ctype_int8@@3PEAUcctype_t@@EA DQ 01H DUP (?)		; ctype_int8
?ctype_uint64@@3PEAUcctype_t@@EA DQ 01H DUP (?)		; ctype_uint64
?ctype_uint32@@3PEAUcctype_t@@EA DQ 01H DUP (?)		; ctype_uint32
?ctype_uint16@@3PEAUcctype_t@@EA DQ 01H DUP (?)		; ctype_uint16
?ctype_uint8@@3PEAUcctype_t@@EA DQ 01H DUP (?)		; ctype_uint8
?ctype_void@@3PEAUcctype_t@@EA DQ 01H DUP (?)		; ctype_void
_BSS	ENDS
;	COMDAT pdata
pdata	SEGMENT
$pdata$_vfprintf_l DD imagerel $LN3
	DD	imagerel $LN3+68
	DD	imagerel $unwind$_vfprintf_l
pdata	ENDS
;	COMDAT pdata
pdata	SEGMENT
$pdata$printf DD imagerel $LN3
	DD	imagerel $LN3+105
	DD	imagerel $unwind$printf
pdata	ENDS
pdata	SEGMENT
$pdata$stbsp_vsprintf DD imagerel $LN3
	DD	imagerel $LN3+53
	DD	imagerel $unwind$stbsp_vsprintf
$pdata$stbsp_vsnprintf DD imagerel $LN6
	DD	imagerel $LN6+303
	DD	imagerel $unwind$stbsp_vsnprintf
$pdata$stbsp_sprintf DD imagerel $LN3
	DD	imagerel $LN3+85
	DD	imagerel $unwind$stbsp_sprintf
$pdata$stbsp_snprintf DD imagerel $LN3
	DD	imagerel $LN3+79
	DD	imagerel $unwind$stbsp_snprintf
$pdata$stbsp_vsprintfcb DD imagerel $LN461
	DD	imagerel $LN461+14656
	DD	imagerel $unwind$stbsp_vsprintfcb
$pdata$?stbsp__real_to_str@@YAHPEAPEBDPEAIPEADPEAHNI@Z DD imagerel ?stbsp__real_to_str@@YAHPEAPEBDPEAIPEADPEAHNI@Z
	DD	imagerel ?stbsp__real_to_str@@YAHPEAPEBDPEAIPEADPEAHNI@Z+1622
	DD	imagerel $unwind$?stbsp__real_to_str@@YAHPEAPEBDPEAIPEADPEAHNI@Z
$pdata$?stbsp__real_to_parts@@YAHPEA_JPEAHN@Z DD imagerel ?stbsp__real_to_parts@@YAHPEA_JPEAHN@Z
	DD	imagerel ?stbsp__real_to_parts@@YAHPEA_JPEAHN@Z+154
	DD	imagerel $unwind$?stbsp__real_to_parts@@YAHPEA_JPEAHN@Z
$pdata$?stbsp__strlen_limited@@YAIPEBDI@Z DD imagerel ?stbsp__strlen_limited@@YAIPEBDI@Z
	DD	imagerel ?stbsp__strlen_limited@@YAIPEBDI@Z+239
	DD	imagerel $unwind$?stbsp__strlen_limited@@YAIPEBDI@Z
$pdata$?stbsp__clamp_callback@@YAPEADPEBDPEAXH@Z DD imagerel ?stbsp__clamp_callback@@YAPEADPEBDPEAXH@Z
	DD	imagerel ?stbsp__clamp_callback@@YAPEADPEBDPEAXH@Z+323
	DD	imagerel $unwind$?stbsp__clamp_callback@@YAPEADPEBDPEAXH@Z
$pdata$?stbsp__count_clamp_callback@@YAPEADPEBDPEAXH@Z DD imagerel ?stbsp__count_clamp_callback@@YAPEADPEBDPEAXH@Z
	DD	imagerel ?stbsp__count_clamp_callback@@YAPEADPEBDPEAXH@Z+59
	DD	imagerel $unwind$?stbsp__count_clamp_callback@@YAPEADPEBDPEAXH@Z
$pdata$?stbsp__raise_to_power10@@YAXPEAN0NH@Z DD imagerel ?stbsp__raise_to_power10@@YAXPEAN0NH@Z
	DD	imagerel ?stbsp__raise_to_power10@@YAXPEAN0NH@Z+3868
	DD	imagerel $unwind$?stbsp__raise_to_power10@@YAXPEAN0NH@Z
$pdata$?ccout@@YAXPEBD@Z DD imagerel ?ccout@@YAXPEBD@Z
	DD	imagerel ?ccout@@YAXPEBD@Z+35
	DD	imagerel $unwind$?ccout@@YAXPEBD@Z
$pdata$?cctype_new@@YAPEAUcctype_t@@W4cctypekind_t@@@Z DD imagerel ?cctype_new@@YAPEAUcctype_t@@W4cctypekind_t@@@Z
	DD	imagerel ?cctype_new@@YAPEAUcctype_t@@W4cctypekind_t@@@Z+63
	DD	imagerel $unwind$?cctype_new@@YAPEAUcctype_t@@W4cctypekind_t@@@Z
pdata	ENDS
;	COMDAT pdata
pdata	SEGMENT
$pdata$??__Ectype_flo32@@YAXXZ DD imagerel ??__Ectype_flo32@@YAXXZ
	DD	imagerel ??__Ectype_flo32@@YAXXZ+26
	DD	imagerel $unwind$??__Ectype_flo32@@YAXXZ
pdata	ENDS
;	COMDAT pdata
pdata	SEGMENT
$pdata$??__Ectype_flo64@@YAXXZ DD imagerel ??__Ectype_flo64@@YAXXZ
	DD	imagerel ??__Ectype_flo64@@YAXXZ+26
	DD	imagerel $unwind$??__Ectype_flo64@@YAXXZ
pdata	ENDS
;	COMDAT pdata
pdata	SEGMENT
$pdata$??__Ectype_int64@@YAXXZ DD imagerel ??__Ectype_int64@@YAXXZ
	DD	imagerel ??__Ectype_int64@@YAXXZ+26
	DD	imagerel $unwind$??__Ectype_int64@@YAXXZ
pdata	ENDS
;	COMDAT pdata
pdata	SEGMENT
$pdata$??__Ectype_int32@@YAXXZ DD imagerel ??__Ectype_int32@@YAXXZ
	DD	imagerel ??__Ectype_int32@@YAXXZ+26
	DD	imagerel $unwind$??__Ectype_int32@@YAXXZ
pdata	ENDS
;	COMDAT pdata
pdata	SEGMENT
$pdata$??__Ectype_int16@@YAXXZ DD imagerel ??__Ectype_int16@@YAXXZ
	DD	imagerel ??__Ectype_int16@@YAXXZ+26
	DD	imagerel $unwind$??__Ectype_int16@@YAXXZ
pdata	ENDS
;	COMDAT pdata
pdata	SEGMENT
$pdata$??__Ectype_int8@@YAXXZ DD imagerel ??__Ectype_int8@@YAXXZ
	DD	imagerel ??__Ectype_int8@@YAXXZ+26
	DD	imagerel $unwind$??__Ectype_int8@@YAXXZ
pdata	ENDS
;	COMDAT pdata
pdata	SEGMENT
$pdata$??__Ectype_uint64@@YAXXZ DD imagerel ??__Ectype_uint64@@YAXXZ
	DD	imagerel ??__Ectype_uint64@@YAXXZ+26
	DD	imagerel $unwind$??__Ectype_uint64@@YAXXZ
pdata	ENDS
;	COMDAT pdata
pdata	SEGMENT
$pdata$??__Ectype_uint32@@YAXXZ DD imagerel ??__Ectype_uint32@@YAXXZ
	DD	imagerel ??__Ectype_uint32@@YAXXZ+26
	DD	imagerel $unwind$??__Ectype_uint32@@YAXXZ
pdata	ENDS
;	COMDAT pdata
pdata	SEGMENT
$pdata$??__Ectype_uint16@@YAXXZ DD imagerel ??__Ectype_uint16@@YAXXZ
	DD	imagerel ??__Ectype_uint16@@YAXXZ+26
	DD	imagerel $unwind$??__Ectype_uint16@@YAXXZ
pdata	ENDS
;	COMDAT pdata
pdata	SEGMENT
$pdata$??__Ectype_uint8@@YAXXZ DD imagerel ??__Ectype_uint8@@YAXXZ
	DD	imagerel ??__Ectype_uint8@@YAXXZ+26
	DD	imagerel $unwind$??__Ectype_uint8@@YAXXZ
pdata	ENDS
;	COMDAT pdata
pdata	SEGMENT
$pdata$??__Ectype_void@@YAXXZ DD imagerel ??__Ectype_void@@YAXXZ
	DD	imagerel ??__Ectype_void@@YAXXZ+26
	DD	imagerel $unwind$??__Ectype_void@@YAXXZ
pdata	ENDS
pdata	SEGMENT
$pdata$?syntax_error@@YAXXZ DD imagerel $LN3
	DD	imagerel $LN3+22
	DD	imagerel $unwind$?syntax_error@@YAXXZ
$pdata$?next_ch@@YAXXZ DD imagerel $LN3
	DD	imagerel $LN3+48
	DD	imagerel $unwind$?next_ch@@YAXXZ
$pdata$?next_sym@@YAXXZ DD imagerel $LN37
	DD	imagerel $LN37+835
	DD	imagerel $unwind$?next_sym@@YAXXZ
$pdata$?new_node@@YAPEAUnode@@H@Z DD imagerel $LN3
	DD	imagerel $LN3+45
	DD	imagerel $unwind$?new_node@@YAPEAUnode@@H@Z
$pdata$?paren_expr@@YAPEAUnode@@XZ DD imagerel $LN7
	DD	imagerel $LN7+66
	DD	imagerel $unwind$?paren_expr@@YAPEAUnode@@XZ
$pdata$?term@@YAPEAUnode@@XZ DD imagerel $LN7
	DD	imagerel $LN7+128
	DD	imagerel $unwind$?term@@YAPEAUnode@@XZ
$pdata$?sum@@YAPEAUnode@@XZ DD imagerel $LN8
	DD	imagerel $LN8+128
	DD	imagerel $unwind$?sum@@YAPEAUnode@@XZ
$pdata$?test@@YAPEAUnode@@XZ DD imagerel $LN4
	DD	imagerel $LN4+91
	DD	imagerel $unwind$?test@@YAPEAUnode@@XZ
$pdata$?expr@@YAPEAUnode@@XZ DD imagerel $LN5
	DD	imagerel $LN5+117
	DD	imagerel $unwind$?expr@@YAPEAUnode@@XZ
$pdata$?statement@@YAPEAUnode@@XZ DD imagerel $LN22
	DD	imagerel $LN22+465
	DD	imagerel $unwind$?statement@@YAPEAUnode@@XZ
$pdata$?program@@YAPEAUnode@@XZ DD imagerel $LN4
	DD	imagerel $LN4+62
	DD	imagerel $unwind$?program@@YAPEAUnode@@XZ
$pdata$?hole@@YAPEADXZ DD imagerel $LN3
	DD	imagerel $LN3+41
	DD	imagerel $unwind$?hole@@YAPEADXZ
$pdata$?c@@YAXPEAUnode@@@Z DD imagerel $LN20
	DD	imagerel $LN20+800
	DD	imagerel $unwind$?c@@YAXPEAUnode@@@Z
$pdata$?run@@YAXXZ DD imagerel $LN31
	DD	imagerel $LN31+748
	DD	imagerel $unwind$?run@@YAXXZ
$pdata$main DD	imagerel $LN10
	DD	imagerel $LN10+193
	DD	imagerel $unwind$main
pdata	ENDS
CRT$XCU	SEGMENT
?ctype_flo32$initializer$@@3P6AXXZEA DQ FLAT:??__Ectype_flo32@@YAXXZ ; ctype_flo32$initializer$
CRT$XCU	ENDS
;	COMDAT __xmm@80000000000000008000000000000000
CONST	SEGMENT
__xmm@80000000000000008000000000000000 DB 00H, 00H, 00H, 00H, 00H, 00H, 00H
	DB	080H, 00H, 00H, 00H, 00H, 00H, 00H, 00H, 080H
CONST	ENDS
;	COMDAT __real@4090000000000000
CONST	SEGMENT
__real@4090000000000000 DQ 04090000000000000r	; 1024
CONST	ENDS
;	COMDAT __real@408f400000000000
CONST	SEGMENT
__real@408f400000000000 DQ 0408f400000000000r	; 1000
CONST	ENDS
;	COMDAT ?hexu@?1??stbsp_vsprintfcb@@9@4PADA
_DATA	SEGMENT
?hexu@?1??stbsp_vsprintfcb@@9@4PADA DB '0123456789ABCDEFXP', 00H ; `stbsp_vsprintfcb'::`2'::hexu
_DATA	ENDS
;	COMDAT ?hex@?1??stbsp_vsprintfcb@@9@4PADA
_DATA	SEGMENT
?hex@?1??stbsp_vsprintfcb@@9@4PADA DB '0123456789abcdefxp', 00H ; `stbsp_vsprintfcb'::`2'::hex
_DATA	ENDS
_DATA	SEGMENT
?stbsp__period@@3DA DB 02eH				; stbsp__period
?stbsp__comma@@3DA DB 02cH				; stbsp__comma
	ORG $+6
?stbsp__digitpair@@3U<unnamed-type-stbsp__digitpair>@@A DW 00H ; stbsp__digitpair
	DB	'00010203040506070809101112131415161718192021222324252627'
	DB	'2829303132333435363738394041424344454647484950515253545556575'
	DB	'8596061626364656667686970717273747576777879808182838485868788'
	DB	'8990919293949596979899', 00H
	ORG $+1
_DATA	ENDS
;	COMDAT xdata
xdata	SEGMENT
$unwind$??__Ectype_void@@YAXXZ DD 010401H
	DD	04204H
xdata	ENDS
;	COMDAT xdata
xdata	SEGMENT
$unwind$??__Ectype_uint8@@YAXXZ DD 010401H
	DD	04204H
xdata	ENDS
;	COMDAT xdata
xdata	SEGMENT
$unwind$??__Ectype_uint16@@YAXXZ DD 010401H
	DD	04204H
xdata	ENDS
;	COMDAT xdata
xdata	SEGMENT
$unwind$??__Ectype_uint32@@YAXXZ DD 010401H
	DD	04204H
xdata	ENDS
;	COMDAT xdata
xdata	SEGMENT
$unwind$??__Ectype_uint64@@YAXXZ DD 010401H
	DD	04204H
xdata	ENDS
;	COMDAT xdata
xdata	SEGMENT
$unwind$??__Ectype_int8@@YAXXZ DD 010401H
	DD	04204H
xdata	ENDS
;	COMDAT xdata
xdata	SEGMENT
$unwind$??__Ectype_int16@@YAXXZ DD 010401H
	DD	04204H
xdata	ENDS
;	COMDAT xdata
xdata	SEGMENT
$unwind$??__Ectype_int32@@YAXXZ DD 010401H
	DD	04204H
xdata	ENDS
;	COMDAT xdata
xdata	SEGMENT
$unwind$??__Ectype_int64@@YAXXZ DD 010401H
	DD	04204H
xdata	ENDS
;	COMDAT xdata
xdata	SEGMENT
$unwind$??__Ectype_flo64@@YAXXZ DD 010401H
	DD	04204H
xdata	ENDS
;	COMDAT xdata
xdata	SEGMENT
$unwind$??__Ectype_flo32@@YAXXZ DD 010401H
	DD	04204H
xdata	ENDS
voltbl	SEGMENT
_volmd	DD	0ffffffffH
	DDSymXIndex: 	FLAT:?run@@YAXXZ
	DD	011H
	DD	02aaH
_volmd	DD	0ffffffffH
	DDSymXIndex: 	FLAT:stbsp_vsnprintf
	DD	024H
	DD	0117H
_volmd	DD	0ffffffffH
	DDSymXIndex: 	FLAT:stbsp_vsprintfcb
	DD	025H
	DD	02fb5H
	DD	02fb7H
	DD	037ecH
voltbl	ENDS
xdata	SEGMENT
$unwind$stbsp_vsprintf DD 011301H
	DD	06213H
$unwind$stbsp_vsnprintf DD 022c19H
	DD	04d011aH
	DD	imagerel __GSHandlerCheck
	DD	0250H
$unwind$stbsp_sprintf DD 011801H
	DD	08218H
$unwind$stbsp_snprintf DD 011701H
	DD	06217H
$unwind$stbsp_vsprintfcb DD 022d19H
	DD	0a3011bH
	DD	imagerel __GSHandlerCheck
	DD	0500H
$unwind$?stbsp__real_to_str@@YAHPEAPEBDPEAIPEADPEAHNI@Z DD 021b01H
	DD	017011bH
$unwind$?stbsp__real_to_parts@@YAHPEA_JPEAHN@Z DD 011401H
	DD	04214H
$unwind$?stbsp__strlen_limited@@YAIPEBDI@Z DD 010d01H
	DD	0220dH
$unwind$?stbsp__clamp_callback@@YAPEADPEBDPEAXH@Z DD 011301H
	DD	06213H
$unwind$?stbsp__count_clamp_callback@@YAPEADPEBDPEAXH@Z DD 011301H
	DD	02213H
$unwind$?stbsp__raise_to_power10@@YAXPEAN0NH@Z DD 021c01H
	DD	035011cH
$unwind$?ccout@@YAXPEBD@Z DD 010901H
	DD	04209H
$unwind$?cctype_new@@YAPEAUcctype_t@@W4cctypekind_t@@@Z DD 010801H
	DD	06208H
$unwind$?syntax_error@@YAXXZ DD 010401H
	DD	04204H
$unwind$?next_ch@@YAXXZ DD 010401H
	DD	02204H
$unwind$?next_sym@@YAXXZ DD 010401H
	DD	06204H
$unwind$?new_node@@YAPEAUnode@@H@Z DD 010801H
	DD	06208H
$unwind$?paren_expr@@YAPEAUnode@@XZ DD 010401H
	DD	06204H
$unwind$?term@@YAPEAUnode@@XZ DD 010401H
	DD	06204H
$unwind$?sum@@YAPEAUnode@@XZ DD 010401H
	DD	08204H
$unwind$?test@@YAPEAUnode@@XZ DD 010401H
	DD	06204H
$unwind$?expr@@YAPEAUnode@@XZ DD 010401H
	DD	06204H
$unwind$?statement@@YAPEAUnode@@XZ DD 010401H
	DD	06204H
$unwind$?program@@YAPEAUnode@@XZ DD 010401H
	DD	06204H
$unwind$?hole@@YAPEADXZ DD 010401H
	DD	02204H
$unwind$?c@@YAXPEAUnode@@@Z DD 010901H
	DD	08209H
$unwind$?run@@YAXXZ DD 021919H
	DD	01fd0107H
	DD	imagerel __GSHandlerCheck
	DD	0fd0H
$unwind$main DD	010d01H
	DD	0620dH
xdata	ENDS
;	COMDAT xdata
xdata	SEGMENT
$unwind$printf DD 011801H
	DD	08218H
xdata	ENDS
;	COMDAT xdata
xdata	SEGMENT
$unwind$_vfprintf_l DD 011801H
	DD	06218H
xdata	ENDS
CRT$XCU	SEGMENT
?ctype_flo64$initializer$@@3P6AXXZEA DQ FLAT:??__Ectype_flo64@@YAXXZ ; ctype_flo64$initializer$
CRT$XCU	ENDS
CRT$XCU	SEGMENT
?ctype_int64$initializer$@@3P6AXXZEA DQ FLAT:??__Ectype_int64@@YAXXZ ; ctype_int64$initializer$
CRT$XCU	ENDS
CRT$XCU	SEGMENT
?ctype_int32$initializer$@@3P6AXXZEA DQ FLAT:??__Ectype_int32@@YAXXZ ; ctype_int32$initializer$
CRT$XCU	ENDS
CRT$XCU	SEGMENT
?ctype_int16$initializer$@@3P6AXXZEA DQ FLAT:??__Ectype_int16@@YAXXZ ; ctype_int16$initializer$
CRT$XCU	ENDS
CRT$XCU	SEGMENT
?ctype_int8$initializer$@@3P6AXXZEA DQ FLAT:??__Ectype_int8@@YAXXZ ; ctype_int8$initializer$
CRT$XCU	ENDS
CRT$XCU	SEGMENT
?ctype_uint64$initializer$@@3P6AXXZEA DQ FLAT:??__Ectype_uint64@@YAXXZ ; ctype_uint64$initializer$
CRT$XCU	ENDS
CRT$XCU	SEGMENT
?ctype_uint32$initializer$@@3P6AXXZEA DQ FLAT:??__Ectype_uint32@@YAXXZ ; ctype_uint32$initializer$
CRT$XCU	ENDS
CRT$XCU	SEGMENT
?ctype_uint16$initializer$@@3P6AXXZEA DQ FLAT:??__Ectype_uint16@@YAXXZ ; ctype_uint16$initializer$
CRT$XCU	ENDS
CRT$XCU	SEGMENT
?ctype_uint8$initializer$@@3P6AXXZEA DQ FLAT:??__Ectype_uint8@@YAXXZ ; ctype_uint8$initializer$
CRT$XCU	ENDS
CRT$XCU	SEGMENT
?ctype_void$initializer$@@3P6AXXZEA DQ FLAT:??__Ectype_void@@YAXXZ ; ctype_void$initializer$
CRT$XCU	ENDS
; Function compile flags: /Odtp
_TEXT	SEGMENT
i$ = 32
l$ = 64
a$ = 72
main	PROC
; File W:\cpp\void\ktt-c\ccvm.c
; Line 229
$LN10:
	mov	QWORD PTR [rsp+16], rdx
	mov	DWORD PTR [rsp+8], ecx
	sub	rsp, 56					; 00000038H
; Line 232
	mov	eax, 8
	imul	rax, rax, 1
	mov	rcx, QWORD PTR a$[rsp]
	mov	rax, QWORD PTR [rcx+rax]
	mov	QWORD PTR ?pa@@3PEADEA, rax		; pa
; Line 234
	call	?program@@YAPEAUnode@@XZ		; program
	mov	rcx, rax
	call	?c@@YAXPEAUnode@@@Z			; c
; Line 236
	mov	DWORD PTR i$[rsp], 0
	jmp	SHORT $LN4@main
$LN2@main:
	mov	eax, DWORD PTR i$[rsp]
	inc	eax
	mov	DWORD PTR i$[rsp], eax
$LN4@main:
	cmp	DWORD PTR i$[rsp], 26
	jge	SHORT $LN3@main
; Line 237
	movsxd	rax, DWORD PTR i$[rsp]
	lea	rcx, OFFSET FLAT:?globals@@3PAHA	; globals
	mov	DWORD PTR [rcx+rax*4], 0
	jmp	SHORT $LN2@main
$LN3@main:
; Line 238
	call	?run@@YAXXZ				; run
; Line 239
	mov	DWORD PTR i$[rsp], 0
	jmp	SHORT $LN7@main
$LN5@main:
	mov	eax, DWORD PTR i$[rsp]
	inc	eax
	mov	DWORD PTR i$[rsp], eax
$LN7@main:
	cmp	DWORD PTR i$[rsp], 26
	jge	SHORT $LN6@main
; Line 240
	movsxd	rax, DWORD PTR i$[rsp]
	lea	rcx, OFFSET FLAT:?globals@@3PAHA	; globals
	cmp	DWORD PTR [rcx+rax*4], 0
	je	SHORT $LN8@main
; Line 241
	movsxd	rax, DWORD PTR i$[rsp]
	lea	rcx, OFFSET FLAT:?globals@@3PAHA	; globals
	mov	edx, DWORD PTR i$[rsp]
	add	edx, 97					; 00000061H
	mov	r8d, DWORD PTR [rcx+rax*4]
	lea	rcx, OFFSET FLAT:$SG47400
	call	printf
$LN8@main:
	jmp	SHORT $LN5@main
$LN6@main:
; Line 243
	xor	eax, eax
; Line 244
	add	rsp, 56					; 00000038H
	ret	0
main	ENDP
_TEXT	ENDS
; Function compile flags: /Odtp
_TEXT	SEGMENT
sp$ = 0
pc$ = 8
tv67 = 16
tv142 = 20
tv66 = 24
tv74 = 28
tv85 = 32
stack$ = 48
__$ArrayPad$ = 4048
?run@@YAXXZ PROC					; run
; File W:\cpp\void\ktt-c\ccvm.c
; Line 208
$LN31:
	sub	rsp, 4072				; 00000fe8H
	mov	rax, QWORD PTR __security_cookie
	xor	rax, rsp
	mov	QWORD PTR __$ArrayPad$[rsp], rax
	lea	rax, QWORD PTR stack$[rsp]
	mov	QWORD PTR sp$[rsp], rax
; Line 209
	lea	rax, OFFSET FLAT:?object@@3PADA		; object
	mov	QWORD PTR pc$[rsp], rax
$LN29@run:
$LN28@run:
$LN27@run:
$LN26@run:
$LN25@run:
$LN24@run:
$LN23@run:
$LN22@run:
$LN21@run:
$again$32:
; Line 210
	mov	rax, QWORD PTR pc$[rsp]
	movsx	eax, BYTE PTR [rax]
	mov	DWORD PTR tv66[rsp], eax
	mov	rax, QWORD PTR pc$[rsp]
	inc	rax
	mov	QWORD PTR pc$[rsp], rax
	mov	eax, DWORD PTR tv66[rsp]
	mov	DWORD PTR tv67[rsp], eax
	cmp	DWORD PTR tv67[rsp], 9
	ja	$LN2@run
	movsxd	rax, DWORD PTR tv67[rsp]
	lea	rcx, OFFSET FLAT:__ImageBase
	mov	eax, DWORD PTR $LN30@run[rcx+rax*4]
	add	rax, rcx
	jmp	rax
$LN4@run:
; Line 211
	mov	rax, QWORD PTR pc$[rsp]
	movsx	rax, BYTE PTR [rax]
	lea	rcx, OFFSET FLAT:?globals@@3PAHA	; globals
	mov	eax, DWORD PTR [rcx+rax*4]
	mov	DWORD PTR tv74[rsp], eax
	mov	rax, QWORD PTR pc$[rsp]
	inc	rax
	mov	QWORD PTR pc$[rsp], rax
	mov	rax, QWORD PTR sp$[rsp]
	mov	ecx, DWORD PTR tv74[rsp]
	mov	DWORD PTR [rax], ecx
	mov	rax, QWORD PTR sp$[rsp]
	add	rax, 4
	mov	QWORD PTR sp$[rsp], rax
	jmp	SHORT $again$32
$LN5@run:
; Line 212
	mov	eax, 4
	imul	rax, rax, -1
	mov	rcx, QWORD PTR pc$[rsp]
	movsx	rcx, BYTE PTR [rcx]
	lea	rdx, OFFSET FLAT:?globals@@3PAHA	; globals
	mov	r8, QWORD PTR sp$[rsp]
	mov	eax, DWORD PTR [r8+rax]
	mov	DWORD PTR [rdx+rcx*4], eax
	mov	rax, QWORD PTR pc$[rsp]
	inc	rax
	mov	QWORD PTR pc$[rsp], rax
	jmp	$LN21@run
$LN6@run:
; Line 213
	mov	rax, QWORD PTR pc$[rsp]
	movsx	eax, BYTE PTR [rax]
	mov	DWORD PTR tv85[rsp], eax
	mov	rax, QWORD PTR pc$[rsp]
	inc	rax
	mov	QWORD PTR pc$[rsp], rax
	mov	rax, QWORD PTR sp$[rsp]
	mov	ecx, DWORD PTR tv85[rsp]
	mov	DWORD PTR [rax], ecx
	mov	rax, QWORD PTR sp$[rsp]
	add	rax, 4
	mov	QWORD PTR sp$[rsp], rax
	jmp	$LN22@run
$LN7@run:
; Line 214
	mov	rax, QWORD PTR sp$[rsp]
	sub	rax, 4
	mov	QWORD PTR sp$[rsp], rax
	jmp	$LN23@run
$LN8@run:
; Line 215
	mov	eax, 4
	imul	rax, rax, -2
	mov	ecx, 4
	imul	rcx, rcx, -1
	mov	rdx, QWORD PTR sp$[rsp]
	mov	eax, DWORD PTR [rdx+rax]
	mov	rdx, QWORD PTR sp$[rsp]
	add	eax, DWORD PTR [rdx+rcx]
	mov	ecx, 4
	imul	rcx, rcx, -2
	mov	rdx, QWORD PTR sp$[rsp]
	mov	DWORD PTR [rdx+rcx], eax
	mov	rax, QWORD PTR sp$[rsp]
	sub	rax, 4
	mov	QWORD PTR sp$[rsp], rax
	jmp	$LN24@run
$LN9@run:
; Line 216
	mov	eax, 4
	imul	rax, rax, -2
	mov	ecx, 4
	imul	rcx, rcx, -1
	mov	rdx, QWORD PTR sp$[rsp]
	mov	r8, QWORD PTR sp$[rsp]
	mov	ecx, DWORD PTR [r8+rcx]
	mov	eax, DWORD PTR [rdx+rax]
	sub	eax, ecx
	mov	ecx, 4
	imul	rcx, rcx, -2
	mov	rdx, QWORD PTR sp$[rsp]
	mov	DWORD PTR [rdx+rcx], eax
	mov	rax, QWORD PTR sp$[rsp]
	sub	rax, 4
	mov	QWORD PTR sp$[rsp], rax
	jmp	$LN25@run
$LN10@run:
; Line 217
	mov	eax, 4
	imul	rax, rax, -2
	mov	ecx, 4
	imul	rcx, rcx, -1
	mov	rdx, QWORD PTR sp$[rsp]
	mov	r8, QWORD PTR sp$[rsp]
	mov	ecx, DWORD PTR [r8+rcx]
	cmp	DWORD PTR [rdx+rax], ecx
	jge	SHORT $LN19@run
	mov	DWORD PTR tv142[rsp], 1
	jmp	SHORT $LN20@run
$LN19@run:
	mov	DWORD PTR tv142[rsp], 0
$LN20@run:
	mov	eax, 4
	imul	rax, rax, -2
	mov	rcx, QWORD PTR sp$[rsp]
	mov	edx, DWORD PTR tv142[rsp]
	mov	DWORD PTR [rcx+rax], edx
	mov	rax, QWORD PTR sp$[rsp]
	sub	rax, 4
	mov	QWORD PTR sp$[rsp], rax
	jmp	$LN26@run
$LN11@run:
; Line 218
	mov	rax, QWORD PTR pc$[rsp]
	movsx	rax, BYTE PTR [rax]
	mov	rcx, QWORD PTR pc$[rsp]
	add	rcx, rax
	mov	rax, rcx
	mov	QWORD PTR pc$[rsp], rax
	jmp	$LN27@run
$LN12@run:
; Line 219
	mov	rax, QWORD PTR sp$[rsp]
	sub	rax, 4
	mov	QWORD PTR sp$[rsp], rax
	mov	rax, QWORD PTR sp$[rsp]
	cmp	DWORD PTR [rax], 0
	jne	SHORT $LN13@run
	mov	rax, QWORD PTR pc$[rsp]
	movsx	rax, BYTE PTR [rax]
	mov	rcx, QWORD PTR pc$[rsp]
	add	rcx, rax
	mov	rax, rcx
	mov	QWORD PTR pc$[rsp], rax
	jmp	SHORT $LN14@run
$LN13@run:
	mov	rax, QWORD PTR pc$[rsp]
	inc	rax
	mov	QWORD PTR pc$[rsp], rax
$LN14@run:
	jmp	$LN28@run
$LN15@run:
; Line 220
	mov	rax, QWORD PTR sp$[rsp]
	sub	rax, 4
	mov	QWORD PTR sp$[rsp], rax
	mov	rax, QWORD PTR sp$[rsp]
	cmp	DWORD PTR [rax], 0
	je	SHORT $LN16@run
	mov	rax, QWORD PTR pc$[rsp]
	movsx	rax, BYTE PTR [rax]
	mov	rcx, QWORD PTR pc$[rsp]
	add	rcx, rax
	mov	rax, rcx
	mov	QWORD PTR pc$[rsp], rax
	jmp	SHORT $LN17@run
$LN16@run:
	mov	rax, QWORD PTR pc$[rsp]
	inc	rax
	mov	QWORD PTR pc$[rsp], rax
$LN17@run:
	jmp	$LN29@run
$LN2@run:
; Line 222
	mov	rcx, QWORD PTR __$ArrayPad$[rsp]
	xor	rcx, rsp
	call	__security_check_cookie
	add	rsp, 4072				; 00000fe8H
	ret	0
	npad	2
$LN30@run:
	DD	$LN4@run
	DD	$LN5@run
	DD	$LN6@run
	DD	$LN7@run
	DD	$LN8@run
	DD	$LN9@run
	DD	$LN10@run
	DD	$LN12@run
	DD	$LN15@run
	DD	$LN11@run
?run@@YAXXZ ENDP					; run
_TEXT	ENDS
; Function compile flags: /Odtp
_TEXT	SEGMENT
tv65 = 32
p1$ = 40
p2$ = 48
x$ = 80
?c@@YAXPEAUnode@@@Z PROC				; c
; File W:\cpp\void\ktt-c\ccvm.c
; Line 180
$LN20:
	mov	QWORD PTR [rsp+8], rcx
	sub	rsp, 72					; 00000048H
; Line 181
	mov	rax, QWORD PTR x$[rsp]
	mov	eax, DWORD PTR [rax]
	mov	DWORD PTR tv65[rsp], eax
	cmp	DWORD PTR tv65[rsp], 13
	ja	$LN2@c
	movsxd	rax, DWORD PTR tv65[rsp]
	lea	rcx, OFFSET FLAT:__ImageBase
	mov	eax, DWORD PTR $LN19@c[rcx+rax*4]
	add	rax, rcx
	jmp	rax
$LN4@c:
; Line 182
	xor	ecx, ecx
	call	?g@@YAXH@Z				; g
	mov	rax, QWORD PTR x$[rsp]
	mov	ecx, DWORD PTR [rax+32]
	call	?g@@YAXH@Z				; g
	jmp	$LN2@c
$LN5@c:
; Line 183
	mov	ecx, 2
	call	?g@@YAXH@Z				; g
	mov	rax, QWORD PTR x$[rsp]
	mov	ecx, DWORD PTR [rax+32]
	call	?g@@YAXH@Z				; g
	jmp	$LN2@c
$LN6@c:
; Line 184
	mov	rax, QWORD PTR x$[rsp]
	mov	rcx, QWORD PTR [rax+8]
	call	?c@@YAXPEAUnode@@@Z			; c
	mov	rax, QWORD PTR x$[rsp]
	mov	rcx, QWORD PTR [rax+16]
	call	?c@@YAXPEAUnode@@@Z			; c
	mov	ecx, 4
	call	?g@@YAXH@Z				; g
	jmp	$LN2@c
$LN7@c:
; Line 185
	mov	rax, QWORD PTR x$[rsp]
	mov	rcx, QWORD PTR [rax+8]
	call	?c@@YAXPEAUnode@@@Z			; c
	mov	rax, QWORD PTR x$[rsp]
	mov	rcx, QWORD PTR [rax+16]
	call	?c@@YAXPEAUnode@@@Z			; c
	mov	ecx, 5
	call	?g@@YAXH@Z				; g
	jmp	$LN2@c
$LN8@c:
; Line 186
	mov	rax, QWORD PTR x$[rsp]
	mov	rcx, QWORD PTR [rax+8]
	call	?c@@YAXPEAUnode@@@Z			; c
	mov	rax, QWORD PTR x$[rsp]
	mov	rcx, QWORD PTR [rax+16]
	call	?c@@YAXPEAUnode@@@Z			; c
	mov	ecx, 6
	call	?g@@YAXH@Z				; g
	jmp	$LN2@c
$LN9@c:
; Line 187
	mov	rax, QWORD PTR x$[rsp]
	mov	rcx, QWORD PTR [rax+16]
	call	?c@@YAXPEAUnode@@@Z			; c
	mov	ecx, 1
	call	?g@@YAXH@Z				; g
	mov	rax, QWORD PTR x$[rsp]
	mov	rax, QWORD PTR [rax+8]
	mov	ecx, DWORD PTR [rax+32]
	call	?g@@YAXH@Z				; g
	jmp	$LN2@c
$LN10@c:
; Line 188
	mov	rax, QWORD PTR x$[rsp]
	mov	rcx, QWORD PTR [rax+8]
	call	?c@@YAXPEAUnode@@@Z			; c
	mov	ecx, 7
	call	?g@@YAXH@Z				; g
	call	?hole@@YAPEADXZ				; hole
	mov	QWORD PTR p1$[rsp], rax
	mov	rax, QWORD PTR x$[rsp]
	mov	rcx, QWORD PTR [rax+16]
	call	?c@@YAXPEAUnode@@@Z			; c
	mov	rdx, QWORD PTR ?here@@3PEADEA		; here
	mov	rcx, QWORD PTR p1$[rsp]
	call	?fix@@YAXPEAD0@Z			; fix
	jmp	$LN2@c
$LN11@c:
; Line 189
	mov	rax, QWORD PTR x$[rsp]
	mov	rcx, QWORD PTR [rax+8]
	call	?c@@YAXPEAUnode@@@Z			; c
	mov	ecx, 7
	call	?g@@YAXH@Z				; g
	call	?hole@@YAPEADXZ				; hole
	mov	QWORD PTR p1$[rsp], rax
	mov	rax, QWORD PTR x$[rsp]
	mov	rcx, QWORD PTR [rax+16]
	call	?c@@YAXPEAUnode@@@Z			; c
	mov	ecx, 9
	call	?g@@YAXH@Z				; g
	call	?hole@@YAPEADXZ				; hole
	mov	QWORD PTR p2$[rsp], rax
; Line 190
	mov	rdx, QWORD PTR ?here@@3PEADEA		; here
	mov	rcx, QWORD PTR p1$[rsp]
	call	?fix@@YAXPEAD0@Z			; fix
	mov	rax, QWORD PTR x$[rsp]
	mov	rcx, QWORD PTR [rax+24]
	call	?c@@YAXPEAUnode@@@Z			; c
	mov	rdx, QWORD PTR ?here@@3PEADEA		; here
	mov	rcx, QWORD PTR p2$[rsp]
	call	?fix@@YAXPEAD0@Z			; fix
	jmp	$LN2@c
$LN12@c:
; Line 191
	mov	rax, QWORD PTR ?here@@3PEADEA		; here
	mov	QWORD PTR p1$[rsp], rax
	mov	rax, QWORD PTR x$[rsp]
	mov	rcx, QWORD PTR [rax+8]
	call	?c@@YAXPEAUnode@@@Z			; c
	mov	ecx, 7
	call	?g@@YAXH@Z				; g
	call	?hole@@YAPEADXZ				; hole
	mov	QWORD PTR p2$[rsp], rax
	mov	rax, QWORD PTR x$[rsp]
	mov	rcx, QWORD PTR [rax+16]
	call	?c@@YAXPEAUnode@@@Z			; c
; Line 192
	mov	ecx, 9
	call	?g@@YAXH@Z				; g
	call	?hole@@YAPEADXZ				; hole
	mov	rdx, QWORD PTR p1$[rsp]
	mov	rcx, rax
	call	?fix@@YAXPEAD0@Z			; fix
	mov	rdx, QWORD PTR ?here@@3PEADEA		; here
	mov	rcx, QWORD PTR p2$[rsp]
	call	?fix@@YAXPEAD0@Z			; fix
	jmp	$LN2@c
$LN13@c:
; Line 193
	mov	rax, QWORD PTR ?here@@3PEADEA		; here
	mov	QWORD PTR p1$[rsp], rax
	mov	rax, QWORD PTR x$[rsp]
	mov	rcx, QWORD PTR [rax+8]
	call	?c@@YAXPEAUnode@@@Z			; c
	mov	rax, QWORD PTR x$[rsp]
	mov	rcx, QWORD PTR [rax+16]
	call	?c@@YAXPEAUnode@@@Z			; c
	mov	ecx, 8
	call	?g@@YAXH@Z				; g
	call	?hole@@YAPEADXZ				; hole
	mov	rdx, QWORD PTR p1$[rsp]
	mov	rcx, rax
	call	?fix@@YAXPEAD0@Z			; fix
	jmp	SHORT $LN2@c
; Line 194
	jmp	SHORT $LN2@c
$LN15@c:
; Line 195
	mov	rax, QWORD PTR x$[rsp]
	mov	rcx, QWORD PTR [rax+8]
	call	?c@@YAXPEAUnode@@@Z			; c
	mov	rax, QWORD PTR x$[rsp]
	mov	rcx, QWORD PTR [rax+16]
	call	?c@@YAXPEAUnode@@@Z			; c
	jmp	SHORT $LN2@c
$LN16@c:
; Line 196
	mov	rax, QWORD PTR x$[rsp]
	mov	rcx, QWORD PTR [rax+8]
	call	?c@@YAXPEAUnode@@@Z			; c
	mov	ecx, 3
	call	?g@@YAXH@Z				; g
	jmp	SHORT $LN2@c
$LN17@c:
; Line 197
	mov	rax, QWORD PTR x$[rsp]
	mov	rcx, QWORD PTR [rax+8]
	call	?c@@YAXPEAUnode@@@Z			; c
	mov	ecx, 10
	call	?g@@YAXH@Z				; g
$LN2@c:
; Line 199
	add	rsp, 72					; 00000048H
	ret	0
	npad	3
$LN19@c:
	DD	$LN4@c
	DD	$LN5@c
	DD	$LN6@c
	DD	$LN7@c
	DD	$LN8@c
	DD	$LN9@c
	DD	$LN10@c
	DD	$LN11@c
	DD	$LN12@c
	DD	$LN13@c
	DD	$LN2@c
	DD	$LN15@c
	DD	$LN16@c
	DD	$LN17@c
?c@@YAXPEAUnode@@@Z ENDP				; c
_TEXT	ENDS
; Function compile flags: /Odtp
_TEXT	SEGMENT
src$ = 8
dst$ = 16
?fix@@YAXPEAD0@Z PROC					; fix
; File W:\cpp\void\ktt-c\ccvm.c
; Line 177
	mov	QWORD PTR [rsp+16], rdx
	mov	QWORD PTR [rsp+8], rcx
	mov	rax, QWORD PTR src$[rsp]
	mov	rcx, QWORD PTR dst$[rsp]
	sub	rcx, rax
	mov	rax, rcx
	mov	rcx, QWORD PTR src$[rsp]
	mov	BYTE PTR [rcx], al
	ret	0
?fix@@YAXPEAD0@Z ENDP					; fix
_TEXT	ENDS
; Function compile flags: /Odtp
_TEXT	SEGMENT
tv65 = 0
?hole@@YAPEADXZ PROC					; hole
; File W:\cpp\void\ktt-c\ccvm.c
; Line 176
$LN3:
	sub	rsp, 24
	mov	rax, QWORD PTR ?here@@3PEADEA		; here
	mov	QWORD PTR tv65[rsp], rax
	mov	rax, QWORD PTR ?here@@3PEADEA		; here
	inc	rax
	mov	QWORD PTR ?here@@3PEADEA, rax		; here
	mov	rax, QWORD PTR tv65[rsp]
	add	rsp, 24
	ret	0
?hole@@YAPEADXZ ENDP					; hole
_TEXT	ENDS
; Function compile flags: /Odtp
_TEXT	SEGMENT
c$ = 8
?g@@YAXH@Z PROC						; g
; File W:\cpp\void\ktt-c\ccvm.c
; Line 175
	mov	DWORD PTR [rsp+8], ecx
	mov	rax, QWORD PTR ?here@@3PEADEA		; here
	movzx	ecx, BYTE PTR c$[rsp]
	mov	BYTE PTR [rax], cl
	mov	rax, QWORD PTR ?here@@3PEADEA		; here
	inc	rax
	mov	QWORD PTR ?here@@3PEADEA, rax		; here
	ret	0
?g@@YAXH@Z ENDP						; g
_TEXT	ENDS
; Function compile flags: /Odtp
_TEXT	SEGMENT
x$ = 32
?program@@YAPEAUnode@@XZ PROC				; program
; File W:\cpp\void\ktt-c\ccvm.c
; Line 161
$LN4:
	sub	rsp, 56					; 00000038H
	mov	ecx, 13
	call	?new_node@@YAPEAUnode@@H@Z		; new_node
	mov	QWORD PTR x$[rsp], rax
; Line 162
	call	?next_sym@@YAXXZ			; next_sym
	call	?statement@@YAPEAUnode@@XZ		; statement
	mov	rcx, QWORD PTR x$[rsp]
	mov	QWORD PTR [rcx+8], rax
	cmp	DWORD PTR ?sym@@3HA, 15			; sym
	je	SHORT $LN2@program
	call	?syntax_error@@YAXXZ			; syntax_error
$LN2@program:
; Line 163
	mov	rax, QWORD PTR x$[rsp]
; Line 164
	add	rsp, 56					; 00000038H
	ret	0
?program@@YAPEAUnode@@XZ ENDP				; program
_TEXT	ENDS
; Function compile flags: /Odtp
_TEXT	SEGMENT
x$ = 32
t$ = 40
?statement@@YAPEAUnode@@XZ PROC				; statement
; File W:\cpp\void\ktt-c\ccvm.c
; Line 117
$LN22:
	sub	rsp, 56					; 00000038H
; Line 118
	cmp	DWORD PTR ?sym@@3HA, 2			; sym
	jne	SHORT $LN4@statement
; Line 119
	mov	ecx, 6
	call	?new_node@@YAPEAUnode@@H@Z		; new_node
	mov	QWORD PTR x$[rsp], rax
; Line 120
	call	?next_sym@@YAXXZ			; next_sym
; Line 121
	call	?paren_expr@@YAPEAUnode@@XZ		; paren_expr
	mov	rcx, QWORD PTR x$[rsp]
	mov	QWORD PTR [rcx+8], rax
; Line 122
	call	?statement@@YAPEAUnode@@XZ		; statement
	mov	rcx, QWORD PTR x$[rsp]
	mov	QWORD PTR [rcx+16], rax
; Line 123
	cmp	DWORD PTR ?sym@@3HA, 1			; sym
	jne	SHORT $LN6@statement
; Line 124
	mov	rax, QWORD PTR x$[rsp]
	mov	DWORD PTR [rax], 7
; Line 125
	call	?next_sym@@YAXXZ			; next_sym
; Line 126
	call	?statement@@YAPEAUnode@@XZ		; statement
	mov	rcx, QWORD PTR x$[rsp]
	mov	QWORD PTR [rcx+24], rax
$LN6@statement:
; Line 128
	jmp	$LN5@statement
$LN4@statement:
; Line 129
	cmp	DWORD PTR ?sym@@3HA, 3			; sym
	jne	SHORT $LN7@statement
; Line 130
	mov	ecx, 8
	call	?new_node@@YAPEAUnode@@H@Z		; new_node
	mov	QWORD PTR x$[rsp], rax
; Line 131
	call	?next_sym@@YAXXZ			; next_sym
; Line 132
	call	?paren_expr@@YAPEAUnode@@XZ		; paren_expr
	mov	rcx, QWORD PTR x$[rsp]
	mov	QWORD PTR [rcx+8], rax
; Line 133
	call	?statement@@YAPEAUnode@@XZ		; statement
	mov	rcx, QWORD PTR x$[rsp]
	mov	QWORD PTR [rcx+16], rax
; Line 134
	jmp	$LN8@statement
$LN7@statement:
; Line 135
	cmp	DWORD PTR ?sym@@3HA, 0			; sym
	jne	SHORT $LN9@statement
; Line 136
	mov	ecx, 9
	call	?new_node@@YAPEAUnode@@H@Z		; new_node
	mov	QWORD PTR x$[rsp], rax
; Line 137
	call	?next_sym@@YAXXZ			; next_sym
; Line 138
	call	?statement@@YAPEAUnode@@XZ		; statement
	mov	rcx, QWORD PTR x$[rsp]
	mov	QWORD PTR [rcx+8], rax
; Line 139
	cmp	DWORD PTR ?sym@@3HA, 3			; sym
	jne	SHORT $LN11@statement
	call	?next_sym@@YAXXZ			; next_sym
	jmp	SHORT $LN12@statement
$LN11@statement:
	call	?syntax_error@@YAXXZ			; syntax_error
$LN12@statement:
; Line 140
	call	?paren_expr@@YAPEAUnode@@XZ		; paren_expr
	mov	rcx, QWORD PTR x$[rsp]
	mov	QWORD PTR [rcx+16], rax
; Line 141
	cmp	DWORD PTR ?sym@@3HA, 11			; sym
	jne	SHORT $LN13@statement
	call	?next_sym@@YAXXZ			; next_sym
	jmp	SHORT $LN14@statement
$LN13@statement:
	call	?syntax_error@@YAXXZ			; syntax_error
$LN14@statement:
; Line 142
	jmp	$LN10@statement
$LN9@statement:
; Line 143
	cmp	DWORD PTR ?sym@@3HA, 11			; sym
	jne	SHORT $LN15@statement
; Line 144
	mov	ecx, 10
	call	?new_node@@YAPEAUnode@@H@Z		; new_node
	mov	QWORD PTR x$[rsp], rax
	call	?next_sym@@YAXXZ			; next_sym
	jmp	$LN16@statement
$LN15@statement:
; Line 145
	cmp	DWORD PTR ?sym@@3HA, 4			; sym
	jne	SHORT $LN17@statement
; Line 146
	mov	ecx, 10
	call	?new_node@@YAPEAUnode@@H@Z		; new_node
	mov	QWORD PTR x$[rsp], rax
; Line 147
	call	?next_sym@@YAXXZ			; next_sym
$LN2@statement:
; Line 148
	cmp	DWORD PTR ?sym@@3HA, 5			; sym
	je	SHORT $LN3@statement
; Line 149
	mov	rax, QWORD PTR x$[rsp]
	mov	QWORD PTR t$[rsp], rax
	mov	ecx, 11
	call	?new_node@@YAPEAUnode@@H@Z		; new_node
	mov	QWORD PTR x$[rsp], rax
	mov	rax, QWORD PTR x$[rsp]
	mov	rcx, QWORD PTR t$[rsp]
	mov	QWORD PTR [rax+8], rcx
	call	?statement@@YAPEAUnode@@XZ		; statement
	mov	rcx, QWORD PTR x$[rsp]
	mov	QWORD PTR [rcx+16], rax
	jmp	SHORT $LN2@statement
$LN3@statement:
; Line 150
	call	?next_sym@@YAXXZ			; next_sym
; Line 151
	jmp	SHORT $LN18@statement
$LN17@statement:
; Line 153
	mov	ecx, 12
	call	?new_node@@YAPEAUnode@@H@Z		; new_node
	mov	QWORD PTR x$[rsp], rax
; Line 154
	call	?expr@@YAPEAUnode@@XZ			; expr
	mov	rcx, QWORD PTR x$[rsp]
	mov	QWORD PTR [rcx+8], rax
; Line 155
	cmp	DWORD PTR ?sym@@3HA, 11			; sym
	jne	SHORT $LN19@statement
	call	?next_sym@@YAXXZ			; next_sym
	jmp	SHORT $LN20@statement
$LN19@statement:
	call	?syntax_error@@YAXXZ			; syntax_error
$LN20@statement:
$LN18@statement:
$LN16@statement:
$LN10@statement:
$LN8@statement:
$LN5@statement:
; Line 157
	mov	rax, QWORD PTR x$[rsp]
; Line 158
	add	rsp, 56					; 00000038H
	ret	0
?statement@@YAPEAUnode@@XZ ENDP				; statement
_TEXT	ENDS
; Function compile flags: /Odtp
_TEXT	SEGMENT
x$ = 32
t$ = 40
?expr@@YAPEAUnode@@XZ PROC				; expr
; File W:\cpp\void\ktt-c\ccvm.c
; Line 100
$LN5:
	sub	rsp, 56					; 00000038H
; Line 101
	cmp	DWORD PTR ?sym@@3HA, 14			; sym
	je	SHORT $LN2@expr
	call	?test@@YAPEAUnode@@XZ			; test
	jmp	SHORT $LN1@expr
$LN2@expr:
; Line 102
	call	?test@@YAPEAUnode@@XZ			; test
	mov	QWORD PTR x$[rsp], rax
; Line 103
	mov	rax, QWORD PTR x$[rsp]
	cmp	DWORD PTR [rax], 0
	jne	SHORT $LN3@expr
	cmp	DWORD PTR ?sym@@3HA, 12			; sym
	jne	SHORT $LN3@expr
; Line 104
	mov	rax, QWORD PTR x$[rsp]
	mov	QWORD PTR t$[rsp], rax
	mov	ecx, 5
	call	?new_node@@YAPEAUnode@@H@Z		; new_node
	mov	QWORD PTR x$[rsp], rax
	call	?next_sym@@YAXXZ			; next_sym
	mov	rax, QWORD PTR x$[rsp]
	mov	rcx, QWORD PTR t$[rsp]
	mov	QWORD PTR [rax+8], rcx
	call	?expr@@YAPEAUnode@@XZ			; expr
	mov	rcx, QWORD PTR x$[rsp]
	mov	QWORD PTR [rcx+16], rax
$LN3@expr:
; Line 105
	mov	rax, QWORD PTR x$[rsp]
$LN1@expr:
; Line 106
	add	rsp, 56					; 00000038H
	ret	0
?expr@@YAPEAUnode@@XZ ENDP				; expr
_TEXT	ENDS
; Function compile flags: /Odtp
_TEXT	SEGMENT
x$ = 32
t$ = 40
?test@@YAPEAUnode@@XZ PROC				; test
; File W:\cpp\void\ktt-c\ccvm.c
; Line 93
$LN4:
	sub	rsp, 56					; 00000038H
	call	?sum@@YAPEAUnode@@XZ			; sum
	mov	QWORD PTR x$[rsp], rax
; Line 94
	cmp	DWORD PTR ?sym@@3HA, 10			; sym
	jne	SHORT $LN2@test
; Line 95
	mov	rax, QWORD PTR x$[rsp]
	mov	QWORD PTR t$[rsp], rax
	mov	ecx, 4
	call	?new_node@@YAPEAUnode@@H@Z		; new_node
	mov	QWORD PTR x$[rsp], rax
	call	?next_sym@@YAXXZ			; next_sym
	mov	rax, QWORD PTR x$[rsp]
	mov	rcx, QWORD PTR t$[rsp]
	mov	QWORD PTR [rax+8], rcx
	call	?sum@@YAPEAUnode@@XZ			; sum
	mov	rcx, QWORD PTR x$[rsp]
	mov	QWORD PTR [rcx+16], rax
$LN2@test:
; Line 96
	mov	rax, QWORD PTR x$[rsp]
; Line 97
	add	rsp, 56					; 00000038H
	ret	0
?test@@YAPEAUnode@@XZ ENDP				; test
_TEXT	ENDS
; Function compile flags: /Odtp
_TEXT	SEGMENT
tv69 = 32
x$ = 40
t$ = 48
?sum@@YAPEAUnode@@XZ PROC				; sum
; File W:\cpp\void\ktt-c\ccvm.c
; Line 86
$LN8:
	sub	rsp, 72					; 00000048H
	call	?term@@YAPEAUnode@@XZ			; term
	mov	QWORD PTR x$[rsp], rax
$LN2@sum:
; Line 87
	cmp	DWORD PTR ?sym@@3HA, 8			; sym
	je	SHORT $LN4@sum
	cmp	DWORD PTR ?sym@@3HA, 9			; sym
	jne	SHORT $LN3@sum
$LN4@sum:
; Line 88
	mov	rax, QWORD PTR x$[rsp]
	mov	QWORD PTR t$[rsp], rax
	cmp	DWORD PTR ?sym@@3HA, 8			; sym
	jne	SHORT $LN6@sum
	mov	DWORD PTR tv69[rsp], 2
	jmp	SHORT $LN7@sum
$LN6@sum:
	mov	DWORD PTR tv69[rsp], 3
$LN7@sum:
	mov	ecx, DWORD PTR tv69[rsp]
	call	?new_node@@YAPEAUnode@@H@Z		; new_node
	mov	QWORD PTR x$[rsp], rax
	call	?next_sym@@YAXXZ			; next_sym
	mov	rax, QWORD PTR x$[rsp]
	mov	rcx, QWORD PTR t$[rsp]
	mov	QWORD PTR [rax+8], rcx
	call	?term@@YAPEAUnode@@XZ			; term
	mov	rcx, QWORD PTR x$[rsp]
	mov	QWORD PTR [rcx+16], rax
	jmp	SHORT $LN2@sum
$LN3@sum:
; Line 89
	mov	rax, QWORD PTR x$[rsp]
; Line 90
	add	rsp, 72					; 00000048H
	ret	0
?sum@@YAPEAUnode@@XZ ENDP				; sum
_TEXT	ENDS
; Function compile flags: /Odtp
_TEXT	SEGMENT
x$ = 32
?term@@YAPEAUnode@@XZ PROC				; term
; File W:\cpp\void\ktt-c\ccvm.c
; Line 78
$LN7:
	sub	rsp, 56					; 00000038H
; Line 79
	cmp	DWORD PTR ?sym@@3HA, 14			; sym
	jne	SHORT $LN2@term
	xor	ecx, ecx
	call	?new_node@@YAPEAUnode@@H@Z		; new_node
	mov	QWORD PTR x$[rsp], rax
	mov	eax, 1
	imul	rax, rax, 0
	lea	rcx, OFFSET FLAT:?id_name@@3PADA	; id_name
	movsx	eax, BYTE PTR [rcx+rax]
	sub	eax, 97					; 00000061H
	mov	rcx, QWORD PTR x$[rsp]
	mov	DWORD PTR [rcx+32], eax
	call	?next_sym@@YAXXZ			; next_sym
	jmp	SHORT $LN3@term
$LN2@term:
; Line 80
	cmp	DWORD PTR ?sym@@3HA, 13			; sym
	jne	SHORT $LN4@term
	mov	ecx, 1
	call	?new_node@@YAPEAUnode@@H@Z		; new_node
	mov	QWORD PTR x$[rsp], rax
	mov	rax, QWORD PTR x$[rsp]
	mov	ecx, DWORD PTR ?int_val@@3HA		; int_val
	mov	DWORD PTR [rax+32], ecx
	call	?next_sym@@YAXXZ			; next_sym
	jmp	SHORT $LN5@term
$LN4@term:
; Line 81
	call	?paren_expr@@YAPEAUnode@@XZ		; paren_expr
	mov	QWORD PTR x$[rsp], rax
$LN5@term:
$LN3@term:
; Line 82
	mov	rax, QWORD PTR x$[rsp]
; Line 83
	add	rsp, 56					; 00000038H
	ret	0
?term@@YAPEAUnode@@XZ ENDP				; term
_TEXT	ENDS
; Function compile flags: /Odtp
_TEXT	SEGMENT
x$ = 32
?paren_expr@@YAPEAUnode@@XZ PROC			; paren_expr
; File W:\cpp\void\ktt-c\ccvm.c
; Line 109
$LN7:
	sub	rsp, 56					; 00000038H
; Line 110
	cmp	DWORD PTR ?sym@@3HA, 6			; sym
	jne	SHORT $LN2@paren_expr
	call	?next_sym@@YAXXZ			; next_sym
	jmp	SHORT $LN3@paren_expr
$LN2@paren_expr:
	call	?syntax_error@@YAXXZ			; syntax_error
$LN3@paren_expr:
; Line 111
	call	?expr@@YAPEAUnode@@XZ			; expr
	mov	QWORD PTR x$[rsp], rax
; Line 112
	cmp	DWORD PTR ?sym@@3HA, 7			; sym
	jne	SHORT $LN4@paren_expr
	call	?next_sym@@YAXXZ			; next_sym
	jmp	SHORT $LN5@paren_expr
$LN4@paren_expr:
	call	?syntax_error@@YAXXZ			; syntax_error
$LN5@paren_expr:
; Line 113
	mov	rax, QWORD PTR x$[rsp]
; Line 114
	add	rsp, 56					; 00000038H
	ret	0
?paren_expr@@YAPEAUnode@@XZ ENDP			; paren_expr
_TEXT	ENDS
; Function compile flags: /Odtp
_TEXT	SEGMENT
x$ = 32
k$ = 64
?new_node@@YAPEAUnode@@H@Z PROC				; new_node
; File W:\cpp\void\ktt-c\ccvm.c
; Line 73
$LN3:
	mov	DWORD PTR [rsp+8], ecx
	sub	rsp, 56					; 00000038H
	mov	ecx, 40					; 00000028H
	call	QWORD PTR __imp_malloc
	mov	QWORD PTR x$[rsp], rax
	mov	rax, QWORD PTR x$[rsp]
	mov	ecx, DWORD PTR k$[rsp]
	mov	DWORD PTR [rax], ecx
	mov	rax, QWORD PTR x$[rsp]
	add	rsp, 56					; 00000038H
	ret	0
?new_node@@YAPEAUnode@@H@Z ENDP				; new_node
_TEXT	ENDS
; Function compile flags: /Odtp
_TEXT	SEGMENT
tv64 = 32
i$1 = 36
$T2 = 40
?next_sym@@YAXXZ PROC					; next_sym
; File W:\cpp\void\ktt-c\ccvm.c
; Line 27
$LN37:
	sub	rsp, 56					; 00000038H
$again$38:
	mov	eax, DWORD PTR ?ch@@3HA			; ch
	mov	DWORD PTR tv64[rsp], eax
	mov	eax, DWORD PTR tv64[rsp]
	inc	eax
	mov	DWORD PTR tv64[rsp], eax
	cmp	DWORD PTR tv64[rsp], 126		; 0000007eH
	ja	$LN22@next_sym
	movsxd	rax, DWORD PTR tv64[rsp]
	lea	rcx, OFFSET FLAT:__ImageBase
	movzx	eax, BYTE PTR $LN35@next_sym[rcx+rax]
	mov	eax, DWORD PTR $LN36@next_sym[rcx+rax*4]
	add	rax, rcx
	jmp	rax
$LN10@next_sym:
$LN11@next_sym:
; Line 28
	call	?next_ch@@YAXXZ				; next_ch
	jmp	SHORT $again$38
$LN12@next_sym:
; Line 29
	mov	DWORD PTR ?sym@@3HA, 15			; sym
	jmp	$LN2@next_sym
$LN13@next_sym:
; Line 30
	call	?next_ch@@YAXXZ				; next_ch
	mov	DWORD PTR ?sym@@3HA, 4			; sym
	jmp	$LN2@next_sym
$LN14@next_sym:
; Line 31
	call	?next_ch@@YAXXZ				; next_ch
	mov	DWORD PTR ?sym@@3HA, 5			; sym
	jmp	$LN2@next_sym
$LN15@next_sym:
; Line 32
	call	?next_ch@@YAXXZ				; next_ch
	mov	DWORD PTR ?sym@@3HA, 6			; sym
	jmp	$LN2@next_sym
$LN16@next_sym:
; Line 33
	call	?next_ch@@YAXXZ				; next_ch
	mov	DWORD PTR ?sym@@3HA, 7			; sym
	jmp	$LN2@next_sym
$LN17@next_sym:
; Line 34
	call	?next_ch@@YAXXZ				; next_ch
	mov	DWORD PTR ?sym@@3HA, 8			; sym
	jmp	$LN2@next_sym
$LN18@next_sym:
; Line 35
	call	?next_ch@@YAXXZ				; next_ch
	mov	DWORD PTR ?sym@@3HA, 9			; sym
	jmp	$LN2@next_sym
$LN19@next_sym:
; Line 36
	call	?next_ch@@YAXXZ				; next_ch
	mov	DWORD PTR ?sym@@3HA, 10			; sym
	jmp	$LN2@next_sym
$LN20@next_sym:
; Line 37
	call	?next_ch@@YAXXZ				; next_ch
	mov	DWORD PTR ?sym@@3HA, 11			; sym
	jmp	$LN2@next_sym
$LN21@next_sym:
; Line 38
	call	?next_ch@@YAXXZ				; next_ch
	mov	DWORD PTR ?sym@@3HA, 12			; sym
	jmp	$LN2@next_sym
$LN22@next_sym:
; Line 40
	cmp	DWORD PTR ?ch@@3HA, 48			; ch, 00000030H
	jl	SHORT $LN23@next_sym
	cmp	DWORD PTR ?ch@@3HA, 57			; ch, 00000039H
	jg	SHORT $LN23@next_sym
; Line 41
	mov	DWORD PTR ?int_val@@3HA, 0		; int_val
$LN4@next_sym:
; Line 42
	cmp	DWORD PTR ?ch@@3HA, 48			; ch, 00000030H
	jl	SHORT $LN5@next_sym
	cmp	DWORD PTR ?ch@@3HA, 57			; ch, 00000039H
	jg	SHORT $LN5@next_sym
; Line 43
	imul	eax, DWORD PTR ?int_val@@3HA, 10	; int_val
	mov	ecx, DWORD PTR ?ch@@3HA			; ch
	lea	eax, DWORD PTR [rax+rcx-48]
	mov	DWORD PTR ?int_val@@3HA, eax		; int_val
	call	?next_ch@@YAXXZ				; next_ch
	jmp	SHORT $LN4@next_sym
$LN5@next_sym:
; Line 44
	mov	DWORD PTR ?sym@@3HA, 13			; sym
; Line 45
	jmp	$LN24@next_sym
$LN23@next_sym:
; Line 46
	cmp	DWORD PTR ?ch@@3HA, 97			; ch, 00000061H
	jl	$LN25@next_sym
	cmp	DWORD PTR ?ch@@3HA, 122			; ch, 0000007aH
	jg	$LN25@next_sym
; Line 47
	mov	DWORD PTR i$1[rsp], 0
$LN6@next_sym:
; Line 48
	cmp	DWORD PTR ?ch@@3HA, 97			; ch, 00000061H
	jl	SHORT $LN28@next_sym
	cmp	DWORD PTR ?ch@@3HA, 122			; ch, 0000007aH
	jle	SHORT $LN27@next_sym
$LN28@next_sym:
	cmp	DWORD PTR ?ch@@3HA, 95			; ch, 0000005fH
	jne	SHORT $LN7@next_sym
$LN27@next_sym:
; Line 49
	movsxd	rax, DWORD PTR i$1[rsp]
	lea	rcx, OFFSET FLAT:?id_name@@3PADA	; id_name
	movzx	edx, BYTE PTR ?ch@@3HA
	mov	BYTE PTR [rcx+rax], dl
	mov	eax, DWORD PTR i$1[rsp]
	inc	eax
	mov	DWORD PTR i$1[rsp], eax
	call	?next_ch@@YAXXZ				; next_ch
	jmp	SHORT $LN6@next_sym
$LN7@next_sym:
; Line 50
	movsxd	rax, DWORD PTR i$1[rsp]
	mov	QWORD PTR $T2[rsp], rax
	cmp	QWORD PTR $T2[rsp], 100			; 00000064H
	jae	SHORT $LN33@next_sym
	jmp	SHORT $LN34@next_sym
$LN33@next_sym:
	call	__report_rangecheckfailure
$LN34@next_sym:
	lea	rax, OFFSET FLAT:?id_name@@3PADA	; id_name
	mov	rcx, QWORD PTR $T2[rsp]
	mov	BYTE PTR [rax+rcx], 0
; Line 51
	mov	DWORD PTR ?sym@@3HA, 0			; sym
$LN8@next_sym:
; Line 52
	movsxd	rax, DWORD PTR ?sym@@3HA		; sym
	lea	rcx, OFFSET FLAT:?words@@3PAPEBDA	; words
	cmp	QWORD PTR [rcx+rax*8], 0
	je	SHORT $LN9@next_sym
	movsxd	rax, DWORD PTR ?sym@@3HA		; sym
	lea	rcx, OFFSET FLAT:?words@@3PAPEBDA	; words
	lea	rdx, OFFSET FLAT:?id_name@@3PADA	; id_name
	mov	rcx, QWORD PTR [rcx+rax*8]
	call	strcmp
	test	eax, eax
	je	SHORT $LN9@next_sym
; Line 53
	mov	eax, DWORD PTR ?sym@@3HA		; sym
	inc	eax
	mov	DWORD PTR ?sym@@3HA, eax		; sym
	jmp	SHORT $LN8@next_sym
$LN9@next_sym:
; Line 54
	movsxd	rax, DWORD PTR ?sym@@3HA		; sym
	lea	rcx, OFFSET FLAT:?words@@3PAPEBDA	; words
	cmp	QWORD PTR [rcx+rax*8], 0
	jne	SHORT $LN29@next_sym
; Line 55
	mov	eax, 1
	imul	rax, rax, 1
	lea	rcx, OFFSET FLAT:?id_name@@3PADA	; id_name
	movsx	eax, BYTE PTR [rcx+rax]
	test	eax, eax
	jne	SHORT $LN30@next_sym
	mov	DWORD PTR ?sym@@3HA, 14			; sym
	jmp	SHORT $LN31@next_sym
$LN30@next_sym:
	call	?syntax_error@@YAXXZ			; syntax_error
$LN31@next_sym:
$LN29@next_sym:
; Line 56
	jmp	SHORT $LN26@next_sym
$LN25@next_sym:
; Line 58
	call	?syntax_error@@YAXXZ			; syntax_error
$LN26@next_sym:
$LN24@next_sym:
$LN2@next_sym:
$LN32@next_sym:
; Line 60
	add	rsp, 56					; 00000038H
	ret	0
$LN36@next_sym:
	DD	$LN12@next_sym
	DD	$LN11@next_sym
	DD	$LN10@next_sym
	DD	$LN15@next_sym
	DD	$LN16@next_sym
	DD	$LN17@next_sym
	DD	$LN18@next_sym
	DD	$LN20@next_sym
	DD	$LN19@next_sym
	DD	$LN21@next_sym
	DD	$LN13@next_sym
	DD	$LN14@next_sym
	DD	$LN22@next_sym
$LN35@next_sym:
	DB	0
	DB	12
	DB	12
	DB	12
	DB	12
	DB	12
	DB	12
	DB	12
	DB	12
	DB	12
	DB	12
	DB	1
	DB	12
	DB	12
	DB	12
	DB	12
	DB	12
	DB	12
	DB	12
	DB	12
	DB	12
	DB	12
	DB	12
	DB	12
	DB	12
	DB	12
	DB	12
	DB	12
	DB	12
	DB	12
	DB	12
	DB	12
	DB	12
	DB	2
	DB	12
	DB	12
	DB	12
	DB	12
	DB	12
	DB	12
	DB	12
	DB	3
	DB	4
	DB	12
	DB	5
	DB	12
	DB	6
	DB	12
	DB	12
	DB	12
	DB	12
	DB	12
	DB	12
	DB	12
	DB	12
	DB	12
	DB	12
	DB	12
	DB	12
	DB	12
	DB	7
	DB	8
	DB	9
	DB	12
	DB	12
	DB	12
	DB	12
	DB	12
	DB	12
	DB	12
	DB	12
	DB	12
	DB	12
	DB	12
	DB	12
	DB	12
	DB	12
	DB	12
	DB	12
	DB	12
	DB	12
	DB	12
	DB	12
	DB	12
	DB	12
	DB	12
	DB	12
	DB	12
	DB	12
	DB	12
	DB	12
	DB	12
	DB	12
	DB	12
	DB	12
	DB	12
	DB	12
	DB	12
	DB	12
	DB	12
	DB	12
	DB	12
	DB	12
	DB	12
	DB	12
	DB	12
	DB	12
	DB	12
	DB	12
	DB	12
	DB	12
	DB	12
	DB	12
	DB	12
	DB	12
	DB	12
	DB	12
	DB	12
	DB	12
	DB	12
	DB	12
	DB	12
	DB	12
	DB	12
	DB	10
	DB	12
	DB	11
?next_sym@@YAXXZ ENDP					; next_sym
_TEXT	ENDS
; Function compile flags: /Odtp
_TEXT	SEGMENT
tv67 = 0
?next_ch@@YAXXZ PROC					; next_ch
; File W:\cpp\void\ktt-c\ccvm.c
; Line 24
$LN3:
	sub	rsp, 24
	mov	rax, QWORD PTR ?pa@@3PEADEA		; pa
	movsx	eax, BYTE PTR [rax]
	mov	DWORD PTR tv67[rsp], eax
	mov	rax, QWORD PTR ?pa@@3PEADEA		; pa
	inc	rax
	mov	QWORD PTR ?pa@@3PEADEA, rax		; pa
	mov	eax, DWORD PTR tv67[rsp]
	mov	DWORD PTR ?ch@@3HA, eax			; ch
	add	rsp, 24
	ret	0
?next_ch@@YAXXZ ENDP					; next_ch
_TEXT	ENDS
; Function compile flags: /Odtp
_TEXT	SEGMENT
?syntax_error@@YAXXZ PROC				; syntax_error
; File W:\cpp\void\ktt-c\ccvm.c
; Line 22
$LN3:
	sub	rsp, 40					; 00000028H
	lea	rcx, OFFSET FLAT:$SG47181
	call	?ccout@@YAXPEBD@Z			; ccout
	int	3
	add	rsp, 40					; 00000028H
	ret	0
?syntax_error@@YAXXZ ENDP				; syntax_error
_TEXT	ENDS
; Function compile flags: /Odtp
;	COMDAT ??__Ectype_void@@YAXXZ
text$di	SEGMENT
??__Ectype_void@@YAXXZ PROC				; `dynamic initializer for 'ctype_void'', COMDAT
; File W:\cpp\void\ktt-c\kttc-read.h
; Line 718
	sub	rsp, 40					; 00000028H
	mov	ecx, 1
	call	?cctype_new@@YAPEAUcctype_t@@W4cctypekind_t@@@Z ; cctype_new
	mov	QWORD PTR ?ctype_void@@3PEAUcctype_t@@EA, rax
	add	rsp, 40					; 00000028H
	ret	0
??__Ectype_void@@YAXXZ ENDP				; `dynamic initializer for 'ctype_void''
text$di	ENDS
; Function compile flags: /Odtp
;	COMDAT ??__Ectype_uint8@@YAXXZ
text$di	SEGMENT
??__Ectype_uint8@@YAXXZ PROC				; `dynamic initializer for 'ctype_uint8'', COMDAT
; File W:\cpp\void\ktt-c\kttc-read.h
; Line 717
	sub	rsp, 40					; 00000028H
	mov	ecx, 16
	call	?cctype_new@@YAPEAUcctype_t@@W4cctypekind_t@@@Z ; cctype_new
	mov	QWORD PTR ?ctype_uint8@@3PEAUcctype_t@@EA, rax
	add	rsp, 40					; 00000028H
	ret	0
??__Ectype_uint8@@YAXXZ ENDP				; `dynamic initializer for 'ctype_uint8''
text$di	ENDS
; Function compile flags: /Odtp
;	COMDAT ??__Ectype_uint16@@YAXXZ
text$di	SEGMENT
??__Ectype_uint16@@YAXXZ PROC				; `dynamic initializer for 'ctype_uint16'', COMDAT
; File W:\cpp\void\ktt-c\kttc-read.h
; Line 716
	sub	rsp, 40					; 00000028H
	mov	ecx, 15
	call	?cctype_new@@YAPEAUcctype_t@@W4cctypekind_t@@@Z ; cctype_new
	mov	QWORD PTR ?ctype_uint16@@3PEAUcctype_t@@EA, rax
	add	rsp, 40					; 00000028H
	ret	0
??__Ectype_uint16@@YAXXZ ENDP				; `dynamic initializer for 'ctype_uint16''
text$di	ENDS
; Function compile flags: /Odtp
;	COMDAT ??__Ectype_uint32@@YAXXZ
text$di	SEGMENT
??__Ectype_uint32@@YAXXZ PROC				; `dynamic initializer for 'ctype_uint32'', COMDAT
; File W:\cpp\void\ktt-c\kttc-read.h
; Line 715
	sub	rsp, 40					; 00000028H
	mov	ecx, 14
	call	?cctype_new@@YAPEAUcctype_t@@W4cctypekind_t@@@Z ; cctype_new
	mov	QWORD PTR ?ctype_uint32@@3PEAUcctype_t@@EA, rax
	add	rsp, 40					; 00000028H
	ret	0
??__Ectype_uint32@@YAXXZ ENDP				; `dynamic initializer for 'ctype_uint32''
text$di	ENDS
; Function compile flags: /Odtp
;	COMDAT ??__Ectype_uint64@@YAXXZ
text$di	SEGMENT
??__Ectype_uint64@@YAXXZ PROC				; `dynamic initializer for 'ctype_uint64'', COMDAT
; File W:\cpp\void\ktt-c\kttc-read.h
; Line 714
	sub	rsp, 40					; 00000028H
	mov	ecx, 13
	call	?cctype_new@@YAPEAUcctype_t@@W4cctypekind_t@@@Z ; cctype_new
	mov	QWORD PTR ?ctype_uint64@@3PEAUcctype_t@@EA, rax
	add	rsp, 40					; 00000028H
	ret	0
??__Ectype_uint64@@YAXXZ ENDP				; `dynamic initializer for 'ctype_uint64''
text$di	ENDS
; Function compile flags: /Odtp
;	COMDAT ??__Ectype_int8@@YAXXZ
text$di	SEGMENT
??__Ectype_int8@@YAXXZ PROC				; `dynamic initializer for 'ctype_int8'', COMDAT
; File W:\cpp\void\ktt-c\kttc-read.h
; Line 713
	sub	rsp, 40					; 00000028H
	mov	ecx, 12
	call	?cctype_new@@YAPEAUcctype_t@@W4cctypekind_t@@@Z ; cctype_new
	mov	QWORD PTR ?ctype_int8@@3PEAUcctype_t@@EA, rax
	add	rsp, 40					; 00000028H
	ret	0
??__Ectype_int8@@YAXXZ ENDP				; `dynamic initializer for 'ctype_int8''
text$di	ENDS
; Function compile flags: /Odtp
;	COMDAT ??__Ectype_int16@@YAXXZ
text$di	SEGMENT
??__Ectype_int16@@YAXXZ PROC				; `dynamic initializer for 'ctype_int16'', COMDAT
; File W:\cpp\void\ktt-c\kttc-read.h
; Line 712
	sub	rsp, 40					; 00000028H
	mov	ecx, 11
	call	?cctype_new@@YAPEAUcctype_t@@W4cctypekind_t@@@Z ; cctype_new
	mov	QWORD PTR ?ctype_int16@@3PEAUcctype_t@@EA, rax
	add	rsp, 40					; 00000028H
	ret	0
??__Ectype_int16@@YAXXZ ENDP				; `dynamic initializer for 'ctype_int16''
text$di	ENDS
; Function compile flags: /Odtp
;	COMDAT ??__Ectype_int32@@YAXXZ
text$di	SEGMENT
??__Ectype_int32@@YAXXZ PROC				; `dynamic initializer for 'ctype_int32'', COMDAT
; File W:\cpp\void\ktt-c\kttc-read.h
; Line 711
	sub	rsp, 40					; 00000028H
	mov	ecx, 10
	call	?cctype_new@@YAPEAUcctype_t@@W4cctypekind_t@@@Z ; cctype_new
	mov	QWORD PTR ?ctype_int32@@3PEAUcctype_t@@EA, rax
	add	rsp, 40					; 00000028H
	ret	0
??__Ectype_int32@@YAXXZ ENDP				; `dynamic initializer for 'ctype_int32''
text$di	ENDS
; Function compile flags: /Odtp
;	COMDAT ??__Ectype_int64@@YAXXZ
text$di	SEGMENT
??__Ectype_int64@@YAXXZ PROC				; `dynamic initializer for 'ctype_int64'', COMDAT
; File W:\cpp\void\ktt-c\kttc-read.h
; Line 710
	sub	rsp, 40					; 00000028H
	mov	ecx, 9
	call	?cctype_new@@YAPEAUcctype_t@@W4cctypekind_t@@@Z ; cctype_new
	mov	QWORD PTR ?ctype_int64@@3PEAUcctype_t@@EA, rax
	add	rsp, 40					; 00000028H
	ret	0
??__Ectype_int64@@YAXXZ ENDP				; `dynamic initializer for 'ctype_int64''
text$di	ENDS
; Function compile flags: /Odtp
;	COMDAT ??__Ectype_flo64@@YAXXZ
text$di	SEGMENT
??__Ectype_flo64@@YAXXZ PROC				; `dynamic initializer for 'ctype_flo64'', COMDAT
; File W:\cpp\void\ktt-c\kttc-read.h
; Line 709
	sub	rsp, 40					; 00000028H
	mov	ecx, 18
	call	?cctype_new@@YAPEAUcctype_t@@W4cctypekind_t@@@Z ; cctype_new
	mov	QWORD PTR ?ctype_flo64@@3PEAUcctype_t@@EA, rax
	add	rsp, 40					; 00000028H
	ret	0
??__Ectype_flo64@@YAXXZ ENDP				; `dynamic initializer for 'ctype_flo64''
text$di	ENDS
; Function compile flags: /Odtp
;	COMDAT ??__Ectype_flo32@@YAXXZ
text$di	SEGMENT
??__Ectype_flo32@@YAXXZ PROC				; `dynamic initializer for 'ctype_flo32'', COMDAT
; File W:\cpp\void\ktt-c\kttc-read.h
; Line 708
	sub	rsp, 40					; 00000028H
	mov	ecx, 17
	call	?cctype_new@@YAPEAUcctype_t@@W4cctypekind_t@@@Z ; cctype_new
	mov	QWORD PTR ?ctype_flo32@@3PEAUcctype_t@@EA, rax
	add	rsp, 40					; 00000028H
	ret	0
??__Ectype_flo32@@YAXXZ ENDP				; `dynamic initializer for 'ctype_flo32''
text$di	ENDS
; Function compile flags: /Odtp
_TEXT	SEGMENT
result$ = 32
kind$ = 64
?cctype_new@@YAPEAUcctype_t@@W4cctypekind_t@@@Z PROC	; cctype_new
; File W:\cpp\void\ktt-c\kttc-read.c
; Line 190
	mov	DWORD PTR [rsp+8], ecx
	sub	rsp, 56					; 00000038H
	mov	ecx, 56					; 00000038H
	call	QWORD PTR __imp_malloc
	mov	QWORD PTR result$[rsp], rax
; Line 191
	mov	r8d, 56					; 00000038H
	xor	edx, edx
	mov	rcx, QWORD PTR result$[rsp]
	call	memset
; Line 192
	mov	rax, QWORD PTR result$[rsp]
	mov	ecx, DWORD PTR kind$[rsp]
	mov	DWORD PTR [rax], ecx
; Line 193
	mov	rax, QWORD PTR result$[rsp]
; Line 194
	add	rsp, 56					; 00000038H
	ret	0
?cctype_new@@YAPEAUcctype_t@@W4cctypekind_t@@@Z ENDP	; cctype_new
_TEXT	ENDS
; Function compile flags: /Odtp
_TEXT	SEGMENT
string$ = 48
?ccout@@YAXPEBD@Z PROC					; ccout
; File W:\cpp\void\ktt-c\cclog.h
; Line 9
	mov	QWORD PTR [rsp+8], rcx
	sub	rsp, 40					; 00000028H
; Line 11
	mov	rcx, QWORD PTR string$[rsp]
	call	QWORD PTR __imp_OutputDebugStringA
; Line 13
	mov	rcx, QWORD PTR string$[rsp]
	call	printf
; Line 14
	add	rsp, 40					; 00000028H
	ret	0
?ccout@@YAXPEBD@Z ENDP					; ccout
_TEXT	ENDS
; Function compile flags: /Odtp
_TEXT	SEGMENT
et$1 = 0
ph$ = 8
eb$2 = 16
e$3 = 20
pl$ = 24
cn$4 = 32
cn$5 = 36
cn$6 = 40
cn$7 = 44
cn$8 = 48
cn$9 = 52
cn$10 = 56
cn$11 = 60
cn$12 = 64
cn$13 = 68
cn$14 = 72
cn$15 = 76
cn$16 = 80
cn$17 = 84
cn$18 = 88
cn$19 = 92
cn$20 = 96
cn$21 = 100
cn$22 = 104
cn$23 = 108
cn$24 = 112
cn$25 = 116
cn$26 = 120
cn$27 = 124
p2l$28 = 128
p2h$29 = 136
bt$30 = 144
bt$31 = 152
bt$32 = 160
bt$33 = 168
bt$34 = 176
bt$35 = 184
ahi$36 = 192
bhi$37 = 200
ahi$38 = 208
bhi$39 = 216
ahi$40 = 224
bhi$41 = 232
ahi$42 = 240
bhi$43 = 248
ahi$44 = 256
bhi$45 = 264
ahi$46 = 272
bhi$47 = 280
alo$48 = 288
blo$49 = 296
alo$50 = 304
blo$51 = 312
s$52 = 320
alo$53 = 328
blo$54 = 336
alo$55 = 344
blo$56 = 352
s$57 = 360
alo$58 = 368
blo$59 = 376
s$60 = 384
alo$61 = 392
blo$62 = 400
s$63 = 408
ohi$ = 432
olo$ = 440
d$ = 448
power$ = 456
?stbsp__raise_to_power10@@YAXPEAN0NH@Z PROC		; stbsp__raise_to_power10
; File W:\cpp\void\ktt-c\stb_sprintf.h
; Line 1639
	mov	DWORD PTR [rsp+32], r9d
	movsd	QWORD PTR [rsp+24], xmm2
	mov	QWORD PTR [rsp+16], rdx
	mov	QWORD PTR [rsp+8], rcx
	sub	rsp, 424				; 000001a8H
; Line 1641
	cmp	DWORD PTR power$[rsp], 0
	jl	$LN74@stbsp__rai
	cmp	DWORD PTR power$[rsp], 22
	jg	$LN74@stbsp__rai
; Line 1642
	xorps	xmm0, xmm0
	movsd	QWORD PTR ahi$36[rsp], xmm0
	xorps	xmm0, xmm0
	movsd	QWORD PTR bhi$37[rsp], xmm0
	movsxd	rax, DWORD PTR power$[rsp]
	lea	rcx, OFFSET FLAT:?stbsp__bot@@3QBNB
	movsd	xmm0, QWORD PTR d$[rsp]
	mulsd	xmm0, QWORD PTR [rcx+rax*8]
	movsd	QWORD PTR ph$[rsp], xmm0
	mov	DWORD PTR cn$4[rsp], 0
	jmp	SHORT $LN4@stbsp__rai
$LN2@stbsp__rai:
	mov	eax, DWORD PTR cn$4[rsp]
	inc	eax
	mov	DWORD PTR cn$4[rsp], eax
$LN4@stbsp__rai:
	cmp	DWORD PTR cn$4[rsp], 8
	jge	SHORT $LN3@stbsp__rai
	movsxd	rax, DWORD PTR cn$4[rsp]
	movsxd	rcx, DWORD PTR cn$4[rsp]
	movzx	eax, BYTE PTR d$[rsp+rax]
	mov	BYTE PTR bt$30[rsp+rcx], al
	jmp	SHORT $LN2@stbsp__rai
$LN3@stbsp__rai:
	mov	rax, QWORD PTR bt$30[rsp]
	and	rax, -134217728				; fffffffff8000000H
	mov	QWORD PTR bt$30[rsp], rax
	mov	DWORD PTR cn$5[rsp], 0
	jmp	SHORT $LN7@stbsp__rai
$LN5@stbsp__rai:
	mov	eax, DWORD PTR cn$5[rsp]
	inc	eax
	mov	DWORD PTR cn$5[rsp], eax
$LN7@stbsp__rai:
	cmp	DWORD PTR cn$5[rsp], 8
	jge	SHORT $LN6@stbsp__rai
	movsxd	rax, DWORD PTR cn$5[rsp]
	movsxd	rcx, DWORD PTR cn$5[rsp]
	movzx	eax, BYTE PTR bt$30[rsp+rax]
	mov	BYTE PTR ahi$36[rsp+rcx], al
	jmp	SHORT $LN5@stbsp__rai
$LN6@stbsp__rai:
	movsd	xmm0, QWORD PTR d$[rsp]
	subsd	xmm0, QWORD PTR ahi$36[rsp]
	movsd	QWORD PTR alo$48[rsp], xmm0
	mov	DWORD PTR cn$6[rsp], 0
	jmp	SHORT $LN10@stbsp__rai
$LN8@stbsp__rai:
	mov	eax, DWORD PTR cn$6[rsp]
	inc	eax
	mov	DWORD PTR cn$6[rsp], eax
$LN10@stbsp__rai:
	cmp	DWORD PTR cn$6[rsp], 8
	jge	SHORT $LN9@stbsp__rai
	movsxd	rax, DWORD PTR power$[rsp]
	lea	rcx, OFFSET FLAT:?stbsp__bot@@3QBNB
	lea	rax, QWORD PTR [rcx+rax*8]
	movsxd	rcx, DWORD PTR cn$6[rsp]
	movsxd	rdx, DWORD PTR cn$6[rsp]
	movzx	eax, BYTE PTR [rax+rcx]
	mov	BYTE PTR bt$30[rsp+rdx], al
	jmp	SHORT $LN8@stbsp__rai
$LN9@stbsp__rai:
	mov	rax, QWORD PTR bt$30[rsp]
	and	rax, -134217728				; fffffffff8000000H
	mov	QWORD PTR bt$30[rsp], rax
	mov	DWORD PTR cn$7[rsp], 0
	jmp	SHORT $LN13@stbsp__rai
$LN11@stbsp__rai:
	mov	eax, DWORD PTR cn$7[rsp]
	inc	eax
	mov	DWORD PTR cn$7[rsp], eax
$LN13@stbsp__rai:
	cmp	DWORD PTR cn$7[rsp], 8
	jge	SHORT $LN12@stbsp__rai
	movsxd	rax, DWORD PTR cn$7[rsp]
	movsxd	rcx, DWORD PTR cn$7[rsp]
	movzx	eax, BYTE PTR bt$30[rsp+rax]
	mov	BYTE PTR bhi$37[rsp+rcx], al
	jmp	SHORT $LN11@stbsp__rai
$LN12@stbsp__rai:
	movsxd	rax, DWORD PTR power$[rsp]
	lea	rcx, OFFSET FLAT:?stbsp__bot@@3QBNB
	movsd	xmm0, QWORD PTR [rcx+rax*8]
	subsd	xmm0, QWORD PTR bhi$37[rsp]
	movsd	QWORD PTR blo$49[rsp], xmm0
	movsd	xmm0, QWORD PTR ahi$36[rsp]
	mulsd	xmm0, QWORD PTR bhi$37[rsp]
	subsd	xmm0, QWORD PTR ph$[rsp]
	movsd	xmm1, QWORD PTR ahi$36[rsp]
	mulsd	xmm1, QWORD PTR blo$49[rsp]
	addsd	xmm0, xmm1
	movsd	xmm1, QWORD PTR alo$48[rsp]
	mulsd	xmm1, QWORD PTR bhi$37[rsp]
	addsd	xmm0, xmm1
	movsd	xmm1, QWORD PTR alo$48[rsp]
	mulsd	xmm1, QWORD PTR blo$49[rsp]
	addsd	xmm0, xmm1
	movsd	QWORD PTR pl$[rsp], xmm0
; Line 1643
	jmp	$LN75@stbsp__rai
$LN74@stbsp__rai:
; Line 1647
	mov	eax, DWORD PTR power$[rsp]
	mov	DWORD PTR e$3[rsp], eax
; Line 1648
	cmp	DWORD PTR power$[rsp], 0
	jge	SHORT $LN76@stbsp__rai
; Line 1649
	mov	eax, DWORD PTR e$3[rsp]
	neg	eax
	mov	DWORD PTR e$3[rsp], eax
$LN76@stbsp__rai:
; Line 1650
	imul	eax, DWORD PTR e$3[rsp], 713		; 000002c9H
	sar	eax, 14
	mov	DWORD PTR et$1[rsp], eax
; Line 1651
	cmp	DWORD PTR et$1[rsp], 13
	jle	SHORT $LN77@stbsp__rai
; Line 1652
	mov	DWORD PTR et$1[rsp], 13
$LN77@stbsp__rai:
; Line 1653
	imul	eax, DWORD PTR et$1[rsp], 23
	mov	ecx, DWORD PTR e$3[rsp]
	sub	ecx, eax
	mov	eax, ecx
	mov	DWORD PTR eb$2[rsp], eax
; Line 1655
	movsd	xmm0, QWORD PTR d$[rsp]
	movsd	QWORD PTR ph$[rsp], xmm0
; Line 1656
	xorps	xmm0, xmm0
	movsd	QWORD PTR pl$[rsp], xmm0
; Line 1657
	cmp	DWORD PTR power$[rsp], 0
	jge	$LN78@stbsp__rai
; Line 1658
	cmp	DWORD PTR eb$2[rsp], 0
	je	$LN80@stbsp__rai
; Line 1659
	mov	eax, DWORD PTR eb$2[rsp]
	dec	eax
	mov	DWORD PTR eb$2[rsp], eax
; Line 1660
	xorps	xmm0, xmm0
	movsd	QWORD PTR ahi$38[rsp], xmm0
	xorps	xmm0, xmm0
	movsd	QWORD PTR bhi$39[rsp], xmm0
	movsxd	rax, DWORD PTR eb$2[rsp]
	lea	rcx, OFFSET FLAT:?stbsp__negbot@@3QBNB
	movsd	xmm0, QWORD PTR d$[rsp]
	mulsd	xmm0, QWORD PTR [rcx+rax*8]
	movsd	QWORD PTR ph$[rsp], xmm0
	mov	DWORD PTR cn$8[rsp], 0
	jmp	SHORT $LN16@stbsp__rai
$LN14@stbsp__rai:
	mov	eax, DWORD PTR cn$8[rsp]
	inc	eax
	mov	DWORD PTR cn$8[rsp], eax
$LN16@stbsp__rai:
	cmp	DWORD PTR cn$8[rsp], 8
	jge	SHORT $LN15@stbsp__rai
	movsxd	rax, DWORD PTR cn$8[rsp]
	movsxd	rcx, DWORD PTR cn$8[rsp]
	movzx	eax, BYTE PTR d$[rsp+rax]
	mov	BYTE PTR bt$31[rsp+rcx], al
	jmp	SHORT $LN14@stbsp__rai
$LN15@stbsp__rai:
	mov	rax, QWORD PTR bt$31[rsp]
	and	rax, -134217728				; fffffffff8000000H
	mov	QWORD PTR bt$31[rsp], rax
	mov	DWORD PTR cn$9[rsp], 0
	jmp	SHORT $LN19@stbsp__rai
$LN17@stbsp__rai:
	mov	eax, DWORD PTR cn$9[rsp]
	inc	eax
	mov	DWORD PTR cn$9[rsp], eax
$LN19@stbsp__rai:
	cmp	DWORD PTR cn$9[rsp], 8
	jge	SHORT $LN18@stbsp__rai
	movsxd	rax, DWORD PTR cn$9[rsp]
	movsxd	rcx, DWORD PTR cn$9[rsp]
	movzx	eax, BYTE PTR bt$31[rsp+rax]
	mov	BYTE PTR ahi$38[rsp+rcx], al
	jmp	SHORT $LN17@stbsp__rai
$LN18@stbsp__rai:
	movsd	xmm0, QWORD PTR d$[rsp]
	subsd	xmm0, QWORD PTR ahi$38[rsp]
	movsd	QWORD PTR alo$50[rsp], xmm0
	mov	DWORD PTR cn$10[rsp], 0
	jmp	SHORT $LN22@stbsp__rai
$LN20@stbsp__rai:
	mov	eax, DWORD PTR cn$10[rsp]
	inc	eax
	mov	DWORD PTR cn$10[rsp], eax
$LN22@stbsp__rai:
	cmp	DWORD PTR cn$10[rsp], 8
	jge	SHORT $LN21@stbsp__rai
	movsxd	rax, DWORD PTR eb$2[rsp]
	lea	rcx, OFFSET FLAT:?stbsp__negbot@@3QBNB
	lea	rax, QWORD PTR [rcx+rax*8]
	movsxd	rcx, DWORD PTR cn$10[rsp]
	movsxd	rdx, DWORD PTR cn$10[rsp]
	movzx	eax, BYTE PTR [rax+rcx]
	mov	BYTE PTR bt$31[rsp+rdx], al
	jmp	SHORT $LN20@stbsp__rai
$LN21@stbsp__rai:
	mov	rax, QWORD PTR bt$31[rsp]
	and	rax, -134217728				; fffffffff8000000H
	mov	QWORD PTR bt$31[rsp], rax
	mov	DWORD PTR cn$11[rsp], 0
	jmp	SHORT $LN25@stbsp__rai
$LN23@stbsp__rai:
	mov	eax, DWORD PTR cn$11[rsp]
	inc	eax
	mov	DWORD PTR cn$11[rsp], eax
$LN25@stbsp__rai:
	cmp	DWORD PTR cn$11[rsp], 8
	jge	SHORT $LN24@stbsp__rai
	movsxd	rax, DWORD PTR cn$11[rsp]
	movsxd	rcx, DWORD PTR cn$11[rsp]
	movzx	eax, BYTE PTR bt$31[rsp+rax]
	mov	BYTE PTR bhi$39[rsp+rcx], al
	jmp	SHORT $LN23@stbsp__rai
$LN24@stbsp__rai:
	movsxd	rax, DWORD PTR eb$2[rsp]
	lea	rcx, OFFSET FLAT:?stbsp__negbot@@3QBNB
	movsd	xmm0, QWORD PTR [rcx+rax*8]
	subsd	xmm0, QWORD PTR bhi$39[rsp]
	movsd	QWORD PTR blo$51[rsp], xmm0
	movsd	xmm0, QWORD PTR ahi$38[rsp]
	mulsd	xmm0, QWORD PTR bhi$39[rsp]
	subsd	xmm0, QWORD PTR ph$[rsp]
	movsd	xmm1, QWORD PTR ahi$38[rsp]
	mulsd	xmm1, QWORD PTR blo$51[rsp]
	addsd	xmm0, xmm1
	movsd	xmm1, QWORD PTR alo$50[rsp]
	mulsd	xmm1, QWORD PTR bhi$39[rsp]
	addsd	xmm0, xmm1
	movsd	xmm1, QWORD PTR alo$50[rsp]
	mulsd	xmm1, QWORD PTR blo$51[rsp]
	addsd	xmm0, xmm1
	movsd	QWORD PTR pl$[rsp], xmm0
; Line 1661
	movsxd	rax, DWORD PTR eb$2[rsp]
	lea	rcx, OFFSET FLAT:?stbsp__negboterr@@3QBNB
	movsd	xmm0, QWORD PTR d$[rsp]
	mulsd	xmm0, QWORD PTR [rcx+rax*8]
	movsd	xmm1, QWORD PTR pl$[rsp]
	addsd	xmm1, xmm0
	movaps	xmm0, xmm1
	movsd	QWORD PTR pl$[rsp], xmm0
$LN80@stbsp__rai:
; Line 1663
	cmp	DWORD PTR et$1[rsp], 0
	je	$LN81@stbsp__rai
; Line 1664
	movsd	xmm0, QWORD PTR ph$[rsp]
	addsd	xmm0, QWORD PTR pl$[rsp]
	movsd	QWORD PTR s$52[rsp], xmm0
	movsd	xmm0, QWORD PTR s$52[rsp]
	subsd	xmm0, QWORD PTR ph$[rsp]
	movsd	xmm1, QWORD PTR pl$[rsp]
	subsd	xmm1, xmm0
	movaps	xmm0, xmm1
	movsd	QWORD PTR pl$[rsp], xmm0
	movsd	xmm0, QWORD PTR s$52[rsp]
	movsd	QWORD PTR ph$[rsp], xmm0
; Line 1665
	mov	eax, DWORD PTR et$1[rsp]
	dec	eax
	mov	DWORD PTR et$1[rsp], eax
; Line 1666
	xorps	xmm0, xmm0
	movsd	QWORD PTR ahi$40[rsp], xmm0
	xorps	xmm0, xmm0
	movsd	QWORD PTR bhi$41[rsp], xmm0
	movsxd	rax, DWORD PTR et$1[rsp]
	lea	rcx, OFFSET FLAT:?stbsp__negtop@@3QBNB
	movsd	xmm0, QWORD PTR ph$[rsp]
	mulsd	xmm0, QWORD PTR [rcx+rax*8]
	movsd	QWORD PTR p2h$29[rsp], xmm0
	mov	DWORD PTR cn$12[rsp], 0
	jmp	SHORT $LN28@stbsp__rai
$LN26@stbsp__rai:
	mov	eax, DWORD PTR cn$12[rsp]
	inc	eax
	mov	DWORD PTR cn$12[rsp], eax
$LN28@stbsp__rai:
	cmp	DWORD PTR cn$12[rsp], 8
	jge	SHORT $LN27@stbsp__rai
	movsxd	rax, DWORD PTR cn$12[rsp]
	movsxd	rcx, DWORD PTR cn$12[rsp]
	movzx	eax, BYTE PTR ph$[rsp+rax]
	mov	BYTE PTR bt$32[rsp+rcx], al
	jmp	SHORT $LN26@stbsp__rai
$LN27@stbsp__rai:
	mov	rax, QWORD PTR bt$32[rsp]
	and	rax, -134217728				; fffffffff8000000H
	mov	QWORD PTR bt$32[rsp], rax
	mov	DWORD PTR cn$13[rsp], 0
	jmp	SHORT $LN31@stbsp__rai
$LN29@stbsp__rai:
	mov	eax, DWORD PTR cn$13[rsp]
	inc	eax
	mov	DWORD PTR cn$13[rsp], eax
$LN31@stbsp__rai:
	cmp	DWORD PTR cn$13[rsp], 8
	jge	SHORT $LN30@stbsp__rai
	movsxd	rax, DWORD PTR cn$13[rsp]
	movsxd	rcx, DWORD PTR cn$13[rsp]
	movzx	eax, BYTE PTR bt$32[rsp+rax]
	mov	BYTE PTR ahi$40[rsp+rcx], al
	jmp	SHORT $LN29@stbsp__rai
$LN30@stbsp__rai:
	movsd	xmm0, QWORD PTR ph$[rsp]
	subsd	xmm0, QWORD PTR ahi$40[rsp]
	movsd	QWORD PTR alo$53[rsp], xmm0
	mov	DWORD PTR cn$14[rsp], 0
	jmp	SHORT $LN34@stbsp__rai
$LN32@stbsp__rai:
	mov	eax, DWORD PTR cn$14[rsp]
	inc	eax
	mov	DWORD PTR cn$14[rsp], eax
$LN34@stbsp__rai:
	cmp	DWORD PTR cn$14[rsp], 8
	jge	SHORT $LN33@stbsp__rai
	movsxd	rax, DWORD PTR et$1[rsp]
	lea	rcx, OFFSET FLAT:?stbsp__negtop@@3QBNB
	lea	rax, QWORD PTR [rcx+rax*8]
	movsxd	rcx, DWORD PTR cn$14[rsp]
	movsxd	rdx, DWORD PTR cn$14[rsp]
	movzx	eax, BYTE PTR [rax+rcx]
	mov	BYTE PTR bt$32[rsp+rdx], al
	jmp	SHORT $LN32@stbsp__rai
$LN33@stbsp__rai:
	mov	rax, QWORD PTR bt$32[rsp]
	and	rax, -134217728				; fffffffff8000000H
	mov	QWORD PTR bt$32[rsp], rax
	mov	DWORD PTR cn$15[rsp], 0
	jmp	SHORT $LN37@stbsp__rai
$LN35@stbsp__rai:
	mov	eax, DWORD PTR cn$15[rsp]
	inc	eax
	mov	DWORD PTR cn$15[rsp], eax
$LN37@stbsp__rai:
	cmp	DWORD PTR cn$15[rsp], 8
	jge	SHORT $LN36@stbsp__rai
	movsxd	rax, DWORD PTR cn$15[rsp]
	movsxd	rcx, DWORD PTR cn$15[rsp]
	movzx	eax, BYTE PTR bt$32[rsp+rax]
	mov	BYTE PTR bhi$41[rsp+rcx], al
	jmp	SHORT $LN35@stbsp__rai
$LN36@stbsp__rai:
	movsxd	rax, DWORD PTR et$1[rsp]
	lea	rcx, OFFSET FLAT:?stbsp__negtop@@3QBNB
	movsd	xmm0, QWORD PTR [rcx+rax*8]
	subsd	xmm0, QWORD PTR bhi$41[rsp]
	movsd	QWORD PTR blo$54[rsp], xmm0
	movsd	xmm0, QWORD PTR ahi$40[rsp]
	mulsd	xmm0, QWORD PTR bhi$41[rsp]
	subsd	xmm0, QWORD PTR p2h$29[rsp]
	movsd	xmm1, QWORD PTR ahi$40[rsp]
	mulsd	xmm1, QWORD PTR blo$54[rsp]
	addsd	xmm0, xmm1
	movsd	xmm1, QWORD PTR alo$53[rsp]
	mulsd	xmm1, QWORD PTR bhi$41[rsp]
	addsd	xmm0, xmm1
	movsd	xmm1, QWORD PTR alo$53[rsp]
	mulsd	xmm1, QWORD PTR blo$54[rsp]
	addsd	xmm0, xmm1
	movsd	QWORD PTR p2l$28[rsp], xmm0
; Line 1667
	movsxd	rax, DWORD PTR et$1[rsp]
	lea	rcx, OFFSET FLAT:?stbsp__negtoperr@@3QBNB
	movsd	xmm0, QWORD PTR ph$[rsp]
	mulsd	xmm0, QWORD PTR [rcx+rax*8]
	movsxd	rax, DWORD PTR et$1[rsp]
	lea	rcx, OFFSET FLAT:?stbsp__negtop@@3QBNB
	movsd	xmm1, QWORD PTR pl$[rsp]
	mulsd	xmm1, QWORD PTR [rcx+rax*8]
	addsd	xmm0, xmm1
	movsd	xmm1, QWORD PTR p2l$28[rsp]
	addsd	xmm1, xmm0
	movaps	xmm0, xmm1
	movsd	QWORD PTR p2l$28[rsp], xmm0
; Line 1668
	movsd	xmm0, QWORD PTR p2h$29[rsp]
	movsd	QWORD PTR ph$[rsp], xmm0
; Line 1669
	movsd	xmm0, QWORD PTR p2l$28[rsp]
	movsd	QWORD PTR pl$[rsp], xmm0
$LN81@stbsp__rai:
; Line 1671
	jmp	$LN79@stbsp__rai
$LN78@stbsp__rai:
; Line 1672
	cmp	DWORD PTR eb$2[rsp], 0
	je	$LN82@stbsp__rai
; Line 1673
	mov	eax, DWORD PTR eb$2[rsp]
	mov	DWORD PTR e$3[rsp], eax
; Line 1674
	cmp	DWORD PTR eb$2[rsp], 22
	jle	SHORT $LN83@stbsp__rai
; Line 1675
	mov	DWORD PTR eb$2[rsp], 22
$LN83@stbsp__rai:
; Line 1676
	mov	eax, DWORD PTR eb$2[rsp]
	mov	ecx, DWORD PTR e$3[rsp]
	sub	ecx, eax
	mov	eax, ecx
	mov	DWORD PTR e$3[rsp], eax
; Line 1677
	xorps	xmm0, xmm0
	movsd	QWORD PTR ahi$42[rsp], xmm0
	xorps	xmm0, xmm0
	movsd	QWORD PTR bhi$43[rsp], xmm0
	movsxd	rax, DWORD PTR eb$2[rsp]
	lea	rcx, OFFSET FLAT:?stbsp__bot@@3QBNB
	movsd	xmm0, QWORD PTR d$[rsp]
	mulsd	xmm0, QWORD PTR [rcx+rax*8]
	movsd	QWORD PTR ph$[rsp], xmm0
	mov	DWORD PTR cn$16[rsp], 0
	jmp	SHORT $LN40@stbsp__rai
$LN38@stbsp__rai:
	mov	eax, DWORD PTR cn$16[rsp]
	inc	eax
	mov	DWORD PTR cn$16[rsp], eax
$LN40@stbsp__rai:
	cmp	DWORD PTR cn$16[rsp], 8
	jge	SHORT $LN39@stbsp__rai
	movsxd	rax, DWORD PTR cn$16[rsp]
	movsxd	rcx, DWORD PTR cn$16[rsp]
	movzx	eax, BYTE PTR d$[rsp+rax]
	mov	BYTE PTR bt$33[rsp+rcx], al
	jmp	SHORT $LN38@stbsp__rai
$LN39@stbsp__rai:
	mov	rax, QWORD PTR bt$33[rsp]
	and	rax, -134217728				; fffffffff8000000H
	mov	QWORD PTR bt$33[rsp], rax
	mov	DWORD PTR cn$17[rsp], 0
	jmp	SHORT $LN43@stbsp__rai
$LN41@stbsp__rai:
	mov	eax, DWORD PTR cn$17[rsp]
	inc	eax
	mov	DWORD PTR cn$17[rsp], eax
$LN43@stbsp__rai:
	cmp	DWORD PTR cn$17[rsp], 8
	jge	SHORT $LN42@stbsp__rai
	movsxd	rax, DWORD PTR cn$17[rsp]
	movsxd	rcx, DWORD PTR cn$17[rsp]
	movzx	eax, BYTE PTR bt$33[rsp+rax]
	mov	BYTE PTR ahi$42[rsp+rcx], al
	jmp	SHORT $LN41@stbsp__rai
$LN42@stbsp__rai:
	movsd	xmm0, QWORD PTR d$[rsp]
	subsd	xmm0, QWORD PTR ahi$42[rsp]
	movsd	QWORD PTR alo$55[rsp], xmm0
	mov	DWORD PTR cn$18[rsp], 0
	jmp	SHORT $LN46@stbsp__rai
$LN44@stbsp__rai:
	mov	eax, DWORD PTR cn$18[rsp]
	inc	eax
	mov	DWORD PTR cn$18[rsp], eax
$LN46@stbsp__rai:
	cmp	DWORD PTR cn$18[rsp], 8
	jge	SHORT $LN45@stbsp__rai
	movsxd	rax, DWORD PTR eb$2[rsp]
	lea	rcx, OFFSET FLAT:?stbsp__bot@@3QBNB
	lea	rax, QWORD PTR [rcx+rax*8]
	movsxd	rcx, DWORD PTR cn$18[rsp]
	movsxd	rdx, DWORD PTR cn$18[rsp]
	movzx	eax, BYTE PTR [rax+rcx]
	mov	BYTE PTR bt$33[rsp+rdx], al
	jmp	SHORT $LN44@stbsp__rai
$LN45@stbsp__rai:
	mov	rax, QWORD PTR bt$33[rsp]
	and	rax, -134217728				; fffffffff8000000H
	mov	QWORD PTR bt$33[rsp], rax
	mov	DWORD PTR cn$19[rsp], 0
	jmp	SHORT $LN49@stbsp__rai
$LN47@stbsp__rai:
	mov	eax, DWORD PTR cn$19[rsp]
	inc	eax
	mov	DWORD PTR cn$19[rsp], eax
$LN49@stbsp__rai:
	cmp	DWORD PTR cn$19[rsp], 8
	jge	SHORT $LN48@stbsp__rai
	movsxd	rax, DWORD PTR cn$19[rsp]
	movsxd	rcx, DWORD PTR cn$19[rsp]
	movzx	eax, BYTE PTR bt$33[rsp+rax]
	mov	BYTE PTR bhi$43[rsp+rcx], al
	jmp	SHORT $LN47@stbsp__rai
$LN48@stbsp__rai:
	movsxd	rax, DWORD PTR eb$2[rsp]
	lea	rcx, OFFSET FLAT:?stbsp__bot@@3QBNB
	movsd	xmm0, QWORD PTR [rcx+rax*8]
	subsd	xmm0, QWORD PTR bhi$43[rsp]
	movsd	QWORD PTR blo$56[rsp], xmm0
	movsd	xmm0, QWORD PTR ahi$42[rsp]
	mulsd	xmm0, QWORD PTR bhi$43[rsp]
	subsd	xmm0, QWORD PTR ph$[rsp]
	movsd	xmm1, QWORD PTR ahi$42[rsp]
	mulsd	xmm1, QWORD PTR blo$56[rsp]
	addsd	xmm0, xmm1
	movsd	xmm1, QWORD PTR alo$55[rsp]
	mulsd	xmm1, QWORD PTR bhi$43[rsp]
	addsd	xmm0, xmm1
	movsd	xmm1, QWORD PTR alo$55[rsp]
	mulsd	xmm1, QWORD PTR blo$56[rsp]
	addsd	xmm0, xmm1
	movsd	QWORD PTR pl$[rsp], xmm0
; Line 1678
	cmp	DWORD PTR e$3[rsp], 0
	je	$LN84@stbsp__rai
; Line 1679
	movsd	xmm0, QWORD PTR ph$[rsp]
	addsd	xmm0, QWORD PTR pl$[rsp]
	movsd	QWORD PTR s$57[rsp], xmm0
	movsd	xmm0, QWORD PTR s$57[rsp]
	subsd	xmm0, QWORD PTR ph$[rsp]
	movsd	xmm1, QWORD PTR pl$[rsp]
	subsd	xmm1, xmm0
	movaps	xmm0, xmm1
	movsd	QWORD PTR pl$[rsp], xmm0
	movsd	xmm0, QWORD PTR s$57[rsp]
	movsd	QWORD PTR ph$[rsp], xmm0
; Line 1680
	xorps	xmm0, xmm0
	movsd	QWORD PTR ahi$44[rsp], xmm0
	xorps	xmm0, xmm0
	movsd	QWORD PTR bhi$45[rsp], xmm0
	movsxd	rax, DWORD PTR e$3[rsp]
	lea	rcx, OFFSET FLAT:?stbsp__bot@@3QBNB
	movsd	xmm0, QWORD PTR ph$[rsp]
	mulsd	xmm0, QWORD PTR [rcx+rax*8]
	movsd	QWORD PTR p2h$29[rsp], xmm0
	mov	DWORD PTR cn$20[rsp], 0
	jmp	SHORT $LN52@stbsp__rai
$LN50@stbsp__rai:
	mov	eax, DWORD PTR cn$20[rsp]
	inc	eax
	mov	DWORD PTR cn$20[rsp], eax
$LN52@stbsp__rai:
	cmp	DWORD PTR cn$20[rsp], 8
	jge	SHORT $LN51@stbsp__rai
	movsxd	rax, DWORD PTR cn$20[rsp]
	movsxd	rcx, DWORD PTR cn$20[rsp]
	movzx	eax, BYTE PTR ph$[rsp+rax]
	mov	BYTE PTR bt$34[rsp+rcx], al
	jmp	SHORT $LN50@stbsp__rai
$LN51@stbsp__rai:
	mov	rax, QWORD PTR bt$34[rsp]
	and	rax, -134217728				; fffffffff8000000H
	mov	QWORD PTR bt$34[rsp], rax
	mov	DWORD PTR cn$21[rsp], 0
	jmp	SHORT $LN55@stbsp__rai
$LN53@stbsp__rai:
	mov	eax, DWORD PTR cn$21[rsp]
	inc	eax
	mov	DWORD PTR cn$21[rsp], eax
$LN55@stbsp__rai:
	cmp	DWORD PTR cn$21[rsp], 8
	jge	SHORT $LN54@stbsp__rai
	movsxd	rax, DWORD PTR cn$21[rsp]
	movsxd	rcx, DWORD PTR cn$21[rsp]
	movzx	eax, BYTE PTR bt$34[rsp+rax]
	mov	BYTE PTR ahi$44[rsp+rcx], al
	jmp	SHORT $LN53@stbsp__rai
$LN54@stbsp__rai:
	movsd	xmm0, QWORD PTR ph$[rsp]
	subsd	xmm0, QWORD PTR ahi$44[rsp]
	movsd	QWORD PTR alo$58[rsp], xmm0
	mov	DWORD PTR cn$22[rsp], 0
	jmp	SHORT $LN58@stbsp__rai
$LN56@stbsp__rai:
	mov	eax, DWORD PTR cn$22[rsp]
	inc	eax
	mov	DWORD PTR cn$22[rsp], eax
$LN58@stbsp__rai:
	cmp	DWORD PTR cn$22[rsp], 8
	jge	SHORT $LN57@stbsp__rai
	movsxd	rax, DWORD PTR e$3[rsp]
	lea	rcx, OFFSET FLAT:?stbsp__bot@@3QBNB
	lea	rax, QWORD PTR [rcx+rax*8]
	movsxd	rcx, DWORD PTR cn$22[rsp]
	movsxd	rdx, DWORD PTR cn$22[rsp]
	movzx	eax, BYTE PTR [rax+rcx]
	mov	BYTE PTR bt$34[rsp+rdx], al
	jmp	SHORT $LN56@stbsp__rai
$LN57@stbsp__rai:
	mov	rax, QWORD PTR bt$34[rsp]
	and	rax, -134217728				; fffffffff8000000H
	mov	QWORD PTR bt$34[rsp], rax
	mov	DWORD PTR cn$23[rsp], 0
	jmp	SHORT $LN61@stbsp__rai
$LN59@stbsp__rai:
	mov	eax, DWORD PTR cn$23[rsp]
	inc	eax
	mov	DWORD PTR cn$23[rsp], eax
$LN61@stbsp__rai:
	cmp	DWORD PTR cn$23[rsp], 8
	jge	SHORT $LN60@stbsp__rai
	movsxd	rax, DWORD PTR cn$23[rsp]
	movsxd	rcx, DWORD PTR cn$23[rsp]
	movzx	eax, BYTE PTR bt$34[rsp+rax]
	mov	BYTE PTR bhi$45[rsp+rcx], al
	jmp	SHORT $LN59@stbsp__rai
$LN60@stbsp__rai:
	movsxd	rax, DWORD PTR e$3[rsp]
	lea	rcx, OFFSET FLAT:?stbsp__bot@@3QBNB
	movsd	xmm0, QWORD PTR [rcx+rax*8]
	subsd	xmm0, QWORD PTR bhi$45[rsp]
	movsd	QWORD PTR blo$59[rsp], xmm0
	movsd	xmm0, QWORD PTR ahi$44[rsp]
	mulsd	xmm0, QWORD PTR bhi$45[rsp]
	subsd	xmm0, QWORD PTR p2h$29[rsp]
	movsd	xmm1, QWORD PTR ahi$44[rsp]
	mulsd	xmm1, QWORD PTR blo$59[rsp]
	addsd	xmm0, xmm1
	movsd	xmm1, QWORD PTR alo$58[rsp]
	mulsd	xmm1, QWORD PTR bhi$45[rsp]
	addsd	xmm0, xmm1
	movsd	xmm1, QWORD PTR alo$58[rsp]
	mulsd	xmm1, QWORD PTR blo$59[rsp]
	addsd	xmm0, xmm1
	movsd	QWORD PTR p2l$28[rsp], xmm0
; Line 1681
	movsxd	rax, DWORD PTR e$3[rsp]
	lea	rcx, OFFSET FLAT:?stbsp__bot@@3QBNB
	movsd	xmm0, QWORD PTR [rcx+rax*8]
	mulsd	xmm0, QWORD PTR pl$[rsp]
	movsd	xmm1, QWORD PTR p2l$28[rsp]
	addsd	xmm1, xmm0
	movaps	xmm0, xmm1
	movsd	QWORD PTR p2l$28[rsp], xmm0
; Line 1682
	movsd	xmm0, QWORD PTR p2h$29[rsp]
	movsd	QWORD PTR ph$[rsp], xmm0
; Line 1683
	movsd	xmm0, QWORD PTR p2l$28[rsp]
	movsd	QWORD PTR pl$[rsp], xmm0
$LN84@stbsp__rai:
$LN82@stbsp__rai:
; Line 1686
	cmp	DWORD PTR et$1[rsp], 0
	je	$LN85@stbsp__rai
; Line 1687
	movsd	xmm0, QWORD PTR ph$[rsp]
	addsd	xmm0, QWORD PTR pl$[rsp]
	movsd	QWORD PTR s$60[rsp], xmm0
	movsd	xmm0, QWORD PTR s$60[rsp]
	subsd	xmm0, QWORD PTR ph$[rsp]
	movsd	xmm1, QWORD PTR pl$[rsp]
	subsd	xmm1, xmm0
	movaps	xmm0, xmm1
	movsd	QWORD PTR pl$[rsp], xmm0
	movsd	xmm0, QWORD PTR s$60[rsp]
	movsd	QWORD PTR ph$[rsp], xmm0
; Line 1688
	mov	eax, DWORD PTR et$1[rsp]
	dec	eax
	mov	DWORD PTR et$1[rsp], eax
; Line 1689
	xorps	xmm0, xmm0
	movsd	QWORD PTR ahi$46[rsp], xmm0
	xorps	xmm0, xmm0
	movsd	QWORD PTR bhi$47[rsp], xmm0
	movsxd	rax, DWORD PTR et$1[rsp]
	lea	rcx, OFFSET FLAT:?stbsp__top@@3QBNB
	movsd	xmm0, QWORD PTR ph$[rsp]
	mulsd	xmm0, QWORD PTR [rcx+rax*8]
	movsd	QWORD PTR p2h$29[rsp], xmm0
	mov	DWORD PTR cn$24[rsp], 0
	jmp	SHORT $LN64@stbsp__rai
$LN62@stbsp__rai:
	mov	eax, DWORD PTR cn$24[rsp]
	inc	eax
	mov	DWORD PTR cn$24[rsp], eax
$LN64@stbsp__rai:
	cmp	DWORD PTR cn$24[rsp], 8
	jge	SHORT $LN63@stbsp__rai
	movsxd	rax, DWORD PTR cn$24[rsp]
	movsxd	rcx, DWORD PTR cn$24[rsp]
	movzx	eax, BYTE PTR ph$[rsp+rax]
	mov	BYTE PTR bt$35[rsp+rcx], al
	jmp	SHORT $LN62@stbsp__rai
$LN63@stbsp__rai:
	mov	rax, QWORD PTR bt$35[rsp]
	and	rax, -134217728				; fffffffff8000000H
	mov	QWORD PTR bt$35[rsp], rax
	mov	DWORD PTR cn$25[rsp], 0
	jmp	SHORT $LN67@stbsp__rai
$LN65@stbsp__rai:
	mov	eax, DWORD PTR cn$25[rsp]
	inc	eax
	mov	DWORD PTR cn$25[rsp], eax
$LN67@stbsp__rai:
	cmp	DWORD PTR cn$25[rsp], 8
	jge	SHORT $LN66@stbsp__rai
	movsxd	rax, DWORD PTR cn$25[rsp]
	movsxd	rcx, DWORD PTR cn$25[rsp]
	movzx	eax, BYTE PTR bt$35[rsp+rax]
	mov	BYTE PTR ahi$46[rsp+rcx], al
	jmp	SHORT $LN65@stbsp__rai
$LN66@stbsp__rai:
	movsd	xmm0, QWORD PTR ph$[rsp]
	subsd	xmm0, QWORD PTR ahi$46[rsp]
	movsd	QWORD PTR alo$61[rsp], xmm0
	mov	DWORD PTR cn$26[rsp], 0
	jmp	SHORT $LN70@stbsp__rai
$LN68@stbsp__rai:
	mov	eax, DWORD PTR cn$26[rsp]
	inc	eax
	mov	DWORD PTR cn$26[rsp], eax
$LN70@stbsp__rai:
	cmp	DWORD PTR cn$26[rsp], 8
	jge	SHORT $LN69@stbsp__rai
	movsxd	rax, DWORD PTR et$1[rsp]
	lea	rcx, OFFSET FLAT:?stbsp__top@@3QBNB
	lea	rax, QWORD PTR [rcx+rax*8]
	movsxd	rcx, DWORD PTR cn$26[rsp]
	movsxd	rdx, DWORD PTR cn$26[rsp]
	movzx	eax, BYTE PTR [rax+rcx]
	mov	BYTE PTR bt$35[rsp+rdx], al
	jmp	SHORT $LN68@stbsp__rai
$LN69@stbsp__rai:
	mov	rax, QWORD PTR bt$35[rsp]
	and	rax, -134217728				; fffffffff8000000H
	mov	QWORD PTR bt$35[rsp], rax
	mov	DWORD PTR cn$27[rsp], 0
	jmp	SHORT $LN73@stbsp__rai
$LN71@stbsp__rai:
	mov	eax, DWORD PTR cn$27[rsp]
	inc	eax
	mov	DWORD PTR cn$27[rsp], eax
$LN73@stbsp__rai:
	cmp	DWORD PTR cn$27[rsp], 8
	jge	SHORT $LN72@stbsp__rai
	movsxd	rax, DWORD PTR cn$27[rsp]
	movsxd	rcx, DWORD PTR cn$27[rsp]
	movzx	eax, BYTE PTR bt$35[rsp+rax]
	mov	BYTE PTR bhi$47[rsp+rcx], al
	jmp	SHORT $LN71@stbsp__rai
$LN72@stbsp__rai:
	movsxd	rax, DWORD PTR et$1[rsp]
	lea	rcx, OFFSET FLAT:?stbsp__top@@3QBNB
	movsd	xmm0, QWORD PTR [rcx+rax*8]
	subsd	xmm0, QWORD PTR bhi$47[rsp]
	movsd	QWORD PTR blo$62[rsp], xmm0
	movsd	xmm0, QWORD PTR ahi$46[rsp]
	mulsd	xmm0, QWORD PTR bhi$47[rsp]
	subsd	xmm0, QWORD PTR p2h$29[rsp]
	movsd	xmm1, QWORD PTR ahi$46[rsp]
	mulsd	xmm1, QWORD PTR blo$62[rsp]
	addsd	xmm0, xmm1
	movsd	xmm1, QWORD PTR alo$61[rsp]
	mulsd	xmm1, QWORD PTR bhi$47[rsp]
	addsd	xmm0, xmm1
	movsd	xmm1, QWORD PTR alo$61[rsp]
	mulsd	xmm1, QWORD PTR blo$62[rsp]
	addsd	xmm0, xmm1
	movsd	QWORD PTR p2l$28[rsp], xmm0
; Line 1690
	movsxd	rax, DWORD PTR et$1[rsp]
	lea	rcx, OFFSET FLAT:?stbsp__toperr@@3QBNB
	movsd	xmm0, QWORD PTR ph$[rsp]
	mulsd	xmm0, QWORD PTR [rcx+rax*8]
	movsxd	rax, DWORD PTR et$1[rsp]
	lea	rcx, OFFSET FLAT:?stbsp__top@@3QBNB
	movsd	xmm1, QWORD PTR pl$[rsp]
	mulsd	xmm1, QWORD PTR [rcx+rax*8]
	addsd	xmm0, xmm1
	movsd	xmm1, QWORD PTR p2l$28[rsp]
	addsd	xmm1, xmm0
	movaps	xmm0, xmm1
	movsd	QWORD PTR p2l$28[rsp], xmm0
; Line 1691
	movsd	xmm0, QWORD PTR p2h$29[rsp]
	movsd	QWORD PTR ph$[rsp], xmm0
; Line 1692
	movsd	xmm0, QWORD PTR p2l$28[rsp]
	movsd	QWORD PTR pl$[rsp], xmm0
$LN85@stbsp__rai:
$LN79@stbsp__rai:
$LN75@stbsp__rai:
; Line 1696
	movsd	xmm0, QWORD PTR ph$[rsp]
	addsd	xmm0, QWORD PTR pl$[rsp]
	movsd	QWORD PTR s$63[rsp], xmm0
	movsd	xmm0, QWORD PTR s$63[rsp]
	subsd	xmm0, QWORD PTR ph$[rsp]
	movsd	xmm1, QWORD PTR pl$[rsp]
	subsd	xmm1, xmm0
	movaps	xmm0, xmm1
	movsd	QWORD PTR pl$[rsp], xmm0
	movsd	xmm0, QWORD PTR s$63[rsp]
	movsd	QWORD PTR ph$[rsp], xmm0
; Line 1697
	mov	rax, QWORD PTR ohi$[rsp]
	movsd	xmm0, QWORD PTR ph$[rsp]
	movsd	QWORD PTR [rax], xmm0
; Line 1698
	mov	rax, QWORD PTR olo$[rsp]
	movsd	xmm0, QWORD PTR pl$[rsp]
	movsd	QWORD PTR [rax], xmm0
; Line 1699
	add	rsp, 424				; 000001a8H
	ret	0
?stbsp__raise_to_power10@@YAXPEAN0NH@Z ENDP		; stbsp__raise_to_power10
_TEXT	ENDS
; Function compile flags: /Odtp
_TEXT	SEGMENT
c$ = 0
buf$ = 32
user$ = 40
len$ = 48
?stbsp__count_clamp_callback@@YAPEADPEBDPEAXH@Z PROC	; stbsp__count_clamp_callback
; File W:\cpp\void\ktt-c\stb_sprintf.h
; Line 1422
	mov	DWORD PTR [rsp+24], r8d
	mov	QWORD PTR [rsp+16], rdx
	mov	QWORD PTR [rsp+8], rcx
	sub	rsp, 24
; Line 1423
	mov	rax, QWORD PTR user$[rsp]
	mov	QWORD PTR c$[rsp], rax
; Line 1426
	mov	rax, QWORD PTR c$[rsp]
	mov	eax, DWORD PTR [rax+12]
	add	eax, DWORD PTR len$[rsp]
	mov	rcx, QWORD PTR c$[rsp]
	mov	DWORD PTR [rcx+12], eax
; Line 1427
	mov	rax, QWORD PTR c$[rsp]
	add	rax, 16
; Line 1428
	add	rsp, 24
	ret	0
?stbsp__count_clamp_callback@@YAPEADPEBDPEAXH@Z ENDP	; stbsp__count_clamp_callback
_TEXT	ENDS
; Function compile flags: /Odtp
_TEXT	SEGMENT
tv79 = 0
c$ = 8
s$1 = 16
d$2 = 24
tv95 = 32
se$3 = 40
buf$ = 64
user$ = 72
len$ = 80
?stbsp__clamp_callback@@YAPEADPEBDPEAXH@Z PROC		; stbsp__clamp_callback
; File W:\cpp\void\ktt-c\stb_sprintf.h
; Line 1394
	mov	DWORD PTR [rsp+24], r8d
	mov	QWORD PTR [rsp+16], rdx
	mov	QWORD PTR [rsp+8], rcx
	sub	rsp, 56					; 00000038H
; Line 1395
	mov	rax, QWORD PTR user$[rsp]
	mov	QWORD PTR c$[rsp], rax
; Line 1396
	mov	rax, QWORD PTR c$[rsp]
	mov	eax, DWORD PTR [rax+12]
	add	eax, DWORD PTR len$[rsp]
	mov	rcx, QWORD PTR c$[rsp]
	mov	DWORD PTR [rcx+12], eax
; Line 1398
	mov	rax, QWORD PTR c$[rsp]
	mov	eax, DWORD PTR [rax+8]
	cmp	DWORD PTR len$[rsp], eax
	jle	SHORT $LN5@stbsp__cla
; Line 1399
	mov	rax, QWORD PTR c$[rsp]
	mov	eax, DWORD PTR [rax+8]
	mov	DWORD PTR len$[rsp], eax
$LN5@stbsp__cla:
; Line 1401
	cmp	DWORD PTR len$[rsp], 0
	je	$LN6@stbsp__cla
; Line 1402
	mov	rax, QWORD PTR c$[rsp]
	mov	rax, QWORD PTR [rax]
	cmp	QWORD PTR buf$[rsp], rax
	je	SHORT $LN7@stbsp__cla
; Line 1405
	mov	rax, QWORD PTR c$[rsp]
	mov	rax, QWORD PTR [rax]
	mov	QWORD PTR d$2[rsp], rax
; Line 1406
	mov	rax, QWORD PTR buf$[rsp]
	mov	QWORD PTR s$1[rsp], rax
; Line 1407
	movsxd	rax, DWORD PTR len$[rsp]
	mov	rcx, QWORD PTR buf$[rsp]
	add	rcx, rax
	mov	rax, rcx
	mov	QWORD PTR se$3[rsp], rax
$LN4@stbsp__cla:
; Line 1409
	mov	rax, QWORD PTR s$1[rsp]
	movzx	eax, BYTE PTR [rax]
	mov	BYTE PTR tv79[rsp], al
	mov	rax, QWORD PTR s$1[rsp]
	inc	rax
	mov	QWORD PTR s$1[rsp], rax
	mov	rax, QWORD PTR d$2[rsp]
	movzx	ecx, BYTE PTR tv79[rsp]
	mov	BYTE PTR [rax], cl
	mov	rax, QWORD PTR d$2[rsp]
	inc	rax
	mov	QWORD PTR d$2[rsp], rax
; Line 1410
	mov	rax, QWORD PTR se$3[rsp]
	cmp	QWORD PTR s$1[rsp], rax
	jb	SHORT $LN4@stbsp__cla
$LN7@stbsp__cla:
; Line 1412
	movsxd	rax, DWORD PTR len$[rsp]
	mov	rcx, QWORD PTR c$[rsp]
	add	rax, QWORD PTR [rcx]
	mov	rcx, QWORD PTR c$[rsp]
	mov	QWORD PTR [rcx], rax
; Line 1413
	mov	rax, QWORD PTR c$[rsp]
	mov	ecx, DWORD PTR len$[rsp]
	mov	eax, DWORD PTR [rax+8]
	sub	eax, ecx
	mov	rcx, QWORD PTR c$[rsp]
	mov	DWORD PTR [rcx+8], eax
$LN6@stbsp__cla:
; Line 1416
	mov	rax, QWORD PTR c$[rsp]
	cmp	DWORD PTR [rax+8], 0
	jg	SHORT $LN8@stbsp__cla
; Line 1417
	mov	rax, QWORD PTR c$[rsp]
	add	rax, 16
	jmp	SHORT $LN1@stbsp__cla
$LN8@stbsp__cla:
; Line 1418
	mov	rax, QWORD PTR c$[rsp]
	cmp	DWORD PTR [rax+8], 512			; 00000200H
	jl	SHORT $LN10@stbsp__cla
	mov	rax, QWORD PTR c$[rsp]
	mov	rax, QWORD PTR [rax]
	mov	QWORD PTR tv95[rsp], rax
	jmp	SHORT $LN11@stbsp__cla
$LN10@stbsp__cla:
	mov	rax, QWORD PTR c$[rsp]
	add	rax, 16
	mov	QWORD PTR tv95[rsp], rax
$LN11@stbsp__cla:
	mov	rax, QWORD PTR tv95[rsp]
$LN1@stbsp__cla:
; Line 1419
	add	rsp, 56					; 00000038H
	ret	0
?stbsp__clamp_callback@@YAPEADPEBDPEAXH@Z ENDP		; stbsp__clamp_callback
_TEXT	ENDS
; Function compile flags: /Odtp
_TEXT	SEGMENT
v$1 = 0
sn$ = 8
s$ = 32
limit$ = 40
?stbsp__strlen_limited@@YAIPEBDI@Z PROC			; stbsp__strlen_limited
; File W:\cpp\void\ktt-c\stb_sprintf.h
; Line 310
	mov	DWORD PTR [rsp+16], edx
	mov	QWORD PTR [rsp+8], rcx
	sub	rsp, 24
; Line 311
	mov	rax, QWORD PTR s$[rsp]
	mov	QWORD PTR sn$[rsp], rax
$LN2@stbsp__str:
; Line 315
	mov	rax, QWORD PTR sn$[rsp]
	and	rax, 3
	test	rax, rax
	jne	SHORT $LN9@stbsp__str
; Line 316
	jmp	SHORT $LN3@stbsp__str
$LN9@stbsp__str:
; Line 318
	cmp	DWORD PTR limit$[rsp], 0
	je	SHORT $LN11@stbsp__str
	mov	rax, QWORD PTR sn$[rsp]
	movsx	eax, BYTE PTR [rax]
	test	eax, eax
	jne	SHORT $LN10@stbsp__str
$LN11@stbsp__str:
; Line 319
	mov	rax, QWORD PTR s$[rsp]
	mov	rcx, QWORD PTR sn$[rsp]
	sub	rcx, rax
	mov	rax, rcx
	jmp	$LN1@stbsp__str
$LN10@stbsp__str:
; Line 321
	mov	rax, QWORD PTR sn$[rsp]
	inc	rax
	mov	QWORD PTR sn$[rsp], rax
; Line 322
	mov	eax, DWORD PTR limit$[rsp]
	dec	eax
	mov	DWORD PTR limit$[rsp], eax
; Line 323
	jmp	SHORT $LN2@stbsp__str
$LN3@stbsp__str:
$LN5@stbsp__str:
; Line 330
	cmp	DWORD PTR limit$[rsp], 4
	jb	SHORT $LN6@stbsp__str
; Line 331
	mov	rax, QWORD PTR sn$[rsp]
	mov	eax, DWORD PTR [rax]
	mov	DWORD PTR v$1[rsp], eax
; Line 333
	mov	eax, DWORD PTR v$1[rsp]
	sub	eax, 16843009				; 01010101H
	mov	ecx, DWORD PTR v$1[rsp]
	not	ecx
	and	eax, ecx
	and	eax, -2139062144			; 80808080H
	test	eax, eax
	je	SHORT $LN12@stbsp__str
; Line 334
	jmp	SHORT $LN6@stbsp__str
$LN12@stbsp__str:
; Line 336
	mov	rax, QWORD PTR sn$[rsp]
	add	rax, 4
	mov	QWORD PTR sn$[rsp], rax
; Line 337
	mov	eax, DWORD PTR limit$[rsp]
	sub	eax, 4
	mov	DWORD PTR limit$[rsp], eax
; Line 338
	jmp	SHORT $LN5@stbsp__str
$LN6@stbsp__str:
$LN7@stbsp__str:
; Line 341
	cmp	DWORD PTR limit$[rsp], 0
	je	SHORT $LN8@stbsp__str
	mov	rax, QWORD PTR sn$[rsp]
	movsx	eax, BYTE PTR [rax]
	test	eax, eax
	je	SHORT $LN8@stbsp__str
; Line 342
	mov	rax, QWORD PTR sn$[rsp]
	inc	rax
	mov	QWORD PTR sn$[rsp], rax
; Line 343
	mov	eax, DWORD PTR limit$[rsp]
	dec	eax
	mov	DWORD PTR limit$[rsp], eax
; Line 344
	jmp	SHORT $LN7@stbsp__str
$LN8@stbsp__str:
; Line 346
	mov	rax, QWORD PTR s$[rsp]
	mov	rcx, QWORD PTR sn$[rsp]
	sub	rcx, rax
	mov	rax, rcx
$LN1@stbsp__str:
; Line 347
	add	rsp, 24
	ret	0
?stbsp__strlen_limited@@YAIPEBDI@Z ENDP			; stbsp__strlen_limited
_TEXT	ENDS
; Function compile flags: /Odtp
_TEXT	SEGMENT
fl$ = 8
sign$ = 16
?stbsp__lead_sign@@YAXIPEAD@Z PROC			; stbsp__lead_sign
; File W:\cpp\void\ktt-c\stb_sprintf.h
; Line 295
	mov	QWORD PTR [rsp+16], rdx
	mov	DWORD PTR [rsp+8], ecx
; Line 296
	mov	eax, 1
	imul	rax, rax, 0
	mov	rcx, QWORD PTR sign$[rsp]
	mov	BYTE PTR [rcx+rax], 0
; Line 297
	mov	eax, DWORD PTR fl$[rsp]
	and	eax, 128				; 00000080H
	test	eax, eax
	je	SHORT $LN2@stbsp__lea
; Line 298
	mov	eax, 1
	imul	rax, rax, 0
	mov	rcx, QWORD PTR sign$[rsp]
	mov	BYTE PTR [rcx+rax], 1
; Line 299
	mov	eax, 1
	imul	rax, rax, 1
	mov	rcx, QWORD PTR sign$[rsp]
	mov	BYTE PTR [rcx+rax], 45			; 0000002dH
	jmp	SHORT $LN3@stbsp__lea
$LN2@stbsp__lea:
; Line 300
	mov	eax, DWORD PTR fl$[rsp]
	and	eax, 4
	test	eax, eax
	je	SHORT $LN4@stbsp__lea
; Line 301
	mov	eax, 1
	imul	rax, rax, 0
	mov	rcx, QWORD PTR sign$[rsp]
	mov	BYTE PTR [rcx+rax], 1
; Line 302
	mov	eax, 1
	imul	rax, rax, 1
	mov	rcx, QWORD PTR sign$[rsp]
	mov	BYTE PTR [rcx+rax], 32			; 00000020H
	jmp	SHORT $LN5@stbsp__lea
$LN4@stbsp__lea:
; Line 303
	mov	eax, DWORD PTR fl$[rsp]
	and	eax, 2
	test	eax, eax
	je	SHORT $LN6@stbsp__lea
; Line 304
	mov	eax, 1
	imul	rax, rax, 0
	mov	rcx, QWORD PTR sign$[rsp]
	mov	BYTE PTR [rcx+rax], 1
; Line 305
	mov	eax, 1
	imul	rax, rax, 1
	mov	rcx, QWORD PTR sign$[rsp]
	mov	BYTE PTR [rcx+rax], 43			; 0000002bH
$LN6@stbsp__lea:
$LN5@stbsp__lea:
$LN3@stbsp__lea:
; Line 307
	ret	0
?stbsp__lead_sign@@YAXIPEAD@Z ENDP			; stbsp__lead_sign
_TEXT	ENDS
; Function compile flags: /Odtp
_TEXT	SEGMENT
cn$1 = 0
b$ = 8
d$ = 16
bits$ = 48
expo$ = 56
value$ = 64
?stbsp__real_to_parts@@YAHPEA_JPEAHN@Z PROC		; stbsp__real_to_parts
; File W:\cpp\void\ktt-c\stb_sprintf.h
; Line 1492
	movsd	QWORD PTR [rsp+24], xmm2
	mov	QWORD PTR [rsp+16], rdx
	mov	QWORD PTR [rsp+8], rcx
	sub	rsp, 40					; 00000028H
; Line 1494
	mov	QWORD PTR b$[rsp], 0
; Line 1497
	movsd	xmm0, QWORD PTR value$[rsp]
	movsd	QWORD PTR d$[rsp], xmm0
; Line 1499
	mov	DWORD PTR cn$1[rsp], 0
	jmp	SHORT $LN4@stbsp__rea
$LN2@stbsp__rea:
	mov	eax, DWORD PTR cn$1[rsp]
	inc	eax
	mov	DWORD PTR cn$1[rsp], eax
$LN4@stbsp__rea:
	cmp	DWORD PTR cn$1[rsp], 8
	jge	SHORT $LN3@stbsp__rea
	movsxd	rax, DWORD PTR cn$1[rsp]
	movsxd	rcx, DWORD PTR cn$1[rsp]
	movzx	eax, BYTE PTR d$[rsp+rax]
	mov	BYTE PTR b$[rsp+rcx], al
	jmp	SHORT $LN2@stbsp__rea
$LN3@stbsp__rea:
; Line 1501
	mov	rax, 4503599627370495			; 000fffffffffffffH
	mov	rcx, QWORD PTR b$[rsp]
	and	rcx, rax
	mov	rax, rcx
	mov	rcx, QWORD PTR bits$[rsp]
	mov	QWORD PTR [rcx], rax
; Line 1502
	mov	rax, QWORD PTR b$[rsp]
	sar	rax, 52					; 00000034H
	and	rax, 2047				; 000007ffH
	sub	rax, 1023				; 000003ffH
	mov	rcx, QWORD PTR expo$[rsp]
	mov	DWORD PTR [rcx], eax
; Line 1504
	mov	rax, QWORD PTR b$[rsp]
	shr	rax, 63					; 0000003fH
; Line 1505
	add	rsp, 40					; 00000028H
	ret	0
?stbsp__real_to_parts@@YAHPEA_JPEAHN@Z ENDP		; stbsp__real_to_parts
_TEXT	ENDS
; Function compile flags: /Odtp
_TEXT	SEGMENT
bits$ = 32
tens$ = 40
e$ = 44
dg$1 = 48
cn$2 = 52
expo$ = 56
n$3 = 60
n$4 = 64
ng$ = 68
tv131 = 72
tv157 = 76
d$ = 80
ph$5 = 88
ahi$6 = 96
v$7 = 104
tv82 = 112
vh$8 = 120
t$9 = 128
r$10 = 136
alo$11 = 144
pl$12 = 152
o$13 = 160
start$ = 192
len$ = 200
out$ = 208
decimal_pos$ = 216
value$ = 224
frac_digits$ = 232
?stbsp__real_to_str@@YAHPEAPEBDPEAIPEADPEAHNI@Z PROC	; stbsp__real_to_str
; File W:\cpp\void\ktt-c\stb_sprintf.h
; Line 1706
	mov	QWORD PTR [rsp+32], r9
	mov	QWORD PTR [rsp+24], r8
	mov	QWORD PTR [rsp+16], rdx
	mov	QWORD PTR [rsp+8], rcx
	sub	rsp, 184				; 000000b8H
; Line 1708
	mov	QWORD PTR bits$[rsp], 0
; Line 1711
	movsd	xmm0, QWORD PTR value$[rsp]
	movsd	QWORD PTR d$[rsp], xmm0
; Line 1712
	mov	DWORD PTR cn$2[rsp], 0
	jmp	SHORT $LN4@stbsp__rea
$LN2@stbsp__rea:
	mov	eax, DWORD PTR cn$2[rsp]
	inc	eax
	mov	DWORD PTR cn$2[rsp], eax
$LN4@stbsp__rea:
	cmp	DWORD PTR cn$2[rsp], 8
	jge	SHORT $LN3@stbsp__rea
	movsxd	rax, DWORD PTR cn$2[rsp]
	movsxd	rcx, DWORD PTR cn$2[rsp]
	movzx	eax, BYTE PTR d$[rsp+rax]
	mov	BYTE PTR bits$[rsp+rcx], al
	jmp	SHORT $LN2@stbsp__rea
$LN3@stbsp__rea:
; Line 1713
	mov	rax, QWORD PTR bits$[rsp]
	sar	rax, 52					; 00000034H
	and	rax, 2047				; 000007ffH
	mov	DWORD PTR expo$[rsp], eax
; Line 1714
	mov	rax, QWORD PTR bits$[rsp]
	shr	rax, 63					; 0000003fH
	mov	DWORD PTR ng$[rsp], eax
; Line 1715
	cmp	DWORD PTR ng$[rsp], 0
	je	SHORT $LN21@stbsp__rea
; Line 1716
	movsd	xmm0, QWORD PTR d$[rsp]
	xorps	xmm0, QWORD PTR __xmm@80000000000000008000000000000000
	movsd	QWORD PTR d$[rsp], xmm0
$LN21@stbsp__rea:
; Line 1718
	cmp	DWORD PTR expo$[rsp], 2047		; 000007ffH
	jne	SHORT $LN22@stbsp__rea
; Line 1720
	mov	rax, 4503599627370495			; 000fffffffffffffH
	mov	rcx, QWORD PTR bits$[rsp]
	and	rcx, rax
	mov	rax, rcx
	test	rax, rax
	je	SHORT $LN43@stbsp__rea
	lea	rax, OFFSET FLAT:$SG42485
	mov	QWORD PTR tv82[rsp], rax
	jmp	SHORT $LN44@stbsp__rea
$LN43@stbsp__rea:
	lea	rax, OFFSET FLAT:$SG42486
	mov	QWORD PTR tv82[rsp], rax
$LN44@stbsp__rea:
	mov	rax, QWORD PTR start$[rsp]
	mov	rcx, QWORD PTR tv82[rsp]
	mov	QWORD PTR [rax], rcx
; Line 1721
	mov	rax, QWORD PTR decimal_pos$[rsp]
	mov	DWORD PTR [rax], 28672			; 00007000H
; Line 1722
	mov	rax, QWORD PTR len$[rsp]
	mov	DWORD PTR [rax], 3
; Line 1723
	mov	eax, DWORD PTR ng$[rsp]
	jmp	$LN1@stbsp__rea
$LN22@stbsp__rea:
; Line 1726
	cmp	DWORD PTR expo$[rsp], 0
	jne	$LN23@stbsp__rea
; Line 1728
	mov	rax, QWORD PTR bits$[rsp]
	shl	rax, 1
	test	rax, rax
	jne	SHORT $LN24@stbsp__rea
; Line 1730
	mov	rax, QWORD PTR decimal_pos$[rsp]
	mov	DWORD PTR [rax], 1
; Line 1731
	mov	rax, QWORD PTR start$[rsp]
	mov	rcx, QWORD PTR out$[rsp]
	mov	QWORD PTR [rax], rcx
; Line 1732
	mov	eax, 1
	imul	rax, rax, 0
	mov	rcx, QWORD PTR out$[rsp]
	mov	BYTE PTR [rcx+rax], 48			; 00000030H
; Line 1733
	mov	rax, QWORD PTR len$[rsp]
	mov	DWORD PTR [rax], 1
; Line 1734
	mov	eax, DWORD PTR ng$[rsp]
	jmp	$LN1@stbsp__rea
$LN24@stbsp__rea:
; Line 1738
	mov	rax, 2251799813685248			; 0008000000000000H
	mov	QWORD PTR v$7[rsp], rax
$LN5@stbsp__rea:
; Line 1739
	mov	rax, QWORD PTR v$7[rsp]
	mov	rcx, QWORD PTR bits$[rsp]
	and	rcx, rax
	mov	rax, rcx
	test	rax, rax
	jne	SHORT $LN6@stbsp__rea
; Line 1740
	mov	eax, DWORD PTR expo$[rsp]
	dec	eax
	mov	DWORD PTR expo$[rsp], eax
; Line 1741
	mov	rax, QWORD PTR v$7[rsp]
	sar	rax, 1
	mov	QWORD PTR v$7[rsp], rax
; Line 1742
	jmp	SHORT $LN5@stbsp__rea
$LN6@stbsp__rea:
$LN23@stbsp__rea:
; Line 1751
	mov	eax, DWORD PTR expo$[rsp]
	sub	eax, 1023				; 000003ffH
	mov	DWORD PTR tens$[rsp], eax
; Line 1752
	cmp	DWORD PTR tens$[rsp], 0
	jge	SHORT $LN45@stbsp__rea
	imul	eax, DWORD PTR tens$[rsp], 617		; 00000269H
	cdq
	and	edx, 2047				; 000007ffH
	add	eax, edx
	sar	eax, 11
	mov	DWORD PTR tv131[rsp], eax
	jmp	SHORT $LN46@stbsp__rea
$LN45@stbsp__rea:
	imul	eax, DWORD PTR tens$[rsp], 1233		; 000004d1H
	cdq
	and	edx, 4095				; 00000fffH
	add	eax, edx
	sar	eax, 12
	inc	eax
	mov	DWORD PTR tv131[rsp], eax
$LN46@stbsp__rea:
	mov	eax, DWORD PTR tv131[rsp]
	mov	DWORD PTR tens$[rsp], eax
; Line 1755
	mov	eax, 18
	sub	eax, DWORD PTR tens$[rsp]
	mov	r9d, eax
	movsd	xmm2, QWORD PTR d$[rsp]
	lea	rdx, QWORD PTR pl$12[rsp]
	lea	rcx, QWORD PTR ph$5[rsp]
	call	?stbsp__raise_to_power10@@YAXPEAN0NH@Z	; stbsp__raise_to_power10
; Line 1758
	xorps	xmm0, xmm0
	movsd	QWORD PTR ahi$6[rsp], xmm0
	cvttsd2si rax, QWORD PTR ph$5[rsp]
	mov	QWORD PTR bits$[rsp], rax
	cvtsi2sd xmm0, QWORD PTR bits$[rsp]
	movsd	QWORD PTR vh$8[rsp], xmm0
	movsd	xmm0, QWORD PTR ph$5[rsp]
	subsd	xmm0, QWORD PTR vh$8[rsp]
	movsd	QWORD PTR ahi$6[rsp], xmm0
	movsd	xmm0, QWORD PTR ahi$6[rsp]
	subsd	xmm0, QWORD PTR ph$5[rsp]
	movsd	QWORD PTR t$9[rsp], xmm0
	movsd	xmm0, QWORD PTR ahi$6[rsp]
	subsd	xmm0, QWORD PTR t$9[rsp]
	movsd	xmm1, QWORD PTR ph$5[rsp]
	subsd	xmm1, xmm0
	movaps	xmm0, xmm1
	movsd	xmm1, QWORD PTR vh$8[rsp]
	addsd	xmm1, QWORD PTR t$9[rsp]
	subsd	xmm0, xmm1
	movsd	QWORD PTR alo$11[rsp], xmm0
	movsd	xmm0, QWORD PTR ahi$6[rsp]
	addsd	xmm0, QWORD PTR alo$11[rsp]
	addsd	xmm0, QWORD PTR pl$12[rsp]
	cvttsd2si rax, xmm0
	mov	rcx, QWORD PTR bits$[rsp]
	add	rcx, rax
	mov	rax, rcx
	mov	QWORD PTR bits$[rsp], rax
; Line 1761
	mov	rax, 1000000000000000000		; 0de0b6b3a7640000H
	cmp	QWORD PTR bits$[rsp], rax
	jb	SHORT $LN25@stbsp__rea
; Line 1762
	mov	eax, DWORD PTR tens$[rsp]
	inc	eax
	mov	DWORD PTR tens$[rsp], eax
$LN25@stbsp__rea:
; Line 1766
	mov	eax, DWORD PTR frac_digits$[rsp]
	and	eax, -2147483648			; 80000000H
	test	eax, eax
	je	SHORT $LN47@stbsp__rea
	mov	eax, DWORD PTR frac_digits$[rsp]
	and	eax, 134217727				; 07ffffffH
	inc	eax
	mov	DWORD PTR tv157[rsp], eax
	jmp	SHORT $LN48@stbsp__rea
$LN47@stbsp__rea:
	mov	eax, DWORD PTR frac_digits$[rsp]
	mov	ecx, DWORD PTR tens$[rsp]
	add	ecx, eax
	mov	eax, ecx
	mov	DWORD PTR tv157[rsp], eax
$LN48@stbsp__rea:
	mov	eax, DWORD PTR tv157[rsp]
	mov	DWORD PTR frac_digits$[rsp], eax
; Line 1767
	cmp	DWORD PTR frac_digits$[rsp], 24
	jae	$LN26@stbsp__rea
; Line 1768
	mov	DWORD PTR dg$1[rsp], 1
; Line 1769
	mov	eax, 8
	imul	rax, rax, 9
	lea	rcx, OFFSET FLAT:?stbsp__powten@@3QB_KB
	mov	rax, QWORD PTR [rcx+rax]
	cmp	QWORD PTR bits$[rsp], rax
	jb	SHORT $LN27@stbsp__rea
; Line 1770
	mov	DWORD PTR dg$1[rsp], 10
$LN27@stbsp__rea:
$LN7@stbsp__rea:
; Line 1771
	mov	eax, DWORD PTR dg$1[rsp]
	lea	rcx, OFFSET FLAT:?stbsp__powten@@3QB_KB
	mov	rax, QWORD PTR [rcx+rax*8]
	cmp	QWORD PTR bits$[rsp], rax
	jb	SHORT $LN8@stbsp__rea
; Line 1772
	mov	eax, DWORD PTR dg$1[rsp]
	inc	eax
	mov	DWORD PTR dg$1[rsp], eax
; Line 1773
	cmp	DWORD PTR dg$1[rsp], 20
	jne	SHORT $LN28@stbsp__rea
; Line 1774
	jmp	$LN29@stbsp__rea
	jmp	$noround$49
$LN28@stbsp__rea:
; Line 1775
	jmp	SHORT $LN7@stbsp__rea
$LN8@stbsp__rea:
; Line 1776
	mov	eax, DWORD PTR dg$1[rsp]
	cmp	DWORD PTR frac_digits$[rsp], eax
	jae	$LN30@stbsp__rea
; Line 1779
	mov	eax, DWORD PTR frac_digits$[rsp]
	mov	ecx, DWORD PTR dg$1[rsp]
	sub	ecx, eax
	mov	eax, ecx
	mov	DWORD PTR e$[rsp], eax
; Line 1780
	cmp	DWORD PTR e$[rsp], 24
	jb	SHORT $LN31@stbsp__rea
; Line 1781
	jmp	SHORT $LN32@stbsp__rea
	jmp	SHORT $noround$49
$LN31@stbsp__rea:
; Line 1782
	movsxd	rax, DWORD PTR e$[rsp]
	lea	rcx, OFFSET FLAT:?stbsp__powten@@3QB_KB
	mov	rax, QWORD PTR [rcx+rax*8]
	mov	QWORD PTR r$10[rsp], rax
; Line 1783
	xor	edx, edx
	mov	rax, QWORD PTR r$10[rsp]
	mov	ecx, 2
	div	rcx
	mov	rcx, QWORD PTR bits$[rsp]
	add	rcx, rax
	mov	rax, rcx
	mov	QWORD PTR bits$[rsp], rax
; Line 1784
	mov	eax, DWORD PTR dg$1[rsp]
	lea	rcx, OFFSET FLAT:?stbsp__powten@@3QB_KB
	mov	rax, QWORD PTR [rcx+rax*8]
	cmp	QWORD PTR bits$[rsp], rax
	jb	SHORT $LN33@stbsp__rea
; Line 1785
	mov	eax, DWORD PTR tens$[rsp]
	inc	eax
	mov	DWORD PTR tens$[rsp], eax
$LN33@stbsp__rea:
; Line 1786
	xor	edx, edx
	mov	rax, QWORD PTR bits$[rsp]
	div	QWORD PTR r$10[rsp]
	mov	QWORD PTR bits$[rsp], rax
$LN30@stbsp__rea:
$LN29@stbsp__rea:
$LN32@stbsp__rea:
$noround$49:
$LN26@stbsp__rea:
; Line 1792
	cmp	QWORD PTR bits$[rsp], 0
	je	SHORT $LN34@stbsp__rea
$LN9@stbsp__rea:
; Line 1795
	mov	eax, -1
	cmp	QWORD PTR bits$[rsp], rax
	jg	SHORT $LN35@stbsp__rea
; Line 1796
	jmp	SHORT $LN10@stbsp__rea
$LN35@stbsp__rea:
; Line 1797
	mov	rax, QWORD PTR bits$[rsp]
	cdq
	mov	ecx, 1000				; 000003e8H
	idiv	rcx
	mov	rax, rdx
	test	rax, rax
	je	SHORT $LN36@stbsp__rea
; Line 1798
	jmp	SHORT $LN37@stbsp__rea
	jmp	SHORT $donez$50
$LN36@stbsp__rea:
; Line 1799
	mov	rax, QWORD PTR bits$[rsp]
	cdq
	mov	ecx, 1000				; 000003e8H
	idiv	rcx
	mov	QWORD PTR bits$[rsp], rax
; Line 1800
	jmp	SHORT $LN9@stbsp__rea
$LN10@stbsp__rea:
; Line 1801
	mov	eax, DWORD PTR bits$[rsp]
	mov	DWORD PTR n$4[rsp], eax
$LN12@stbsp__rea:
; Line 1802
	xor	edx, edx
	mov	eax, DWORD PTR n$4[rsp]
	mov	ecx, 1000				; 000003e8H
	div	ecx
	mov	eax, edx
	test	eax, eax
	jne	SHORT $LN13@stbsp__rea
; Line 1803
	xor	edx, edx
	mov	eax, DWORD PTR n$4[rsp]
	mov	ecx, 1000				; 000003e8H
	div	ecx
	mov	DWORD PTR n$4[rsp], eax
	jmp	SHORT $LN12@stbsp__rea
$LN13@stbsp__rea:
; Line 1804
	mov	eax, DWORD PTR n$4[rsp]
	mov	QWORD PTR bits$[rsp], rax
$LN37@stbsp__rea:
$donez$50:
$LN34@stbsp__rea:
; Line 1809
	mov	rax, QWORD PTR out$[rsp]
	add	rax, 64					; 00000040H
	mov	QWORD PTR out$[rsp], rax
; Line 1810
	mov	DWORD PTR e$[rsp], 0
$LN14@stbsp__rea:
; Line 1813
	mov	rax, QWORD PTR out$[rsp]
	sub	rax, 8
	mov	QWORD PTR o$13[rsp], rax
; Line 1815
	cmp	QWORD PTR bits$[rsp], 100000000		; 05f5e100H
	jl	SHORT $LN38@stbsp__rea
; Line 1816
	mov	rax, QWORD PTR bits$[rsp]
	cdq
	mov	ecx, 100000000				; 05f5e100H
	idiv	rcx
	mov	rax, rdx
	mov	DWORD PTR n$3[rsp], eax
; Line 1817
	mov	rax, QWORD PTR bits$[rsp]
	cdq
	mov	ecx, 100000000				; 05f5e100H
	idiv	rcx
	mov	QWORD PTR bits$[rsp], rax
; Line 1818
	jmp	SHORT $LN39@stbsp__rea
$LN38@stbsp__rea:
; Line 1819
	mov	eax, DWORD PTR bits$[rsp]
	mov	DWORD PTR n$3[rsp], eax
; Line 1820
	mov	QWORD PTR bits$[rsp], 0
$LN39@stbsp__rea:
$LN17@stbsp__rea:
; Line 1822
	cmp	DWORD PTR n$3[rsp], 0
	je	SHORT $LN18@stbsp__rea
; Line 1823
	mov	rax, QWORD PTR out$[rsp]
	sub	rax, 2
	mov	QWORD PTR out$[rsp], rax
; Line 1824
	xor	edx, edx
	mov	eax, DWORD PTR n$3[rsp]
	mov	ecx, 100				; 00000064H
	div	ecx
	mov	eax, edx
	shl	eax, 1
	mov	eax, eax
	lea	rcx, OFFSET FLAT:?stbsp__digitpair@@3U<unnamed-type-stbsp__digitpair>@@A+2
	mov	rdx, QWORD PTR out$[rsp]
	movzx	eax, WORD PTR [rcx+rax]
	mov	WORD PTR [rdx], ax
; Line 1825
	xor	edx, edx
	mov	eax, DWORD PTR n$3[rsp]
	mov	ecx, 100				; 00000064H
	div	ecx
	mov	DWORD PTR n$3[rsp], eax
; Line 1826
	mov	eax, DWORD PTR e$[rsp]
	add	eax, 2
	mov	DWORD PTR e$[rsp], eax
; Line 1827
	jmp	SHORT $LN17@stbsp__rea
$LN18@stbsp__rea:
; Line 1828
	cmp	QWORD PTR bits$[rsp], 0
	jne	SHORT $LN40@stbsp__rea
; Line 1829
	cmp	DWORD PTR e$[rsp], 0
	je	SHORT $LN41@stbsp__rea
	mov	eax, 1
	imul	rax, rax, 0
	mov	rcx, QWORD PTR out$[rsp]
	movsx	eax, BYTE PTR [rcx+rax]
	cmp	eax, 48					; 00000030H
	jne	SHORT $LN41@stbsp__rea
; Line 1830
	mov	rax, QWORD PTR out$[rsp]
	inc	rax
	mov	QWORD PTR out$[rsp], rax
; Line 1831
	mov	eax, DWORD PTR e$[rsp]
	dec	eax
	mov	DWORD PTR e$[rsp], eax
$LN41@stbsp__rea:
; Line 1833
	jmp	SHORT $LN15@stbsp__rea
$LN40@stbsp__rea:
$LN19@stbsp__rea:
; Line 1835
	mov	rax, QWORD PTR o$13[rsp]
	cmp	QWORD PTR out$[rsp], rax
	je	SHORT $LN20@stbsp__rea
; Line 1836
	mov	rax, QWORD PTR out$[rsp]
	dec	rax
	mov	QWORD PTR out$[rsp], rax
	mov	rax, QWORD PTR out$[rsp]
	mov	BYTE PTR [rax], 48			; 00000030H
; Line 1837
	mov	eax, DWORD PTR e$[rsp]
	inc	eax
	mov	DWORD PTR e$[rsp], eax
; Line 1838
	jmp	SHORT $LN19@stbsp__rea
$LN20@stbsp__rea:
; Line 1839
	jmp	$LN14@stbsp__rea
$LN15@stbsp__rea:
; Line 1841
	mov	rax, QWORD PTR decimal_pos$[rsp]
	mov	ecx, DWORD PTR tens$[rsp]
	mov	DWORD PTR [rax], ecx
; Line 1842
	mov	rax, QWORD PTR start$[rsp]
	mov	rcx, QWORD PTR out$[rsp]
	mov	QWORD PTR [rax], rcx
; Line 1843
	mov	rax, QWORD PTR len$[rsp]
	mov	ecx, DWORD PTR e$[rsp]
	mov	DWORD PTR [rax], ecx
; Line 1844
	mov	eax, DWORD PTR ng$[rsp]
$LN1@stbsp__rea:
; Line 1845
	add	rsp, 184				; 000000b8H
	ret	0
?stbsp__real_to_str@@YAHPEAPEBDPEAIPEADPEAHNI@Z ENDP	; stbsp__real_to_str
_TEXT	ENDS
; Function compile flags: /Odtp
_TEXT	SEGMENT
pcomma$ = 8
pperiod$ = 16
stbsp_set_separators PROC
; File W:\cpp\void\ktt-c\stb_sprintf.h
; Line 275
	mov	BYTE PTR [rsp+16], dl
	mov	BYTE PTR [rsp+8], cl
; Line 276
	movzx	eax, BYTE PTR pperiod$[rsp]
	mov	BYTE PTR ?stbsp__period@@3DA, al
; Line 277
	movzx	eax, BYTE PTR pcomma$[rsp]
	mov	BYTE PTR ?stbsp__comma@@3DA, al
; Line 278
	ret	0
stbsp_set_separators ENDP
_TEXT	ENDS
; Function compile flags: /Odtp
_TEXT	SEGMENT
fl$1 = 48
pr$2 = 52
n$3 = 56
s$4 = 64
l$5 = 72
bf$ = 80
dp$6 = 88
idx$7 = 92
f$ = 96
cs$8 = 104
i$9 = 108
tlen$ = 112
fw$10 = 116
n64$11 = 120
i$12 = 128
sn$13 = 136
i$14 = 144
i$15 = 148
tz$16 = 152
i$17 = 156
tv638 = 160
tv1045 = 161
tv1134 = 162
tv1197 = 163
tv1268 = 164
i$18 = 168
i$19 = 172
fv$20 = 176
h$21 = 184
tv143 = 192
tv230 = 196
v$22 = 200
tv277 = 204
len$23 = 208
c$24 = 212
len$25 = 216
len$26 = 220
len$27 = 224
len$28 = 228
len$29 = 232
len$30 = 236
len$31 = 240
i$32 = 244
len$33 = 248
len$34 = 252
tv440 = 256
tv441 = 260
tv505 = 264
tv508 = 268
tv568 = 272
tv646 = 276
tv822 = 280
tv890 = 284
tv983 = 288
lg$35 = 292
lg$36 = 296
tv1068 = 300
lg$37 = 304
lg$38 = 308
lg$39 = 312
lg$40 = 316
tv442 = 320
lg$41 = 324
c$42 = 328
tv178 = 332
tv210 = 336
tv288 = 340
lg$43 = 344
tv305 = 348
tv347 = 352
o$44 = 360
divisor$45 = 368
tv1973 = 376
tv926 = 380
tv949 = 384
i64$46 = 392
tv1092 = 400
tv1091 = 404
tv1303 = 408
tv420 = 412
$T47 = 416
$T48 = 424
tv284 = 432
$T49 = 440
$T50 = 448
$T51 = 456
$T52 = 464
tv319 = 472
tv327 = 480
tv334 = 488
tv464 = 496
tv471 = 504
tv514 = 512
tv521 = 520
$T53 = 528
tv586 = 536
$T54 = 544
tv764 = 552
$T55 = 560
$T56 = 568
tv793 = 576
$T57 = 584
tv815 = 592
$T58 = 600
$T59 = 608
tv876 = 616
$T60 = 624
tv85 = 632
d$61 = 640
tv1612 = 648
tv1018 = 656
tv1058 = 664
tv1107 = 672
tv1147 = 680
tv1210 = 688
tv1241 = 696
tv1281 = 704
tv1316 = 712
tv1342 = 720
lead$62 = 728
tail$63 = 736
num$64 = 752
__$ArrayPad$ = 1280
callback$ = 1312
user$ = 1320
buf$ = 1328
fmt$ = 1336
va$ = 1344
stbsp_vsprintfcb PROC
; File W:\cpp\void\ktt-c\stb_sprintf.h
; Line 350
$LN461:
	mov	QWORD PTR [rsp+32], r9
	mov	QWORD PTR [rsp+24], r8
	mov	QWORD PTR [rsp+16], rdx
	mov	QWORD PTR [rsp+8], rcx
	sub	rsp, 1304				; 00000518H
	mov	rax, QWORD PTR __security_cookie
	xor	rax, rsp
	mov	QWORD PTR __$ArrayPad$[rsp], rax
; Line 355
	mov	DWORD PTR tlen$[rsp], 0
; Line 357
	mov	rax, QWORD PTR buf$[rsp]
	mov	QWORD PTR bf$[rsp], rax
; Line 358
	mov	rax, QWORD PTR fmt$[rsp]
	mov	QWORD PTR f$[rsp], rax
$LN2@stbsp_vspr:
$LN5@stbsp_vspr:
$LN8@stbsp_vspr:
; Line 393
	mov	rax, QWORD PTR f$[rsp]
	and	rax, 3
	test	rax, rax
	je	$LN9@stbsp_vspr
$schk1$462:
; Line 395
	mov	eax, 1
	imul	rax, rax, 0
	mov	rcx, QWORD PTR f$[rsp]
	movsx	eax, BYTE PTR [rcx+rax]
	cmp	eax, 37					; 00000025H
	jne	SHORT $LN126@stbsp_vspr
; Line 396
	jmp	$LN127@stbsp_vspr
	jmp	$scandd$463
$LN126@stbsp_vspr:
$schk2$464:
; Line 398
	mov	eax, 1
	imul	rax, rax, 0
	mov	rcx, QWORD PTR f$[rsp]
	movsx	eax, BYTE PTR [rcx+rax]
	test	eax, eax
	jne	SHORT $LN128@stbsp_vspr
; Line 399
	jmp	$LN129@stbsp_vspr
	jmp	$endfmt$465
$LN128@stbsp_vspr:
; Line 400
	cmp	QWORD PTR callback$[rsp], 0
	je	$LN130@stbsp_vspr
	mov	rax, QWORD PTR buf$[rsp]
	mov	rcx, QWORD PTR bf$[rsp]
	sub	rcx, rax
	mov	rax, rcx
	mov	DWORD PTR len$31[rsp], eax
	mov	eax, DWORD PTR len$31[rsp]
	inc	eax
	cmp	eax, 512				; 00000200H
	jl	SHORT $LN131@stbsp_vspr
	mov	eax, DWORD PTR len$31[rsp]
	mov	ecx, DWORD PTR tlen$[rsp]
	add	ecx, eax
	mov	eax, ecx
	mov	DWORD PTR tlen$[rsp], eax
	mov	rax, QWORD PTR callback$[rsp]
	mov	QWORD PTR tv85[rsp], rax
	mov	r8d, DWORD PTR len$31[rsp]
	mov	rdx, QWORD PTR user$[rsp]
	mov	rcx, QWORD PTR buf$[rsp]
	call	QWORD PTR tv85[rsp]
	mov	QWORD PTR buf$[rsp], rax
	mov	rax, QWORD PTR buf$[rsp]
	mov	QWORD PTR bf$[rsp], rax
	cmp	QWORD PTR bf$[rsp], 0
	jne	SHORT $LN132@stbsp_vspr
	jmp	$LN133@stbsp_vspr
	jmp	$done$466
$LN132@stbsp_vspr:
$LN131@stbsp_vspr:
$LN130@stbsp_vspr:
; Line 401
	mov	eax, 1
	imul	rax, rax, 0
	mov	rcx, QWORD PTR bf$[rsp]
	mov	rdx, QWORD PTR f$[rsp]
	movzx	eax, BYTE PTR [rdx+rax]
	mov	BYTE PTR [rcx], al
	mov	rax, QWORD PTR bf$[rsp]
	inc	rax
	mov	QWORD PTR bf$[rsp], rax
; Line 402
	mov	rax, QWORD PTR f$[rsp]
	inc	rax
	mov	QWORD PTR f$[rsp], rax
; Line 403
	jmp	$LN8@stbsp_vspr
$LN9@stbsp_vspr:
$LN10@stbsp_vspr:
; Line 409
	mov	rax, QWORD PTR f$[rsp]
	mov	eax, DWORD PTR [rax]
	mov	DWORD PTR v$22[rsp], eax
; Line 410
	mov	eax, DWORD PTR v$22[rsp]
	not	eax
	and	eax, -2139062144			; 80808080H
	mov	DWORD PTR c$42[rsp], eax
; Line 411
	mov	eax, DWORD PTR v$22[rsp]
	xor	eax, 623191333				; 25252525H
	sub	eax, 16843009				; 01010101H
	and	eax, DWORD PTR c$42[rsp]
	test	eax, eax
	je	SHORT $LN134@stbsp_vspr
; Line 412
	jmp	$schk1$462
$LN134@stbsp_vspr:
; Line 413
	mov	eax, DWORD PTR v$22[rsp]
	sub	eax, 16843009				; 01010101H
	and	eax, DWORD PTR c$42[rsp]
	test	eax, eax
	je	SHORT $LN135@stbsp_vspr
; Line 414
	jmp	$schk2$464
$LN135@stbsp_vspr:
; Line 415
	cmp	QWORD PTR callback$[rsp], 0
	je	SHORT $LN136@stbsp_vspr
; Line 416
	mov	rax, QWORD PTR buf$[rsp]
	mov	rcx, QWORD PTR bf$[rsp]
	sub	rcx, rax
	mov	rax, rcx
	mov	ecx, 512				; 00000200H
	sub	ecx, eax
	mov	eax, ecx
	cmp	eax, 4
	jge	SHORT $LN137@stbsp_vspr
; Line 417
	jmp	$schk1$462
$LN137@stbsp_vspr:
$LN136@stbsp_vspr:
; Line 427
	mov	rax, QWORD PTR bf$[rsp]
	mov	ecx, DWORD PTR v$22[rsp]
	mov	DWORD PTR [rax], ecx
; Line 429
	mov	rax, QWORD PTR bf$[rsp]
	add	rax, 4
	mov	QWORD PTR bf$[rsp], rax
; Line 430
	mov	rax, QWORD PTR f$[rsp]
	add	rax, 4
	mov	QWORD PTR f$[rsp], rax
; Line 431
	jmp	$LN10@stbsp_vspr
; Line 432
	jmp	$LN5@stbsp_vspr
$LN127@stbsp_vspr:
$scandd$463:
; Line 435
	mov	rax, QWORD PTR f$[rsp]
	inc	rax
	mov	QWORD PTR f$[rsp], rax
; Line 438
	mov	DWORD PTR fw$10[rsp], 0
; Line 439
	mov	DWORD PTR pr$2[rsp], -1
; Line 440
	mov	DWORD PTR fl$1[rsp], 0
; Line 441
	mov	DWORD PTR tz$16[rsp], 0
$LN13@stbsp_vspr:
; Line 445
	mov	eax, 1
	imul	rax, rax, 0
	mov	rcx, QWORD PTR f$[rsp]
	movsx	eax, BYTE PTR [rcx+rax]
	mov	DWORD PTR tv143[rsp], eax
	mov	eax, DWORD PTR tv143[rsp]
	sub	eax, 32					; 00000020H
	mov	DWORD PTR tv143[rsp], eax
	cmp	DWORD PTR tv143[rsp], 63		; 0000003fH
	ja	$LN151@stbsp_vspr
	movsxd	rax, DWORD PTR tv143[rsp]
	lea	rcx, OFFSET FLAT:__ImageBase
	movzx	eax, BYTE PTR $LN459@stbsp_vspr[rcx+rax]
	mov	eax, DWORD PTR $LN460@stbsp_vspr[rcx+rax*4]
	add	rax, rcx
	jmp	rax
$LN138@stbsp_vspr:
; Line 448
	mov	eax, DWORD PTR fl$1[rsp]
	or	eax, 1
	mov	DWORD PTR fl$1[rsp], eax
; Line 449
	mov	rax, QWORD PTR f$[rsp]
	inc	rax
	mov	QWORD PTR f$[rsp], rax
; Line 450
	jmp	SHORT $LN13@stbsp_vspr
$LN139@stbsp_vspr:
; Line 453
	mov	eax, DWORD PTR fl$1[rsp]
	or	eax, 2
	mov	DWORD PTR fl$1[rsp], eax
; Line 454
	mov	rax, QWORD PTR f$[rsp]
	inc	rax
	mov	QWORD PTR f$[rsp], rax
; Line 455
	jmp	$LN13@stbsp_vspr
$LN140@stbsp_vspr:
; Line 458
	mov	eax, DWORD PTR fl$1[rsp]
	or	eax, 4
	mov	DWORD PTR fl$1[rsp], eax
; Line 459
	mov	rax, QWORD PTR f$[rsp]
	inc	rax
	mov	QWORD PTR f$[rsp], rax
; Line 460
	jmp	$LN13@stbsp_vspr
$LN141@stbsp_vspr:
; Line 463
	mov	eax, DWORD PTR fl$1[rsp]
	or	eax, 8
	mov	DWORD PTR fl$1[rsp], eax
; Line 464
	mov	rax, QWORD PTR f$[rsp]
	inc	rax
	mov	QWORD PTR f$[rsp], rax
; Line 465
	jmp	$LN13@stbsp_vspr
$LN142@stbsp_vspr:
; Line 468
	mov	eax, DWORD PTR fl$1[rsp]
	or	eax, 64					; 00000040H
	mov	DWORD PTR fl$1[rsp], eax
; Line 469
	mov	rax, QWORD PTR f$[rsp]
	inc	rax
	mov	QWORD PTR f$[rsp], rax
; Line 470
	jmp	$LN13@stbsp_vspr
$LN143@stbsp_vspr:
; Line 473
	mov	eax, DWORD PTR fl$1[rsp]
	and	eax, 256				; 00000100H
	test	eax, eax
	je	SHORT $LN144@stbsp_vspr
; Line 474
	mov	eax, DWORD PTR fl$1[rsp]
	and	eax, 2048				; 00000800H
	test	eax, eax
	je	SHORT $LN146@stbsp_vspr
; Line 475
	mov	eax, DWORD PTR fl$1[rsp]
	bts	eax, 12
	mov	DWORD PTR fl$1[rsp], eax
; Line 476
	jmp	SHORT $LN147@stbsp_vspr
$LN146@stbsp_vspr:
; Line 477
	mov	eax, DWORD PTR fl$1[rsp]
	bts	eax, 11
	mov	DWORD PTR fl$1[rsp], eax
$LN147@stbsp_vspr:
; Line 479
	jmp	SHORT $LN145@stbsp_vspr
$LN144@stbsp_vspr:
; Line 480
	mov	eax, DWORD PTR fl$1[rsp]
	bts	eax, 8
	mov	DWORD PTR fl$1[rsp], eax
$LN145@stbsp_vspr:
; Line 482
	mov	rax, QWORD PTR f$[rsp]
	inc	rax
	mov	QWORD PTR f$[rsp], rax
; Line 483
	jmp	$LN13@stbsp_vspr
$LN148@stbsp_vspr:
; Line 486
	mov	eax, DWORD PTR fl$1[rsp]
	bts	eax, 10
	mov	DWORD PTR fl$1[rsp], eax
; Line 487
	mov	rax, QWORD PTR f$[rsp]
	inc	rax
	mov	QWORD PTR f$[rsp], rax
; Line 488
	jmp	$LN13@stbsp_vspr
$LN149@stbsp_vspr:
; Line 491
	mov	eax, DWORD PTR fl$1[rsp]
	or	eax, 16
	mov	DWORD PTR fl$1[rsp], eax
; Line 492
	mov	rax, QWORD PTR f$[rsp]
	inc	rax
	mov	QWORD PTR f$[rsp], rax
; Line 493
	jmp	SHORT $LN150@stbsp_vspr
	jmp	SHORT $flags_done$467
$LN151@stbsp_vspr:
; Line 494
	jmp	SHORT $LN152@stbsp_vspr
	jmp	SHORT $flags_done$467
; Line 496
	jmp	$LN13@stbsp_vspr
$LN150@stbsp_vspr:
$LN152@stbsp_vspr:
$flags_done$467:
; Line 500
	mov	eax, 1
	imul	rax, rax, 0
	mov	rcx, QWORD PTR f$[rsp]
	movsx	eax, BYTE PTR [rcx+rax]
	cmp	eax, 42					; 0000002aH
	jne	SHORT $LN153@stbsp_vspr
; Line 501
	xor	eax, eax
	test	eax, eax
	je	SHORT $LN369@stbsp_vspr
	mov	rax, QWORD PTR va$[rsp]
	add	rax, 8
	mov	QWORD PTR va$[rsp], rax
	mov	rax, QWORD PTR va$[rsp]
	mov	rax, QWORD PTR [rax-8]
	mov	eax, DWORD PTR [rax]
	mov	DWORD PTR tv178[rsp], eax
	jmp	SHORT $LN370@stbsp_vspr
$LN369@stbsp_vspr:
	mov	rax, QWORD PTR va$[rsp]
	add	rax, 8
	mov	QWORD PTR va$[rsp], rax
	mov	rax, QWORD PTR va$[rsp]
	mov	eax, DWORD PTR [rax-8]
	mov	DWORD PTR tv178[rsp], eax
$LN370@stbsp_vspr:
	mov	eax, DWORD PTR tv178[rsp]
	mov	DWORD PTR fw$10[rsp], eax
; Line 502
	mov	rax, QWORD PTR f$[rsp]
	inc	rax
	mov	QWORD PTR f$[rsp], rax
; Line 503
	jmp	SHORT $LN154@stbsp_vspr
$LN153@stbsp_vspr:
$LN18@stbsp_vspr:
; Line 504
	mov	eax, 1
	imul	rax, rax, 0
	mov	rcx, QWORD PTR f$[rsp]
	movsx	eax, BYTE PTR [rcx+rax]
	cmp	eax, 48					; 00000030H
	jl	SHORT $LN19@stbsp_vspr
	mov	eax, 1
	imul	rax, rax, 0
	mov	rcx, QWORD PTR f$[rsp]
	movsx	eax, BYTE PTR [rcx+rax]
	cmp	eax, 57					; 00000039H
	jg	SHORT $LN19@stbsp_vspr
; Line 505
	imul	eax, DWORD PTR fw$10[rsp], 10
	mov	ecx, 1
	imul	rcx, rcx, 0
	mov	rdx, QWORD PTR f$[rsp]
	movsx	ecx, BYTE PTR [rdx+rcx]
	lea	eax, DWORD PTR [rax+rcx-48]
	mov	DWORD PTR fw$10[rsp], eax
; Line 506
	mov	rax, QWORD PTR f$[rsp]
	inc	rax
	mov	QWORD PTR f$[rsp], rax
; Line 507
	jmp	SHORT $LN18@stbsp_vspr
$LN19@stbsp_vspr:
$LN154@stbsp_vspr:
; Line 510
	mov	eax, 1
	imul	rax, rax, 0
	mov	rcx, QWORD PTR f$[rsp]
	movsx	eax, BYTE PTR [rcx+rax]
	cmp	eax, 46					; 0000002eH
	jne	$LN155@stbsp_vspr
; Line 511
	mov	rax, QWORD PTR f$[rsp]
	inc	rax
	mov	QWORD PTR f$[rsp], rax
; Line 512
	mov	eax, 1
	imul	rax, rax, 0
	mov	rcx, QWORD PTR f$[rsp]
	movsx	eax, BYTE PTR [rcx+rax]
	cmp	eax, 42					; 0000002aH
	jne	SHORT $LN156@stbsp_vspr
; Line 513
	xor	eax, eax
	test	eax, eax
	je	SHORT $LN371@stbsp_vspr
	mov	rax, QWORD PTR va$[rsp]
	add	rax, 8
	mov	QWORD PTR va$[rsp], rax
	mov	rax, QWORD PTR va$[rsp]
	mov	rax, QWORD PTR [rax-8]
	mov	eax, DWORD PTR [rax]
	mov	DWORD PTR tv210[rsp], eax
	jmp	SHORT $LN372@stbsp_vspr
$LN371@stbsp_vspr:
	mov	rax, QWORD PTR va$[rsp]
	add	rax, 8
	mov	QWORD PTR va$[rsp], rax
	mov	rax, QWORD PTR va$[rsp]
	mov	eax, DWORD PTR [rax-8]
	mov	DWORD PTR tv210[rsp], eax
$LN372@stbsp_vspr:
	mov	eax, DWORD PTR tv210[rsp]
	mov	DWORD PTR pr$2[rsp], eax
; Line 514
	mov	rax, QWORD PTR f$[rsp]
	inc	rax
	mov	QWORD PTR f$[rsp], rax
; Line 515
	jmp	SHORT $LN157@stbsp_vspr
$LN156@stbsp_vspr:
; Line 516
	mov	DWORD PTR pr$2[rsp], 0
$LN20@stbsp_vspr:
; Line 517
	mov	eax, 1
	imul	rax, rax, 0
	mov	rcx, QWORD PTR f$[rsp]
	movsx	eax, BYTE PTR [rcx+rax]
	cmp	eax, 48					; 00000030H
	jl	SHORT $LN21@stbsp_vspr
	mov	eax, 1
	imul	rax, rax, 0
	mov	rcx, QWORD PTR f$[rsp]
	movsx	eax, BYTE PTR [rcx+rax]
	cmp	eax, 57					; 00000039H
	jg	SHORT $LN21@stbsp_vspr
; Line 518
	imul	eax, DWORD PTR pr$2[rsp], 10
	mov	ecx, 1
	imul	rcx, rcx, 0
	mov	rdx, QWORD PTR f$[rsp]
	movsx	ecx, BYTE PTR [rdx+rcx]
	lea	eax, DWORD PTR [rax+rcx-48]
	mov	DWORD PTR pr$2[rsp], eax
; Line 519
	mov	rax, QWORD PTR f$[rsp]
	inc	rax
	mov	QWORD PTR f$[rsp], rax
; Line 520
	jmp	SHORT $LN20@stbsp_vspr
$LN21@stbsp_vspr:
$LN157@stbsp_vspr:
$LN155@stbsp_vspr:
; Line 525
	mov	eax, 1
	imul	rax, rax, 0
	mov	rcx, QWORD PTR f$[rsp]
	movsx	eax, BYTE PTR [rcx+rax]
	mov	DWORD PTR tv230[rsp], eax
	mov	eax, DWORD PTR tv230[rsp]
	sub	eax, 73					; 00000049H
	mov	DWORD PTR tv230[rsp], eax
	cmp	DWORD PTR tv230[rsp], 49		; 00000031H
	ja	$LN170@stbsp_vspr
	movsxd	rax, DWORD PTR tv230[rsp]
	lea	rcx, OFFSET FLAT:__ImageBase
	movzx	eax, BYTE PTR $LN457@stbsp_vspr[rcx+rax]
	mov	eax, DWORD PTR $LN458@stbsp_vspr[rcx+rax*4]
	add	rax, rcx
	jmp	rax
$LN158@stbsp_vspr:
; Line 528
	mov	eax, DWORD PTR fl$1[rsp]
	bts	eax, 9
	mov	DWORD PTR fl$1[rsp], eax
; Line 529
	mov	rax, QWORD PTR f$[rsp]
	inc	rax
	mov	QWORD PTR f$[rsp], rax
; Line 530
	mov	eax, 1
	imul	rax, rax, 0
	mov	rcx, QWORD PTR f$[rsp]
	movsx	eax, BYTE PTR [rcx+rax]
	cmp	eax, 104				; 00000068H
	jne	SHORT $LN159@stbsp_vspr
; Line 531
	mov	rax, QWORD PTR f$[rsp]
	inc	rax
	mov	QWORD PTR f$[rsp], rax
$LN159@stbsp_vspr:
; Line 532
	jmp	$LN22@stbsp_vspr
$LN160@stbsp_vspr:
; Line 535
	mov	eax, DWORD PTR fl$1[rsp]
	mov	DWORD PTR fl$1[rsp], eax
; Line 536
	mov	rax, QWORD PTR f$[rsp]
	inc	rax
	mov	QWORD PTR f$[rsp], rax
; Line 537
	mov	eax, 1
	imul	rax, rax, 0
	mov	rcx, QWORD PTR f$[rsp]
	movsx	eax, BYTE PTR [rcx+rax]
	cmp	eax, 108				; 0000006cH
	jne	SHORT $LN161@stbsp_vspr
; Line 538
	mov	eax, DWORD PTR fl$1[rsp]
	or	eax, 32					; 00000020H
	mov	DWORD PTR fl$1[rsp], eax
; Line 539
	mov	rax, QWORD PTR f$[rsp]
	inc	rax
	mov	QWORD PTR f$[rsp], rax
$LN161@stbsp_vspr:
; Line 541
	jmp	$LN22@stbsp_vspr
$LN162@stbsp_vspr:
; Line 544
	mov	eax, DWORD PTR fl$1[rsp]
	or	eax, 32					; 00000020H
	mov	DWORD PTR fl$1[rsp], eax
; Line 545
	mov	rax, QWORD PTR f$[rsp]
	inc	rax
	mov	QWORD PTR f$[rsp], rax
; Line 546
	jmp	$LN22@stbsp_vspr
$LN163@stbsp_vspr:
; Line 549
	mov	eax, DWORD PTR fl$1[rsp]
	or	eax, 32					; 00000020H
	mov	DWORD PTR fl$1[rsp], eax
; Line 550
	mov	rax, QWORD PTR f$[rsp]
	inc	rax
	mov	QWORD PTR f$[rsp], rax
; Line 551
	jmp	$LN22@stbsp_vspr
$LN164@stbsp_vspr:
; Line 553
	mov	eax, DWORD PTR fl$1[rsp]
	or	eax, 32					; 00000020H
	mov	DWORD PTR fl$1[rsp], eax
; Line 554
	mov	rax, QWORD PTR f$[rsp]
	inc	rax
	mov	QWORD PTR f$[rsp], rax
; Line 555
	jmp	$LN22@stbsp_vspr
$LN165@stbsp_vspr:
; Line 558
	mov	eax, 1
	imul	rax, rax, 1
	mov	rcx, QWORD PTR f$[rsp]
	movsx	eax, BYTE PTR [rcx+rax]
	cmp	eax, 54					; 00000036H
	jne	SHORT $LN166@stbsp_vspr
	mov	eax, 1
	imul	rax, rax, 2
	mov	rcx, QWORD PTR f$[rsp]
	movsx	eax, BYTE PTR [rcx+rax]
	cmp	eax, 52					; 00000034H
	jne	SHORT $LN166@stbsp_vspr
; Line 559
	mov	eax, DWORD PTR fl$1[rsp]
	or	eax, 32					; 00000020H
	mov	DWORD PTR fl$1[rsp], eax
; Line 560
	mov	rax, QWORD PTR f$[rsp]
	add	rax, 3
	mov	QWORD PTR f$[rsp], rax
	jmp	SHORT $LN167@stbsp_vspr
$LN166@stbsp_vspr:
; Line 561
	mov	eax, 1
	imul	rax, rax, 1
	mov	rcx, QWORD PTR f$[rsp]
	movsx	eax, BYTE PTR [rcx+rax]
	cmp	eax, 51					; 00000033H
	jne	SHORT $LN168@stbsp_vspr
	mov	eax, 1
	imul	rax, rax, 2
	mov	rcx, QWORD PTR f$[rsp]
	movsx	eax, BYTE PTR [rcx+rax]
	cmp	eax, 50					; 00000032H
	jne	SHORT $LN168@stbsp_vspr
; Line 562
	mov	rax, QWORD PTR f$[rsp]
	add	rax, 3
	mov	QWORD PTR f$[rsp], rax
; Line 563
	jmp	SHORT $LN169@stbsp_vspr
$LN168@stbsp_vspr:
; Line 564
	mov	eax, DWORD PTR fl$1[rsp]
	or	eax, 32					; 00000020H
	mov	DWORD PTR fl$1[rsp], eax
; Line 565
	mov	rax, QWORD PTR f$[rsp]
	inc	rax
	mov	QWORD PTR f$[rsp], rax
$LN169@stbsp_vspr:
$LN167@stbsp_vspr:
$LN170@stbsp_vspr:
$LN22@stbsp_vspr:
; Line 572
	mov	eax, 1
	imul	rax, rax, 0
	mov	rcx, QWORD PTR f$[rsp]
	movsx	eax, BYTE PTR [rcx+rax]
	mov	DWORD PTR tv277[rsp], eax
	mov	eax, DWORD PTR tv277[rsp]
	sub	eax, 65					; 00000041H
	mov	DWORD PTR tv277[rsp], eax
	cmp	DWORD PTR tv277[rsp], 55		; 00000037H
	ja	$LN362@stbsp_vspr
	movsxd	rax, DWORD PTR tv277[rsp]
	lea	rcx, OFFSET FLAT:__ImageBase
	movzx	eax, BYTE PTR $LN455@stbsp_vspr[rcx+rax]
	mov	eax, DWORD PTR $LN456@stbsp_vspr[rcx+rax*4]
	add	rax, rcx
	jmp	rax
$LN171@stbsp_vspr:
; Line 589
	xor	eax, eax
	test	eax, eax
	je	SHORT $LN373@stbsp_vspr
	mov	rax, QWORD PTR va$[rsp]
	add	rax, 8
	mov	QWORD PTR va$[rsp], rax
	mov	rax, QWORD PTR va$[rsp]
	mov	rax, QWORD PTR [rax-8]
	mov	rax, QWORD PTR [rax]
	mov	QWORD PTR tv284[rsp], rax
	jmp	SHORT $LN374@stbsp_vspr
$LN373@stbsp_vspr:
	mov	rax, QWORD PTR va$[rsp]
	add	rax, 8
	mov	QWORD PTR va$[rsp], rax
	mov	rax, QWORD PTR va$[rsp]
	mov	rax, QWORD PTR [rax-8]
	mov	QWORD PTR tv284[rsp], rax
$LN374@stbsp_vspr:
	mov	rax, QWORD PTR tv284[rsp]
	mov	QWORD PTR s$4[rsp], rax
; Line 590
	cmp	QWORD PTR s$4[rsp], 0
	jne	SHORT $LN172@stbsp_vspr
; Line 591
	lea	rax, OFFSET FLAT:$SG41896
	mov	QWORD PTR s$4[rsp], rax
$LN172@stbsp_vspr:
; Line 594
	cmp	DWORD PTR pr$2[rsp], 0
	jl	SHORT $LN375@stbsp_vspr
	mov	eax, DWORD PTR pr$2[rsp]
	mov	DWORD PTR tv288[rsp], eax
	jmp	SHORT $LN376@stbsp_vspr
$LN375@stbsp_vspr:
	mov	DWORD PTR tv288[rsp], -1		; ffffffffH
$LN376@stbsp_vspr:
	mov	edx, DWORD PTR tv288[rsp]
	mov	rcx, QWORD PTR s$4[rsp]
	call	?stbsp__strlen_limited@@YAIPEBDI@Z	; stbsp__strlen_limited
	mov	DWORD PTR l$5[rsp], eax
; Line 595
	mov	eax, 1
	imul	rax, rax, 0
	mov	QWORD PTR $T49[rsp], rax
	cmp	QWORD PTR $T49[rsp], 8
	jae	SHORT $LN377@stbsp_vspr
	jmp	SHORT $LN378@stbsp_vspr
$LN377@stbsp_vspr:
	call	__report_rangecheckfailure
$LN378@stbsp_vspr:
	mov	rax, QWORD PTR $T49[rsp]
	mov	BYTE PTR lead$62[rsp+rax], 0
; Line 596
	mov	eax, 1
	imul	rax, rax, 0
	mov	QWORD PTR $T50[rsp], rax
	cmp	QWORD PTR $T50[rsp], 8
	jae	SHORT $LN379@stbsp_vspr
	jmp	SHORT $LN380@stbsp_vspr
$LN379@stbsp_vspr:
	call	__report_rangecheckfailure
$LN380@stbsp_vspr:
	mov	rax, QWORD PTR $T50[rsp]
	mov	BYTE PTR tail$63[rsp+rax], 0
; Line 597
	mov	DWORD PTR pr$2[rsp], 0
; Line 598
	mov	DWORD PTR dp$6[rsp], 0
; Line 599
	mov	DWORD PTR cs$8[rsp], 0
; Line 601
	jmp	$LN173@stbsp_vspr
	jmp	$scopy$468
$LN174@stbsp_vspr:
; Line 605
	lea	rax, QWORD PTR num$64[rsp+511]
	mov	QWORD PTR s$4[rsp], rax
; Line 606
	xor	eax, eax
	test	eax, eax
	je	SHORT $LN381@stbsp_vspr
	mov	rax, QWORD PTR va$[rsp]
	add	rax, 8
	mov	QWORD PTR va$[rsp], rax
	mov	rax, QWORD PTR va$[rsp]
	mov	rax, QWORD PTR [rax-8]
	mov	eax, DWORD PTR [rax]
	mov	DWORD PTR tv305[rsp], eax
	jmp	SHORT $LN382@stbsp_vspr
$LN381@stbsp_vspr:
	mov	rax, QWORD PTR va$[rsp]
	add	rax, 8
	mov	QWORD PTR va$[rsp], rax
	mov	rax, QWORD PTR va$[rsp]
	mov	eax, DWORD PTR [rax-8]
	mov	DWORD PTR tv305[rsp], eax
$LN382@stbsp_vspr:
	mov	rax, QWORD PTR s$4[rsp]
	movzx	ecx, BYTE PTR tv305[rsp]
	mov	BYTE PTR [rax], cl
; Line 607
	mov	DWORD PTR l$5[rsp], 1
; Line 608
	mov	eax, 1
	imul	rax, rax, 0
	mov	QWORD PTR $T51[rsp], rax
	cmp	QWORD PTR $T51[rsp], 8
	jae	SHORT $LN383@stbsp_vspr
	jmp	SHORT $LN384@stbsp_vspr
$LN383@stbsp_vspr:
	call	__report_rangecheckfailure
$LN384@stbsp_vspr:
	mov	rax, QWORD PTR $T51[rsp]
	mov	BYTE PTR lead$62[rsp+rax], 0
; Line 609
	mov	eax, 1
	imul	rax, rax, 0
	mov	QWORD PTR $T52[rsp], rax
	cmp	QWORD PTR $T52[rsp], 8
	jae	SHORT $LN385@stbsp_vspr
	jmp	SHORT $LN386@stbsp_vspr
$LN385@stbsp_vspr:
	call	__report_rangecheckfailure
$LN386@stbsp_vspr:
	mov	rax, QWORD PTR $T52[rsp]
	mov	BYTE PTR tail$63[rsp+rax], 0
; Line 610
	mov	DWORD PTR pr$2[rsp], 0
; Line 611
	mov	DWORD PTR dp$6[rsp], 0
; Line 612
	mov	DWORD PTR cs$8[rsp], 0
; Line 613
	jmp	$LN175@stbsp_vspr
	jmp	$scopy$468
$LN176@stbsp_vspr:
; Line 617
	xor	eax, eax
	test	eax, eax
	je	SHORT $LN387@stbsp_vspr
	mov	rax, QWORD PTR va$[rsp]
	add	rax, 8
	mov	QWORD PTR va$[rsp], rax
	mov	rax, QWORD PTR va$[rsp]
	mov	rax, QWORD PTR [rax-8]
	mov	rax, QWORD PTR [rax]
	mov	QWORD PTR tv319[rsp], rax
	jmp	SHORT $LN388@stbsp_vspr
$LN387@stbsp_vspr:
	mov	rax, QWORD PTR va$[rsp]
	add	rax, 8
	mov	QWORD PTR va$[rsp], rax
	mov	rax, QWORD PTR va$[rsp]
	mov	rax, QWORD PTR [rax-8]
	mov	QWORD PTR tv319[rsp], rax
$LN388@stbsp_vspr:
	mov	rax, QWORD PTR tv319[rsp]
	mov	QWORD PTR d$61[rsp], rax
; Line 618
	mov	rax, QWORD PTR buf$[rsp]
	mov	rcx, QWORD PTR bf$[rsp]
	sub	rcx, rax
	mov	rax, rcx
	mov	ecx, DWORD PTR tlen$[rsp]
	add	ecx, eax
	mov	eax, ecx
	mov	rcx, QWORD PTR d$61[rsp]
	mov	DWORD PTR [rcx], eax
; Line 619
	jmp	$LN24@stbsp_vspr
$LN177@stbsp_vspr:
$LN178@stbsp_vspr:
; Line 641
	mov	eax, 1
	imul	rax, rax, 0
	mov	rcx, QWORD PTR f$[rsp]
	movsx	eax, BYTE PTR [rcx+rax]
	cmp	eax, 65					; 00000041H
	jne	SHORT $LN389@stbsp_vspr
	lea	rax, OFFSET FLAT:?hexu@?1??stbsp_vsprintfcb@@9@4PADA
	mov	QWORD PTR tv327[rsp], rax
	jmp	SHORT $LN390@stbsp_vspr
$LN389@stbsp_vspr:
	lea	rax, OFFSET FLAT:?hex@?1??stbsp_vsprintfcb@@9@4PADA
	mov	QWORD PTR tv327[rsp], rax
$LN390@stbsp_vspr:
	mov	rax, QWORD PTR tv327[rsp]
	mov	QWORD PTR h$21[rsp], rax
; Line 642
	xor	eax, eax
	test	eax, eax
	je	SHORT $LN391@stbsp_vspr
	mov	rax, QWORD PTR va$[rsp]
	add	rax, 8
	mov	QWORD PTR va$[rsp], rax
	mov	rax, QWORD PTR va$[rsp]
	mov	rax, QWORD PTR [rax-8]
	movsd	xmm0, QWORD PTR [rax]
	movsd	QWORD PTR tv334[rsp], xmm0
	jmp	SHORT $LN392@stbsp_vspr
$LN391@stbsp_vspr:
	mov	rax, QWORD PTR va$[rsp]
	add	rax, 8
	mov	QWORD PTR va$[rsp], rax
	mov	rax, QWORD PTR va$[rsp]
	movsd	xmm0, QWORD PTR [rax-8]
	movsd	QWORD PTR tv334[rsp], xmm0
$LN392@stbsp_vspr:
	movsd	xmm0, QWORD PTR tv334[rsp]
	movsd	QWORD PTR fv$20[rsp], xmm0
; Line 643
	cmp	DWORD PTR pr$2[rsp], -1
	jne	SHORT $LN179@stbsp_vspr
; Line 644
	mov	DWORD PTR pr$2[rsp], 6
$LN179@stbsp_vspr:
; Line 646
	movsd	xmm2, QWORD PTR fv$20[rsp]
	lea	rdx, QWORD PTR dp$6[rsp]
	lea	rcx, QWORD PTR n64$11[rsp]
	call	?stbsp__real_to_parts@@YAHPEA_JPEAHN@Z	; stbsp__real_to_parts
	test	eax, eax
	je	SHORT $LN180@stbsp_vspr
; Line 647
	mov	eax, DWORD PTR fl$1[rsp]
	bts	eax, 7
	mov	DWORD PTR fl$1[rsp], eax
$LN180@stbsp_vspr:
; Line 649
	lea	rax, QWORD PTR num$64[rsp+64]
	mov	QWORD PTR s$4[rsp], rax
; Line 651
	lea	rdx, QWORD PTR lead$62[rsp]
	mov	ecx, DWORD PTR fl$1[rsp]
	call	?stbsp__lead_sign@@YAXIPEAD@Z		; stbsp__lead_sign
; Line 653
	cmp	DWORD PTR dp$6[rsp], -1023		; fffffffffffffc01H
	jne	SHORT $LN181@stbsp_vspr
; Line 654
	cmp	QWORD PTR n64$11[rsp], 0
	je	SHORT $LN393@stbsp_vspr
	mov	DWORD PTR tv347[rsp], -1022		; fffffffffffffc02H
	jmp	SHORT $LN394@stbsp_vspr
$LN393@stbsp_vspr:
	mov	DWORD PTR tv347[rsp], 0
$LN394@stbsp_vspr:
	mov	eax, DWORD PTR tv347[rsp]
	mov	DWORD PTR dp$6[rsp], eax
	jmp	SHORT $LN182@stbsp_vspr
$LN181@stbsp_vspr:
; Line 656
	mov	rax, 4503599627370496			; 0010000000000000H
	mov	rcx, QWORD PTR n64$11[rsp]
	or	rcx, rax
	mov	rax, rcx
	mov	QWORD PTR n64$11[rsp], rax
$LN182@stbsp_vspr:
; Line 657
	mov	rax, QWORD PTR n64$11[rsp]
	shl	rax, 8
	mov	QWORD PTR n64$11[rsp], rax
; Line 658
	cmp	DWORD PTR pr$2[rsp], 15
	jge	SHORT $LN183@stbsp_vspr
; Line 659
	mov	eax, DWORD PTR pr$2[rsp]
	shl	eax, 2
	mov	rcx, 576460752303423488			; 0800000000000000H
	mov	QWORD PTR tv1612[rsp], rcx
	movzx	ecx, al
	mov	rax, QWORD PTR tv1612[rsp]
	shr	rax, cl
	mov	rcx, QWORD PTR n64$11[rsp]
	add	rcx, rax
	mov	rax, rcx
	mov	QWORD PTR n64$11[rsp], rax
$LN183@stbsp_vspr:
; Line 666
	mov	eax, 1
	imul	rax, rax, 0
	movsx	eax, BYTE PTR lead$62[rsp+rax]
	inc	eax
	cdqe
	mov	BYTE PTR lead$62[rsp+rax], 48		; 00000030H
; Line 667
	mov	eax, 1
	imul	rax, rax, 0
	movsx	eax, BYTE PTR lead$62[rsp+rax]
	add	eax, 2
	cdqe
	mov	BYTE PTR lead$62[rsp+rax], 120		; 00000078H
; Line 668
	mov	eax, 1
	imul	rax, rax, 0
	movsx	eax, BYTE PTR lead$62[rsp+rax]
	add	eax, 2
	mov	ecx, 1
	imul	rcx, rcx, 0
	mov	BYTE PTR lead$62[rsp+rcx], al
; Line 670
	mov	rax, QWORD PTR n64$11[rsp]
	shr	rax, 60					; 0000003cH
	and	rax, 15
	mov	rcx, QWORD PTR s$4[rsp]
	mov	rdx, QWORD PTR h$21[rsp]
	movzx	eax, BYTE PTR [rdx+rax]
	mov	BYTE PTR [rcx], al
	mov	rax, QWORD PTR s$4[rsp]
	inc	rax
	mov	QWORD PTR s$4[rsp], rax
; Line 671
	mov	rax, QWORD PTR n64$11[rsp]
	shl	rax, 4
	mov	QWORD PTR n64$11[rsp], rax
; Line 672
	cmp	DWORD PTR pr$2[rsp], 0
	je	SHORT $LN184@stbsp_vspr
; Line 673
	mov	rax, QWORD PTR s$4[rsp]
	movzx	ecx, BYTE PTR ?stbsp__period@@3DA
	mov	BYTE PTR [rax], cl
	mov	rax, QWORD PTR s$4[rsp]
	inc	rax
	mov	QWORD PTR s$4[rsp], rax
$LN184@stbsp_vspr:
; Line 674
	mov	rax, QWORD PTR s$4[rsp]
	mov	QWORD PTR sn$13[rsp], rax
; Line 677
	mov	eax, DWORD PTR pr$2[rsp]
	mov	DWORD PTR n$3[rsp], eax
; Line 678
	cmp	DWORD PTR n$3[rsp], 13
	jbe	SHORT $LN185@stbsp_vspr
; Line 679
	mov	DWORD PTR n$3[rsp], 13
$LN185@stbsp_vspr:
; Line 680
	mov	eax, DWORD PTR n$3[rsp]
	cmp	DWORD PTR pr$2[rsp], eax
	jle	SHORT $LN186@stbsp_vspr
; Line 681
	mov	eax, DWORD PTR n$3[rsp]
	mov	ecx, DWORD PTR pr$2[rsp]
	sub	ecx, eax
	mov	eax, ecx
	mov	DWORD PTR tz$16[rsp], eax
$LN186@stbsp_vspr:
; Line 682
	mov	DWORD PTR pr$2[rsp], 0
$LN26@stbsp_vspr:
; Line 683
	mov	eax, DWORD PTR n$3[rsp]
	mov	DWORD PTR tv420[rsp], eax
	mov	eax, DWORD PTR n$3[rsp]
	dec	eax
	mov	DWORD PTR n$3[rsp], eax
	cmp	DWORD PTR tv420[rsp], 0
	je	SHORT $LN27@stbsp_vspr
; Line 684
	mov	rax, QWORD PTR n64$11[rsp]
	shr	rax, 60					; 0000003cH
	and	rax, 15
	mov	rcx, QWORD PTR s$4[rsp]
	mov	rdx, QWORD PTR h$21[rsp]
	movzx	eax, BYTE PTR [rdx+rax]
	mov	BYTE PTR [rcx], al
	mov	rax, QWORD PTR s$4[rsp]
	inc	rax
	mov	QWORD PTR s$4[rsp], rax
; Line 685
	mov	rax, QWORD PTR n64$11[rsp]
	shl	rax, 4
	mov	QWORD PTR n64$11[rsp], rax
; Line 686
	jmp	SHORT $LN26@stbsp_vspr
$LN27@stbsp_vspr:
; Line 689
	mov	eax, 1
	imul	rax, rax, 17
	mov	ecx, 1
	imul	rcx, rcx, 1
	mov	rdx, QWORD PTR h$21[rsp]
	movzx	eax, BYTE PTR [rdx+rax]
	mov	BYTE PTR tail$63[rsp+rcx], al
; Line 690
	cmp	DWORD PTR dp$6[rsp], 0
	jge	SHORT $LN187@stbsp_vspr
; Line 691
	mov	eax, 1
	imul	rax, rax, 2
	mov	BYTE PTR tail$63[rsp+rax], 45		; 0000002dH
; Line 692
	mov	eax, DWORD PTR dp$6[rsp]
	neg	eax
	mov	DWORD PTR dp$6[rsp], eax
; Line 693
	jmp	SHORT $LN188@stbsp_vspr
$LN187@stbsp_vspr:
; Line 694
	mov	eax, 1
	imul	rax, rax, 2
	mov	BYTE PTR tail$63[rsp+rax], 43		; 0000002bH
$LN188@stbsp_vspr:
; Line 695
	cmp	DWORD PTR dp$6[rsp], 1000		; 000003e8H
	jl	SHORT $LN399@stbsp_vspr
	mov	DWORD PTR tv442[rsp], 6
	jmp	SHORT $LN400@stbsp_vspr
$LN399@stbsp_vspr:
	cmp	DWORD PTR dp$6[rsp], 100		; 00000064H
	jl	SHORT $LN397@stbsp_vspr
	mov	DWORD PTR tv441[rsp], 5
	jmp	SHORT $LN398@stbsp_vspr
$LN397@stbsp_vspr:
	cmp	DWORD PTR dp$6[rsp], 10
	jl	SHORT $LN395@stbsp_vspr
	mov	DWORD PTR tv440[rsp], 4
	jmp	SHORT $LN396@stbsp_vspr
$LN395@stbsp_vspr:
	mov	DWORD PTR tv440[rsp], 3
$LN396@stbsp_vspr:
	mov	eax, DWORD PTR tv440[rsp]
	mov	DWORD PTR tv441[rsp], eax
$LN398@stbsp_vspr:
	mov	eax, DWORD PTR tv441[rsp]
	mov	DWORD PTR tv442[rsp], eax
$LN400@stbsp_vspr:
	mov	eax, DWORD PTR tv442[rsp]
	mov	DWORD PTR n$3[rsp], eax
; Line 696
	mov	eax, 1
	imul	rax, rax, 0
	movzx	ecx, BYTE PTR n$3[rsp]
	mov	BYTE PTR tail$63[rsp+rax], cl
$LN28@stbsp_vspr:
; Line 698
	mov	eax, DWORD PTR dp$6[rsp]
	cdq
	mov	ecx, 10
	idiv	ecx
	mov	eax, edx
	add	eax, 48					; 00000030H
	mov	ecx, DWORD PTR n$3[rsp]
	mov	BYTE PTR tail$63[rsp+rcx], al
; Line 699
	cmp	DWORD PTR n$3[rsp], 3
	ja	SHORT $LN189@stbsp_vspr
; Line 700
	jmp	SHORT $LN29@stbsp_vspr
$LN189@stbsp_vspr:
; Line 701
	mov	eax, DWORD PTR n$3[rsp]
	dec	eax
	mov	DWORD PTR n$3[rsp], eax
; Line 702
	mov	eax, DWORD PTR dp$6[rsp]
	cdq
	mov	ecx, 10
	idiv	ecx
	mov	DWORD PTR dp$6[rsp], eax
; Line 703
	jmp	SHORT $LN28@stbsp_vspr
$LN29@stbsp_vspr:
; Line 705
	mov	rax, QWORD PTR sn$13[rsp]
	mov	rcx, QWORD PTR s$4[rsp]
	sub	rcx, rax
	mov	rax, rcx
	mov	DWORD PTR dp$6[rsp], eax
; Line 706
	lea	rax, QWORD PTR num$64[rsp+64]
	mov	rcx, QWORD PTR s$4[rsp]
	sub	rcx, rax
	mov	rax, rcx
	mov	DWORD PTR l$5[rsp], eax
; Line 707
	lea	rax, QWORD PTR num$64[rsp+64]
	mov	QWORD PTR s$4[rsp], rax
; Line 708
	mov	DWORD PTR cs$8[rsp], 50331649		; 03000001H
; Line 709
	jmp	$LN190@stbsp_vspr
	jmp	$scopy$468
$LN191@stbsp_vspr:
$LN192@stbsp_vspr:
; Line 713
	mov	eax, 1
	imul	rax, rax, 0
	mov	rcx, QWORD PTR f$[rsp]
	movsx	eax, BYTE PTR [rcx+rax]
	cmp	eax, 71					; 00000047H
	jne	SHORT $LN401@stbsp_vspr
	lea	rax, OFFSET FLAT:?hexu@?1??stbsp_vsprintfcb@@9@4PADA
	mov	QWORD PTR tv464[rsp], rax
	jmp	SHORT $LN402@stbsp_vspr
$LN401@stbsp_vspr:
	lea	rax, OFFSET FLAT:?hex@?1??stbsp_vsprintfcb@@9@4PADA
	mov	QWORD PTR tv464[rsp], rax
$LN402@stbsp_vspr:
	mov	rax, QWORD PTR tv464[rsp]
	mov	QWORD PTR h$21[rsp], rax
; Line 714
	xor	eax, eax
	test	eax, eax
	je	SHORT $LN403@stbsp_vspr
	mov	rax, QWORD PTR va$[rsp]
	add	rax, 8
	mov	QWORD PTR va$[rsp], rax
	mov	rax, QWORD PTR va$[rsp]
	mov	rax, QWORD PTR [rax-8]
	movsd	xmm0, QWORD PTR [rax]
	movsd	QWORD PTR tv471[rsp], xmm0
	jmp	SHORT $LN404@stbsp_vspr
$LN403@stbsp_vspr:
	mov	rax, QWORD PTR va$[rsp]
	add	rax, 8
	mov	QWORD PTR va$[rsp], rax
	mov	rax, QWORD PTR va$[rsp]
	movsd	xmm0, QWORD PTR [rax-8]
	movsd	QWORD PTR tv471[rsp], xmm0
$LN404@stbsp_vspr:
	movsd	xmm0, QWORD PTR tv471[rsp]
	movsd	QWORD PTR fv$20[rsp], xmm0
; Line 715
	cmp	DWORD PTR pr$2[rsp], -1
	jne	SHORT $LN193@stbsp_vspr
; Line 716
	mov	DWORD PTR pr$2[rsp], 6
	jmp	SHORT $LN194@stbsp_vspr
$LN193@stbsp_vspr:
; Line 717
	cmp	DWORD PTR pr$2[rsp], 0
	jne	SHORT $LN195@stbsp_vspr
; Line 718
	mov	DWORD PTR pr$2[rsp], 1
$LN195@stbsp_vspr:
$LN194@stbsp_vspr:
; Line 720
	mov	eax, DWORD PTR pr$2[rsp]
	dec	eax
	bts	eax, 31
	mov	DWORD PTR [rsp+40], eax
	movsd	xmm0, QWORD PTR fv$20[rsp]
	movsd	QWORD PTR [rsp+32], xmm0
	lea	r9, QWORD PTR dp$6[rsp]
	lea	r8, QWORD PTR num$64[rsp]
	lea	rdx, QWORD PTR l$5[rsp]
	lea	rcx, QWORD PTR sn$13[rsp]
	call	?stbsp__real_to_str@@YAHPEAPEBDPEAIPEADPEAHNI@Z ; stbsp__real_to_str
	test	eax, eax
	je	SHORT $LN196@stbsp_vspr
; Line 721
	mov	eax, DWORD PTR fl$1[rsp]
	bts	eax, 7
	mov	DWORD PTR fl$1[rsp], eax
$LN196@stbsp_vspr:
; Line 724
	mov	eax, DWORD PTR pr$2[rsp]
	mov	DWORD PTR n$3[rsp], eax
; Line 725
	mov	eax, DWORD PTR pr$2[rsp]
	cmp	DWORD PTR l$5[rsp], eax
	jbe	SHORT $LN197@stbsp_vspr
; Line 726
	mov	eax, DWORD PTR pr$2[rsp]
	mov	DWORD PTR l$5[rsp], eax
$LN197@stbsp_vspr:
$LN31@stbsp_vspr:
; Line 727
	cmp	DWORD PTR l$5[rsp], 1
	jbe	SHORT $LN32@stbsp_vspr
	cmp	DWORD PTR pr$2[rsp], 0
	je	SHORT $LN32@stbsp_vspr
	mov	eax, DWORD PTR l$5[rsp]
	dec	eax
	mov	eax, eax
	mov	rcx, QWORD PTR sn$13[rsp]
	movsx	eax, BYTE PTR [rcx+rax]
	cmp	eax, 48					; 00000030H
	jne	SHORT $LN32@stbsp_vspr
; Line 728
	mov	eax, DWORD PTR pr$2[rsp]
	dec	eax
	mov	DWORD PTR pr$2[rsp], eax
; Line 729
	mov	eax, DWORD PTR l$5[rsp]
	dec	eax
	mov	DWORD PTR l$5[rsp], eax
; Line 730
	jmp	SHORT $LN31@stbsp_vspr
$LN32@stbsp_vspr:
; Line 733
	cmp	DWORD PTR dp$6[rsp], -4
	jle	SHORT $LN199@stbsp_vspr
	mov	eax, DWORD PTR n$3[rsp]
	cmp	DWORD PTR dp$6[rsp], eax
	jle	SHORT $LN198@stbsp_vspr
$LN199@stbsp_vspr:
; Line 734
	mov	eax, DWORD PTR l$5[rsp]
	cmp	DWORD PTR pr$2[rsp], eax
	jle	SHORT $LN200@stbsp_vspr
; Line 735
	mov	eax, DWORD PTR l$5[rsp]
	dec	eax
	mov	DWORD PTR pr$2[rsp], eax
	jmp	SHORT $LN201@stbsp_vspr
$LN200@stbsp_vspr:
; Line 736
	cmp	DWORD PTR pr$2[rsp], 0
	je	SHORT $LN202@stbsp_vspr
; Line 737
	mov	eax, DWORD PTR pr$2[rsp]
	dec	eax
	mov	DWORD PTR pr$2[rsp], eax
$LN202@stbsp_vspr:
$LN201@stbsp_vspr:
; Line 738
	jmp	$LN203@stbsp_vspr
	jmp	$doexpfromg$469
$LN198@stbsp_vspr:
; Line 741
	cmp	DWORD PTR dp$6[rsp], 0
	jle	SHORT $LN204@stbsp_vspr
; Line 742
	mov	eax, DWORD PTR l$5[rsp]
	cmp	DWORD PTR dp$6[rsp], eax
	jge	SHORT $LN405@stbsp_vspr
	mov	eax, DWORD PTR dp$6[rsp]
	mov	ecx, DWORD PTR l$5[rsp]
	sub	ecx, eax
	mov	eax, ecx
	mov	DWORD PTR tv505[rsp], eax
	jmp	SHORT $LN406@stbsp_vspr
$LN405@stbsp_vspr:
	mov	DWORD PTR tv505[rsp], 0
$LN406@stbsp_vspr:
	mov	eax, DWORD PTR tv505[rsp]
	mov	DWORD PTR pr$2[rsp], eax
; Line 743
	jmp	SHORT $LN205@stbsp_vspr
$LN204@stbsp_vspr:
; Line 744
	mov	eax, DWORD PTR l$5[rsp]
	cmp	DWORD PTR pr$2[rsp], eax
	jle	SHORT $LN407@stbsp_vspr
	mov	eax, DWORD PTR l$5[rsp]
	mov	DWORD PTR tv508[rsp], eax
	jmp	SHORT $LN408@stbsp_vspr
$LN407@stbsp_vspr:
	mov	eax, DWORD PTR pr$2[rsp]
	mov	DWORD PTR tv508[rsp], eax
$LN408@stbsp_vspr:
	mov	eax, DWORD PTR dp$6[rsp]
	neg	eax
	add	eax, DWORD PTR tv508[rsp]
	mov	DWORD PTR pr$2[rsp], eax
$LN205@stbsp_vspr:
; Line 746
	jmp	$LN206@stbsp_vspr
	jmp	$dofloatfromg$470
$LN207@stbsp_vspr:
$LN208@stbsp_vspr:
; Line 750
	mov	eax, 1
	imul	rax, rax, 0
	mov	rcx, QWORD PTR f$[rsp]
	movsx	eax, BYTE PTR [rcx+rax]
	cmp	eax, 69					; 00000045H
	jne	SHORT $LN409@stbsp_vspr
	lea	rax, OFFSET FLAT:?hexu@?1??stbsp_vsprintfcb@@9@4PADA
	mov	QWORD PTR tv514[rsp], rax
	jmp	SHORT $LN410@stbsp_vspr
$LN409@stbsp_vspr:
	lea	rax, OFFSET FLAT:?hex@?1??stbsp_vsprintfcb@@9@4PADA
	mov	QWORD PTR tv514[rsp], rax
$LN410@stbsp_vspr:
	mov	rax, QWORD PTR tv514[rsp]
	mov	QWORD PTR h$21[rsp], rax
; Line 751
	xor	eax, eax
	test	eax, eax
	je	SHORT $LN411@stbsp_vspr
	mov	rax, QWORD PTR va$[rsp]
	add	rax, 8
	mov	QWORD PTR va$[rsp], rax
	mov	rax, QWORD PTR va$[rsp]
	mov	rax, QWORD PTR [rax-8]
	movsd	xmm0, QWORD PTR [rax]
	movsd	QWORD PTR tv521[rsp], xmm0
	jmp	SHORT $LN412@stbsp_vspr
$LN411@stbsp_vspr:
	mov	rax, QWORD PTR va$[rsp]
	add	rax, 8
	mov	QWORD PTR va$[rsp], rax
	mov	rax, QWORD PTR va$[rsp]
	movsd	xmm0, QWORD PTR [rax-8]
	movsd	QWORD PTR tv521[rsp], xmm0
$LN412@stbsp_vspr:
	movsd	xmm0, QWORD PTR tv521[rsp]
	movsd	QWORD PTR fv$20[rsp], xmm0
; Line 752
	cmp	DWORD PTR pr$2[rsp], -1
	jne	SHORT $LN209@stbsp_vspr
; Line 753
	mov	DWORD PTR pr$2[rsp], 6
$LN209@stbsp_vspr:
; Line 755
	mov	eax, DWORD PTR pr$2[rsp]
	bts	eax, 31
	mov	DWORD PTR [rsp+40], eax
	movsd	xmm0, QWORD PTR fv$20[rsp]
	movsd	QWORD PTR [rsp+32], xmm0
	lea	r9, QWORD PTR dp$6[rsp]
	lea	r8, QWORD PTR num$64[rsp]
	lea	rdx, QWORD PTR l$5[rsp]
	lea	rcx, QWORD PTR sn$13[rsp]
	call	?stbsp__real_to_str@@YAHPEAPEBDPEAIPEADPEAHNI@Z ; stbsp__real_to_str
	test	eax, eax
	je	SHORT $LN210@stbsp_vspr
; Line 756
	mov	eax, DWORD PTR fl$1[rsp]
	bts	eax, 7
	mov	DWORD PTR fl$1[rsp], eax
$LN210@stbsp_vspr:
$LN203@stbsp_vspr:
$doexpfromg$469:
; Line 758
	mov	eax, 1
	imul	rax, rax, 0
	mov	QWORD PTR $T53[rsp], rax
	cmp	QWORD PTR $T53[rsp], 8
	jae	SHORT $LN413@stbsp_vspr
	jmp	SHORT $LN414@stbsp_vspr
$LN413@stbsp_vspr:
	call	__report_rangecheckfailure
$LN414@stbsp_vspr:
	mov	rax, QWORD PTR $T53[rsp]
	mov	BYTE PTR tail$63[rsp+rax], 0
; Line 759
	lea	rdx, QWORD PTR lead$62[rsp]
	mov	ecx, DWORD PTR fl$1[rsp]
	call	?stbsp__lead_sign@@YAXIPEAD@Z		; stbsp__lead_sign
; Line 760
	cmp	DWORD PTR dp$6[rsp], 28672		; 00007000H
	jne	SHORT $LN211@stbsp_vspr
; Line 761
	mov	rax, QWORD PTR sn$13[rsp]
	mov	QWORD PTR s$4[rsp], rax
; Line 762
	mov	DWORD PTR cs$8[rsp], 0
; Line 763
	mov	DWORD PTR pr$2[rsp], 0
; Line 764
	jmp	$LN212@stbsp_vspr
	jmp	$scopy$468
$LN211@stbsp_vspr:
; Line 766
	lea	rax, QWORD PTR num$64[rsp+64]
	mov	QWORD PTR s$4[rsp], rax
; Line 768
	mov	eax, 1
	imul	rax, rax, 0
	mov	rcx, QWORD PTR s$4[rsp]
	mov	rdx, QWORD PTR sn$13[rsp]
	movzx	eax, BYTE PTR [rdx+rax]
	mov	BYTE PTR [rcx], al
	mov	rax, QWORD PTR s$4[rsp]
	inc	rax
	mov	QWORD PTR s$4[rsp], rax
; Line 770
	cmp	DWORD PTR pr$2[rsp], 0
	je	SHORT $LN213@stbsp_vspr
; Line 771
	mov	rax, QWORD PTR s$4[rsp]
	movzx	ecx, BYTE PTR ?stbsp__period@@3DA
	mov	BYTE PTR [rax], cl
	mov	rax, QWORD PTR s$4[rsp]
	inc	rax
	mov	QWORD PTR s$4[rsp], rax
$LN213@stbsp_vspr:
; Line 774
	mov	eax, DWORD PTR l$5[rsp]
	dec	eax
	cmp	eax, DWORD PTR pr$2[rsp]
	jbe	SHORT $LN214@stbsp_vspr
; Line 775
	mov	eax, DWORD PTR pr$2[rsp]
	inc	eax
	mov	DWORD PTR l$5[rsp], eax
$LN214@stbsp_vspr:
; Line 776
	mov	DWORD PTR n$3[rsp], 1
	jmp	SHORT $LN35@stbsp_vspr
$LN33@stbsp_vspr:
	mov	eax, DWORD PTR n$3[rsp]
	inc	eax
	mov	DWORD PTR n$3[rsp], eax
$LN35@stbsp_vspr:
	mov	eax, DWORD PTR l$5[rsp]
	cmp	DWORD PTR n$3[rsp], eax
	jae	SHORT $LN34@stbsp_vspr
; Line 777
	mov	eax, DWORD PTR n$3[rsp]
	mov	rcx, QWORD PTR s$4[rsp]
	mov	rdx, QWORD PTR sn$13[rsp]
	movzx	eax, BYTE PTR [rdx+rax]
	mov	BYTE PTR [rcx], al
	mov	rax, QWORD PTR s$4[rsp]
	inc	rax
	mov	QWORD PTR s$4[rsp], rax
	jmp	SHORT $LN33@stbsp_vspr
$LN34@stbsp_vspr:
; Line 779
	mov	eax, DWORD PTR l$5[rsp]
	dec	eax
	mov	ecx, DWORD PTR pr$2[rsp]
	sub	ecx, eax
	mov	eax, ecx
	mov	DWORD PTR tz$16[rsp], eax
; Line 780
	mov	DWORD PTR pr$2[rsp], 0
; Line 782
	mov	eax, 1
	imul	rax, rax, 14
	mov	ecx, 1
	imul	rcx, rcx, 1
	mov	rdx, QWORD PTR h$21[rsp]
	movzx	eax, BYTE PTR [rdx+rax]
	mov	BYTE PTR tail$63[rsp+rcx], al
; Line 783
	mov	eax, DWORD PTR dp$6[rsp]
	dec	eax
	mov	DWORD PTR dp$6[rsp], eax
; Line 784
	cmp	DWORD PTR dp$6[rsp], 0
	jge	SHORT $LN215@stbsp_vspr
; Line 785
	mov	eax, 1
	imul	rax, rax, 2
	mov	BYTE PTR tail$63[rsp+rax], 45		; 0000002dH
; Line 786
	mov	eax, DWORD PTR dp$6[rsp]
	neg	eax
	mov	DWORD PTR dp$6[rsp], eax
; Line 787
	jmp	SHORT $LN216@stbsp_vspr
$LN215@stbsp_vspr:
; Line 788
	mov	eax, 1
	imul	rax, rax, 2
	mov	BYTE PTR tail$63[rsp+rax], 43		; 0000002bH
$LN216@stbsp_vspr:
; Line 792
	cmp	DWORD PTR dp$6[rsp], 100		; 00000064H
	jl	SHORT $LN415@stbsp_vspr
	mov	DWORD PTR tv568[rsp], 5
	jmp	SHORT $LN416@stbsp_vspr
$LN415@stbsp_vspr:
	mov	DWORD PTR tv568[rsp], 4
$LN416@stbsp_vspr:
	mov	eax, DWORD PTR tv568[rsp]
	mov	DWORD PTR n$3[rsp], eax
; Line 794
	mov	eax, 1
	imul	rax, rax, 0
	movzx	ecx, BYTE PTR n$3[rsp]
	mov	BYTE PTR tail$63[rsp+rax], cl
$LN36@stbsp_vspr:
; Line 796
	mov	eax, DWORD PTR dp$6[rsp]
	cdq
	mov	ecx, 10
	idiv	ecx
	mov	eax, edx
	add	eax, 48					; 00000030H
	mov	ecx, DWORD PTR n$3[rsp]
	mov	BYTE PTR tail$63[rsp+rcx], al
; Line 797
	cmp	DWORD PTR n$3[rsp], 3
	ja	SHORT $LN217@stbsp_vspr
; Line 798
	jmp	SHORT $LN37@stbsp_vspr
$LN217@stbsp_vspr:
; Line 799
	mov	eax, DWORD PTR n$3[rsp]
	dec	eax
	mov	DWORD PTR n$3[rsp], eax
; Line 800
	mov	eax, DWORD PTR dp$6[rsp]
	cdq
	mov	ecx, 10
	idiv	ecx
	mov	DWORD PTR dp$6[rsp], eax
; Line 801
	jmp	SHORT $LN36@stbsp_vspr
$LN37@stbsp_vspr:
; Line 802
	mov	DWORD PTR cs$8[rsp], 50331649		; 03000001H
; Line 803
	jmp	$LN218@stbsp_vspr
	jmp	$flt_lead$471
$LN219@stbsp_vspr:
; Line 806
	xor	eax, eax
	test	eax, eax
	je	SHORT $LN417@stbsp_vspr
	mov	rax, QWORD PTR va$[rsp]
	add	rax, 8
	mov	QWORD PTR va$[rsp], rax
	mov	rax, QWORD PTR va$[rsp]
	mov	rax, QWORD PTR [rax-8]
	movsd	xmm0, QWORD PTR [rax]
	movsd	QWORD PTR tv586[rsp], xmm0
	jmp	SHORT $LN418@stbsp_vspr
$LN417@stbsp_vspr:
	mov	rax, QWORD PTR va$[rsp]
	add	rax, 8
	mov	QWORD PTR va$[rsp], rax
	mov	rax, QWORD PTR va$[rsp]
	movsd	xmm0, QWORD PTR [rax-8]
	movsd	QWORD PTR tv586[rsp], xmm0
$LN418@stbsp_vspr:
	movsd	xmm0, QWORD PTR tv586[rsp]
	movsd	QWORD PTR fv$20[rsp], xmm0
$doafloat$472:
; Line 809
	mov	eax, DWORD PTR fl$1[rsp]
	and	eax, 256				; 00000100H
	test	eax, eax
	je	$LN220@stbsp_vspr
; Line 811
	movsd	xmm0, QWORD PTR __real@408f400000000000
	movsd	QWORD PTR divisor$45[rsp], xmm0
; Line 812
	mov	eax, DWORD PTR fl$1[rsp]
	and	eax, 2048				; 00000800H
	test	eax, eax
	je	SHORT $LN221@stbsp_vspr
; Line 813
	movsd	xmm0, QWORD PTR __real@4090000000000000
	movsd	QWORD PTR divisor$45[rsp], xmm0
$LN221@stbsp_vspr:
$LN39@stbsp_vspr:
; Line 814
	cmp	DWORD PTR fl$1[rsp], 67108864		; 04000000H
	jae	SHORT $LN40@stbsp_vspr
; Line 815
	movsd	xmm0, QWORD PTR divisor$45[rsp]
	comisd	xmm0, QWORD PTR fv$20[rsp]
	jbe	SHORT $LN222@stbsp_vspr
	movsd	xmm0, QWORD PTR divisor$45[rsp]
	xorps	xmm0, QWORD PTR __xmm@80000000000000008000000000000000
	movsd	xmm1, QWORD PTR fv$20[rsp]
	comisd	xmm1, xmm0
	jbe	SHORT $LN222@stbsp_vspr
; Line 816
	jmp	SHORT $LN40@stbsp_vspr
$LN222@stbsp_vspr:
; Line 817
	movsd	xmm0, QWORD PTR fv$20[rsp]
	divsd	xmm0, QWORD PTR divisor$45[rsp]
	movsd	QWORD PTR fv$20[rsp], xmm0
; Line 818
	mov	eax, DWORD PTR fl$1[rsp]
	add	eax, 16777216				; 01000000H
	mov	DWORD PTR fl$1[rsp], eax
; Line 819
	jmp	SHORT $LN39@stbsp_vspr
$LN40@stbsp_vspr:
$LN220@stbsp_vspr:
; Line 821
	cmp	DWORD PTR pr$2[rsp], -1
	jne	SHORT $LN223@stbsp_vspr
; Line 822
	mov	DWORD PTR pr$2[rsp], 6
$LN223@stbsp_vspr:
; Line 824
	mov	eax, DWORD PTR pr$2[rsp]
	mov	DWORD PTR [rsp+40], eax
	movsd	xmm0, QWORD PTR fv$20[rsp]
	movsd	QWORD PTR [rsp+32], xmm0
	lea	r9, QWORD PTR dp$6[rsp]
	lea	r8, QWORD PTR num$64[rsp]
	lea	rdx, QWORD PTR l$5[rsp]
	lea	rcx, QWORD PTR sn$13[rsp]
	call	?stbsp__real_to_str@@YAHPEAPEBDPEAIPEADPEAHNI@Z ; stbsp__real_to_str
	test	eax, eax
	je	SHORT $LN224@stbsp_vspr
; Line 825
	mov	eax, DWORD PTR fl$1[rsp]
	bts	eax, 7
	mov	DWORD PTR fl$1[rsp], eax
$LN224@stbsp_vspr:
$LN206@stbsp_vspr:
$dofloatfromg$470:
; Line 827
	mov	eax, 1
	imul	rax, rax, 0
	mov	QWORD PTR $T54[rsp], rax
	cmp	QWORD PTR $T54[rsp], 8
	jae	SHORT $LN419@stbsp_vspr
	jmp	SHORT $LN420@stbsp_vspr
$LN419@stbsp_vspr:
	call	__report_rangecheckfailure
$LN420@stbsp_vspr:
	mov	rax, QWORD PTR $T54[rsp]
	mov	BYTE PTR tail$63[rsp+rax], 0
; Line 828
	lea	rdx, QWORD PTR lead$62[rsp]
	mov	ecx, DWORD PTR fl$1[rsp]
	call	?stbsp__lead_sign@@YAXIPEAD@Z		; stbsp__lead_sign
; Line 829
	cmp	DWORD PTR dp$6[rsp], 28672		; 00007000H
	jne	SHORT $LN225@stbsp_vspr
; Line 830
	mov	rax, QWORD PTR sn$13[rsp]
	mov	QWORD PTR s$4[rsp], rax
; Line 831
	mov	DWORD PTR cs$8[rsp], 0
; Line 832
	mov	DWORD PTR pr$2[rsp], 0
; Line 833
	jmp	$LN226@stbsp_vspr
	jmp	$scopy$468
$LN225@stbsp_vspr:
; Line 835
	lea	rax, QWORD PTR num$64[rsp+64]
	mov	QWORD PTR s$4[rsp], rax
; Line 838
	cmp	DWORD PTR dp$6[rsp], 0
	jg	$LN227@stbsp_vspr
; Line 841
	mov	rax, QWORD PTR s$4[rsp]
	mov	BYTE PTR [rax], 48			; 00000030H
	mov	rax, QWORD PTR s$4[rsp]
	inc	rax
	mov	QWORD PTR s$4[rsp], rax
; Line 842
	cmp	DWORD PTR pr$2[rsp], 0
	je	SHORT $LN229@stbsp_vspr
; Line 843
	mov	rax, QWORD PTR s$4[rsp]
	movzx	ecx, BYTE PTR ?stbsp__period@@3DA
	mov	BYTE PTR [rax], cl
	mov	rax, QWORD PTR s$4[rsp]
	inc	rax
	mov	QWORD PTR s$4[rsp], rax
$LN229@stbsp_vspr:
; Line 844
	mov	eax, DWORD PTR dp$6[rsp]
	neg	eax
	mov	DWORD PTR n$3[rsp], eax
; Line 845
	mov	eax, DWORD PTR pr$2[rsp]
	cmp	DWORD PTR n$3[rsp], eax
	jle	SHORT $LN230@stbsp_vspr
; Line 846
	mov	eax, DWORD PTR pr$2[rsp]
	mov	DWORD PTR n$3[rsp], eax
$LN230@stbsp_vspr:
; Line 847
	mov	eax, DWORD PTR n$3[rsp]
	mov	DWORD PTR i$12[rsp], eax
$LN41@stbsp_vspr:
; Line 848
	cmp	DWORD PTR i$12[rsp], 0
	je	SHORT $LN42@stbsp_vspr
; Line 849
	mov	rax, QWORD PTR s$4[rsp]
	and	rax, 3
	test	rax, rax
	jne	SHORT $LN231@stbsp_vspr
; Line 850
	jmp	SHORT $LN42@stbsp_vspr
$LN231@stbsp_vspr:
; Line 851
	mov	rax, QWORD PTR s$4[rsp]
	mov	BYTE PTR [rax], 48			; 00000030H
	mov	rax, QWORD PTR s$4[rsp]
	inc	rax
	mov	QWORD PTR s$4[rsp], rax
; Line 852
	mov	eax, DWORD PTR i$12[rsp]
	dec	eax
	mov	DWORD PTR i$12[rsp], eax
; Line 853
	jmp	SHORT $LN41@stbsp_vspr
$LN42@stbsp_vspr:
$LN43@stbsp_vspr:
; Line 854
	cmp	DWORD PTR i$12[rsp], 4
	jl	SHORT $LN44@stbsp_vspr
; Line 855
	mov	rax, QWORD PTR s$4[rsp]
	mov	DWORD PTR [rax], 808464432		; 30303030H
; Line 856
	mov	rax, QWORD PTR s$4[rsp]
	add	rax, 4
	mov	QWORD PTR s$4[rsp], rax
; Line 857
	mov	eax, DWORD PTR i$12[rsp]
	sub	eax, 4
	mov	DWORD PTR i$12[rsp], eax
; Line 858
	jmp	SHORT $LN43@stbsp_vspr
$LN44@stbsp_vspr:
$LN45@stbsp_vspr:
; Line 859
	cmp	DWORD PTR i$12[rsp], 0
	je	SHORT $LN46@stbsp_vspr
; Line 860
	mov	rax, QWORD PTR s$4[rsp]
	mov	BYTE PTR [rax], 48			; 00000030H
	mov	rax, QWORD PTR s$4[rsp]
	inc	rax
	mov	QWORD PTR s$4[rsp], rax
; Line 861
	mov	eax, DWORD PTR i$12[rsp]
	dec	eax
	mov	DWORD PTR i$12[rsp], eax
; Line 862
	jmp	SHORT $LN45@stbsp_vspr
$LN46@stbsp_vspr:
; Line 863
	mov	eax, DWORD PTR n$3[rsp]
	mov	ecx, DWORD PTR l$5[rsp]
	add	ecx, eax
	mov	eax, ecx
	cmp	eax, DWORD PTR pr$2[rsp]
	jle	SHORT $LN232@stbsp_vspr
; Line 864
	mov	eax, DWORD PTR n$3[rsp]
	mov	ecx, DWORD PTR pr$2[rsp]
	sub	ecx, eax
	mov	eax, ecx
	mov	DWORD PTR l$5[rsp], eax
$LN232@stbsp_vspr:
; Line 865
	mov	eax, DWORD PTR l$5[rsp]
	mov	DWORD PTR i$12[rsp], eax
$LN47@stbsp_vspr:
; Line 866
	cmp	DWORD PTR i$12[rsp], 0
	je	SHORT $LN48@stbsp_vspr
; Line 867
	mov	rax, QWORD PTR sn$13[rsp]
	movzx	eax, BYTE PTR [rax]
	mov	BYTE PTR tv638[rsp], al
	mov	rax, QWORD PTR sn$13[rsp]
	inc	rax
	mov	QWORD PTR sn$13[rsp], rax
	mov	rax, QWORD PTR s$4[rsp]
	movzx	ecx, BYTE PTR tv638[rsp]
	mov	BYTE PTR [rax], cl
	mov	rax, QWORD PTR s$4[rsp]
	inc	rax
	mov	QWORD PTR s$4[rsp], rax
; Line 868
	mov	eax, DWORD PTR i$12[rsp]
	dec	eax
	mov	DWORD PTR i$12[rsp], eax
; Line 869
	jmp	SHORT $LN47@stbsp_vspr
$LN48@stbsp_vspr:
; Line 870
	mov	eax, DWORD PTR l$5[rsp]
	mov	ecx, DWORD PTR n$3[rsp]
	add	ecx, eax
	mov	eax, ecx
	mov	ecx, DWORD PTR pr$2[rsp]
	sub	ecx, eax
	mov	eax, ecx
	mov	DWORD PTR tz$16[rsp], eax
; Line 871
	mov	DWORD PTR cs$8[rsp], 50331649		; 03000001H
; Line 872
	jmp	$LN228@stbsp_vspr
$LN227@stbsp_vspr:
; Line 873
	mov	eax, DWORD PTR fl$1[rsp]
	and	eax, 64					; 00000040H
	test	eax, eax
	je	SHORT $LN421@stbsp_vspr
	mov	eax, 600				; 00000258H
	sub	eax, DWORD PTR dp$6[rsp]
	xor	edx, edx
	mov	ecx, 3
	div	ecx
	mov	eax, edx
	mov	DWORD PTR tv646[rsp], eax
	jmp	SHORT $LN422@stbsp_vspr
$LN421@stbsp_vspr:
	mov	DWORD PTR tv646[rsp], 0
$LN422@stbsp_vspr:
	mov	eax, DWORD PTR tv646[rsp]
	mov	DWORD PTR cs$8[rsp], eax
; Line 874
	mov	eax, DWORD PTR l$5[rsp]
	cmp	DWORD PTR dp$6[rsp], eax
	jb	$LN233@stbsp_vspr
; Line 876
	mov	DWORD PTR n$3[rsp], 0
$LN49@stbsp_vspr:
; Line 878
	mov	eax, DWORD PTR fl$1[rsp]
	and	eax, 64					; 00000040H
	test	eax, eax
	je	SHORT $LN235@stbsp_vspr
	mov	eax, DWORD PTR cs$8[rsp]
	inc	eax
	mov	DWORD PTR cs$8[rsp], eax
	cmp	DWORD PTR cs$8[rsp], 4
	jne	SHORT $LN235@stbsp_vspr
; Line 879
	mov	DWORD PTR cs$8[rsp], 0
; Line 880
	mov	rax, QWORD PTR s$4[rsp]
	movzx	ecx, BYTE PTR ?stbsp__comma@@3DA
	mov	BYTE PTR [rax], cl
	mov	rax, QWORD PTR s$4[rsp]
	inc	rax
	mov	QWORD PTR s$4[rsp], rax
; Line 881
	jmp	SHORT $LN236@stbsp_vspr
$LN235@stbsp_vspr:
; Line 882
	mov	eax, DWORD PTR n$3[rsp]
	mov	rcx, QWORD PTR s$4[rsp]
	mov	rdx, QWORD PTR sn$13[rsp]
	movzx	eax, BYTE PTR [rdx+rax]
	mov	BYTE PTR [rcx], al
	mov	rax, QWORD PTR s$4[rsp]
	inc	rax
	mov	QWORD PTR s$4[rsp], rax
; Line 883
	mov	eax, DWORD PTR n$3[rsp]
	inc	eax
	mov	DWORD PTR n$3[rsp], eax
; Line 884
	mov	eax, DWORD PTR l$5[rsp]
	cmp	DWORD PTR n$3[rsp], eax
	jb	SHORT $LN237@stbsp_vspr
; Line 885
	jmp	SHORT $LN50@stbsp_vspr
$LN237@stbsp_vspr:
$LN236@stbsp_vspr:
; Line 887
	jmp	SHORT $LN49@stbsp_vspr
$LN50@stbsp_vspr:
; Line 888
	mov	eax, DWORD PTR dp$6[rsp]
	cmp	DWORD PTR n$3[rsp], eax
	jae	$LN238@stbsp_vspr
; Line 889
	mov	eax, DWORD PTR n$3[rsp]
	mov	ecx, DWORD PTR dp$6[rsp]
	sub	ecx, eax
	mov	eax, ecx
	mov	DWORD PTR n$3[rsp], eax
; Line 890
	mov	eax, DWORD PTR fl$1[rsp]
	and	eax, 64					; 00000040H
	test	eax, eax
	jne	SHORT $LN239@stbsp_vspr
$LN52@stbsp_vspr:
; Line 891
	cmp	DWORD PTR n$3[rsp], 0
	je	SHORT $LN53@stbsp_vspr
; Line 892
	mov	rax, QWORD PTR s$4[rsp]
	and	rax, 3
	test	rax, rax
	jne	SHORT $LN240@stbsp_vspr
; Line 893
	jmp	SHORT $LN53@stbsp_vspr
$LN240@stbsp_vspr:
; Line 894
	mov	rax, QWORD PTR s$4[rsp]
	mov	BYTE PTR [rax], 48			; 00000030H
	mov	rax, QWORD PTR s$4[rsp]
	inc	rax
	mov	QWORD PTR s$4[rsp], rax
; Line 895
	mov	eax, DWORD PTR n$3[rsp]
	dec	eax
	mov	DWORD PTR n$3[rsp], eax
; Line 896
	jmp	SHORT $LN52@stbsp_vspr
$LN53@stbsp_vspr:
$LN54@stbsp_vspr:
; Line 897
	cmp	DWORD PTR n$3[rsp], 4
	jb	SHORT $LN55@stbsp_vspr
; Line 898
	mov	rax, QWORD PTR s$4[rsp]
	mov	DWORD PTR [rax], 808464432		; 30303030H
; Line 899
	mov	rax, QWORD PTR s$4[rsp]
	add	rax, 4
	mov	QWORD PTR s$4[rsp], rax
; Line 900
	mov	eax, DWORD PTR n$3[rsp]
	sub	eax, 4
	mov	DWORD PTR n$3[rsp], eax
; Line 901
	jmp	SHORT $LN54@stbsp_vspr
$LN55@stbsp_vspr:
$LN239@stbsp_vspr:
$LN56@stbsp_vspr:
; Line 903
	cmp	DWORD PTR n$3[rsp], 0
	je	SHORT $LN57@stbsp_vspr
; Line 904
	mov	eax, DWORD PTR fl$1[rsp]
	and	eax, 64					; 00000040H
	test	eax, eax
	je	SHORT $LN241@stbsp_vspr
	mov	eax, DWORD PTR cs$8[rsp]
	inc	eax
	mov	DWORD PTR cs$8[rsp], eax
	cmp	DWORD PTR cs$8[rsp], 4
	jne	SHORT $LN241@stbsp_vspr
; Line 905
	mov	DWORD PTR cs$8[rsp], 0
; Line 906
	mov	rax, QWORD PTR s$4[rsp]
	movzx	ecx, BYTE PTR ?stbsp__comma@@3DA
	mov	BYTE PTR [rax], cl
	mov	rax, QWORD PTR s$4[rsp]
	inc	rax
	mov	QWORD PTR s$4[rsp], rax
; Line 907
	jmp	SHORT $LN242@stbsp_vspr
$LN241@stbsp_vspr:
; Line 908
	mov	rax, QWORD PTR s$4[rsp]
	mov	BYTE PTR [rax], 48			; 00000030H
	mov	rax, QWORD PTR s$4[rsp]
	inc	rax
	mov	QWORD PTR s$4[rsp], rax
; Line 909
	mov	eax, DWORD PTR n$3[rsp]
	dec	eax
	mov	DWORD PTR n$3[rsp], eax
$LN242@stbsp_vspr:
; Line 911
	jmp	SHORT $LN56@stbsp_vspr
$LN57@stbsp_vspr:
$LN238@stbsp_vspr:
; Line 913
	lea	rax, QWORD PTR num$64[rsp+64]
	mov	rcx, QWORD PTR s$4[rsp]
	sub	rcx, rax
	mov	rax, rcx
	add	eax, 50331648				; 03000000H
	mov	DWORD PTR cs$8[rsp], eax
; Line 914
	cmp	DWORD PTR pr$2[rsp], 0
	je	SHORT $LN243@stbsp_vspr
; Line 915
	mov	rax, QWORD PTR s$4[rsp]
	movzx	ecx, BYTE PTR ?stbsp__period@@3DA
	mov	BYTE PTR [rax], cl
	mov	rax, QWORD PTR s$4[rsp]
	inc	rax
	mov	QWORD PTR s$4[rsp], rax
; Line 916
	mov	eax, DWORD PTR pr$2[rsp]
	mov	DWORD PTR tz$16[rsp], eax
$LN243@stbsp_vspr:
; Line 918
	jmp	$LN234@stbsp_vspr
$LN233@stbsp_vspr:
; Line 920
	mov	DWORD PTR n$3[rsp], 0
$LN58@stbsp_vspr:
; Line 922
	mov	eax, DWORD PTR fl$1[rsp]
	and	eax, 64					; 00000040H
	test	eax, eax
	je	SHORT $LN244@stbsp_vspr
	mov	eax, DWORD PTR cs$8[rsp]
	inc	eax
	mov	DWORD PTR cs$8[rsp], eax
	cmp	DWORD PTR cs$8[rsp], 4
	jne	SHORT $LN244@stbsp_vspr
; Line 923
	mov	DWORD PTR cs$8[rsp], 0
; Line 924
	mov	rax, QWORD PTR s$4[rsp]
	movzx	ecx, BYTE PTR ?stbsp__comma@@3DA
	mov	BYTE PTR [rax], cl
	mov	rax, QWORD PTR s$4[rsp]
	inc	rax
	mov	QWORD PTR s$4[rsp], rax
; Line 925
	jmp	SHORT $LN245@stbsp_vspr
$LN244@stbsp_vspr:
; Line 926
	mov	eax, DWORD PTR n$3[rsp]
	mov	rcx, QWORD PTR s$4[rsp]
	mov	rdx, QWORD PTR sn$13[rsp]
	movzx	eax, BYTE PTR [rdx+rax]
	mov	BYTE PTR [rcx], al
	mov	rax, QWORD PTR s$4[rsp]
	inc	rax
	mov	QWORD PTR s$4[rsp], rax
; Line 927
	mov	eax, DWORD PTR n$3[rsp]
	inc	eax
	mov	DWORD PTR n$3[rsp], eax
; Line 928
	mov	eax, DWORD PTR dp$6[rsp]
	cmp	DWORD PTR n$3[rsp], eax
	jb	SHORT $LN246@stbsp_vspr
; Line 929
	jmp	SHORT $LN59@stbsp_vspr
$LN246@stbsp_vspr:
$LN245@stbsp_vspr:
; Line 931
	jmp	SHORT $LN58@stbsp_vspr
$LN59@stbsp_vspr:
; Line 932
	lea	rax, QWORD PTR num$64[rsp+64]
	mov	rcx, QWORD PTR s$4[rsp]
	sub	rcx, rax
	mov	rax, rcx
	add	eax, 50331648				; 03000000H
	mov	DWORD PTR cs$8[rsp], eax
; Line 933
	cmp	DWORD PTR pr$2[rsp], 0
	je	SHORT $LN247@stbsp_vspr
; Line 934
	mov	rax, QWORD PTR s$4[rsp]
	movzx	ecx, BYTE PTR ?stbsp__period@@3DA
	mov	BYTE PTR [rax], cl
	mov	rax, QWORD PTR s$4[rsp]
	inc	rax
	mov	QWORD PTR s$4[rsp], rax
$LN247@stbsp_vspr:
; Line 935
	mov	eax, DWORD PTR dp$6[rsp]
	mov	ecx, DWORD PTR l$5[rsp]
	sub	ecx, eax
	mov	eax, ecx
	cmp	eax, DWORD PTR pr$2[rsp]
	jbe	SHORT $LN248@stbsp_vspr
; Line 936
	mov	eax, DWORD PTR dp$6[rsp]
	mov	ecx, DWORD PTR pr$2[rsp]
	add	ecx, eax
	mov	eax, ecx
	mov	DWORD PTR l$5[rsp], eax
$LN248@stbsp_vspr:
$LN61@stbsp_vspr:
; Line 937
	mov	eax, DWORD PTR l$5[rsp]
	cmp	DWORD PTR n$3[rsp], eax
	jae	SHORT $LN62@stbsp_vspr
; Line 938
	mov	eax, DWORD PTR n$3[rsp]
	mov	rcx, QWORD PTR s$4[rsp]
	mov	rdx, QWORD PTR sn$13[rsp]
	movzx	eax, BYTE PTR [rdx+rax]
	mov	BYTE PTR [rcx], al
	mov	rax, QWORD PTR s$4[rsp]
	inc	rax
	mov	QWORD PTR s$4[rsp], rax
; Line 939
	mov	eax, DWORD PTR n$3[rsp]
	inc	eax
	mov	DWORD PTR n$3[rsp], eax
; Line 940
	jmp	SHORT $LN61@stbsp_vspr
$LN62@stbsp_vspr:
; Line 941
	mov	eax, DWORD PTR dp$6[rsp]
	mov	ecx, DWORD PTR l$5[rsp]
	sub	ecx, eax
	mov	eax, ecx
	mov	ecx, DWORD PTR pr$2[rsp]
	sub	ecx, eax
	mov	eax, ecx
	mov	DWORD PTR tz$16[rsp], eax
$LN234@stbsp_vspr:
$LN228@stbsp_vspr:
; Line 944
	mov	DWORD PTR pr$2[rsp], 0
; Line 947
	mov	eax, DWORD PTR fl$1[rsp]
	and	eax, 256				; 00000100H
	test	eax, eax
	je	$LN249@stbsp_vspr
; Line 949
	mov	BYTE PTR idx$7[rsp], 1
; Line 950
	mov	eax, DWORD PTR fl$1[rsp]
	and	eax, 1024				; 00000400H
	test	eax, eax
	je	SHORT $LN250@stbsp_vspr
; Line 951
	mov	BYTE PTR idx$7[rsp], 0
$LN250@stbsp_vspr:
; Line 952
	mov	eax, 1
	imul	rax, rax, 0
	movzx	ecx, BYTE PTR idx$7[rsp]
	mov	BYTE PTR tail$63[rsp+rax], cl
; Line 953
	mov	eax, 1
	imul	rax, rax, 1
	mov	BYTE PTR tail$63[rsp+rax], 32		; 00000020H
; Line 955
	mov	eax, DWORD PTR fl$1[rsp]
	shr	eax, 24
	test	eax, eax
	je	$LN251@stbsp_vspr
; Line 956
	mov	eax, DWORD PTR fl$1[rsp]
	and	eax, 2048				; 00000800H
	test	eax, eax
	je	SHORT $LN252@stbsp_vspr
; Line 957
	mov	eax, DWORD PTR fl$1[rsp]
	shr	eax, 24
	mov	eax, eax
	lea	rcx, OFFSET FLAT:$SG41978
	movsx	edx, BYTE PTR idx$7[rsp]
	inc	edx
	movsxd	rdx, edx
	movzx	eax, BYTE PTR [rcx+rax]
	mov	BYTE PTR tail$63[rsp+rdx], al
	jmp	SHORT $LN253@stbsp_vspr
$LN252@stbsp_vspr:
; Line 959
	mov	eax, DWORD PTR fl$1[rsp]
	shr	eax, 24
	mov	eax, eax
	lea	rcx, OFFSET FLAT:$SG41979
	movsx	edx, BYTE PTR idx$7[rsp]
	inc	edx
	movsxd	rdx, edx
	movzx	eax, BYTE PTR [rcx+rax]
	mov	BYTE PTR tail$63[rsp+rdx], al
$LN253@stbsp_vspr:
; Line 960
	movzx	eax, BYTE PTR idx$7[rsp]
	inc	al
	mov	BYTE PTR idx$7[rsp], al
; Line 962
	mov	eax, DWORD PTR fl$1[rsp]
	and	eax, 2048				; 00000800H
	test	eax, eax
	je	SHORT $LN254@stbsp_vspr
	mov	eax, DWORD PTR fl$1[rsp]
	and	eax, 4096				; 00001000H
	test	eax, eax
	jne	SHORT $LN254@stbsp_vspr
; Line 963
	movsx	eax, BYTE PTR idx$7[rsp]
	inc	eax
	cdqe
	mov	BYTE PTR tail$63[rsp+rax], 105		; 00000069H
; Line 964
	movzx	eax, BYTE PTR idx$7[rsp]
	inc	al
	mov	BYTE PTR idx$7[rsp], al
$LN254@stbsp_vspr:
; Line 966
	mov	eax, 1
	imul	rax, rax, 0
	movzx	ecx, BYTE PTR idx$7[rsp]
	mov	BYTE PTR tail$63[rsp+rax], cl
$LN251@stbsp_vspr:
$LN249@stbsp_vspr:
$LN218@stbsp_vspr:
$flt_lead$471:
; Line 973
	lea	rax, QWORD PTR num$64[rsp+64]
	mov	rcx, QWORD PTR s$4[rsp]
	sub	rcx, rax
	mov	rax, rcx
	mov	DWORD PTR l$5[rsp], eax
; Line 974
	lea	rax, QWORD PTR num$64[rsp+64]
	mov	QWORD PTR s$4[rsp], rax
; Line 975
	jmp	$LN255@stbsp_vspr
	jmp	$scopy$468
$LN256@stbsp_vspr:
$LN257@stbsp_vspr:
; Line 980
	mov	eax, 1
	imul	rax, rax, 0
	mov	rcx, QWORD PTR f$[rsp]
	movsx	eax, BYTE PTR [rcx+rax]
	cmp	eax, 66					; 00000042H
	jne	SHORT $LN423@stbsp_vspr
	lea	rax, OFFSET FLAT:?hexu@?1??stbsp_vsprintfcb@@9@4PADA
	mov	QWORD PTR tv764[rsp], rax
	jmp	SHORT $LN424@stbsp_vspr
$LN423@stbsp_vspr:
	lea	rax, OFFSET FLAT:?hex@?1??stbsp_vsprintfcb@@9@4PADA
	mov	QWORD PTR tv764[rsp], rax
$LN424@stbsp_vspr:
	mov	rax, QWORD PTR tv764[rsp]
	mov	QWORD PTR h$21[rsp], rax
; Line 981
	mov	eax, 1
	imul	rax, rax, 0
	mov	QWORD PTR $T55[rsp], rax
	cmp	QWORD PTR $T55[rsp], 8
	jae	SHORT $LN425@stbsp_vspr
	jmp	SHORT $LN426@stbsp_vspr
$LN425@stbsp_vspr:
	call	__report_rangecheckfailure
$LN426@stbsp_vspr:
	mov	rax, QWORD PTR $T55[rsp]
	mov	BYTE PTR lead$62[rsp+rax], 0
; Line 982
	mov	eax, DWORD PTR fl$1[rsp]
	and	eax, 8
	test	eax, eax
	je	SHORT $LN258@stbsp_vspr
; Line 983
	mov	eax, 1
	imul	rax, rax, 0
	mov	BYTE PTR lead$62[rsp+rax], 2
; Line 984
	mov	eax, 1
	imul	rax, rax, 1
	mov	BYTE PTR lead$62[rsp+rax], 48		; 00000030H
; Line 985
	mov	eax, 1
	imul	rax, rax, 11
	mov	ecx, 1
	imul	rcx, rcx, 2
	mov	rdx, QWORD PTR h$21[rsp]
	movzx	eax, BYTE PTR [rdx+rax]
	mov	BYTE PTR lead$62[rsp+rcx], al
$LN258@stbsp_vspr:
; Line 987
	mov	DWORD PTR l$5[rsp], 384			; 00000180H
; Line 988
	jmp	$LN259@stbsp_vspr
	jmp	$radixnum$473
$LN260@stbsp_vspr:
; Line 991
	lea	rax, OFFSET FLAT:?hexu@?1??stbsp_vsprintfcb@@9@4PADA
	mov	QWORD PTR h$21[rsp], rax
; Line 992
	mov	eax, 1
	imul	rax, rax, 0
	mov	QWORD PTR $T56[rsp], rax
	cmp	QWORD PTR $T56[rsp], 8
	jae	SHORT $LN427@stbsp_vspr
	jmp	SHORT $LN428@stbsp_vspr
$LN427@stbsp_vspr:
	call	__report_rangecheckfailure
$LN428@stbsp_vspr:
	mov	rax, QWORD PTR $T56[rsp]
	mov	BYTE PTR lead$62[rsp+rax], 0
; Line 993
	mov	eax, DWORD PTR fl$1[rsp]
	and	eax, 8
	test	eax, eax
	je	SHORT $LN261@stbsp_vspr
; Line 994
	mov	eax, 1
	imul	rax, rax, 0
	mov	BYTE PTR lead$62[rsp+rax], 1
; Line 995
	mov	eax, 1
	imul	rax, rax, 1
	mov	BYTE PTR lead$62[rsp+rax], 48		; 00000030H
$LN261@stbsp_vspr:
; Line 997
	mov	DWORD PTR l$5[rsp], 816			; 00000330H
; Line 998
	jmp	$LN262@stbsp_vspr
	jmp	$radixnum$473
$LN263@stbsp_vspr:
; Line 1001
	mov	eax, DWORD PTR fl$1[rsp]
	or	eax, 32					; 00000020H
	mov	DWORD PTR fl$1[rsp], eax
; Line 1002
	mov	DWORD PTR pr$2[rsp], 16
; Line 1003
	mov	eax, DWORD PTR fl$1[rsp]
	and	eax, -17				; ffffffefH
	mov	DWORD PTR fl$1[rsp], eax
$LN264@stbsp_vspr:
$LN265@stbsp_vspr:
; Line 1008
	mov	eax, 1
	imul	rax, rax, 0
	mov	rcx, QWORD PTR f$[rsp]
	movsx	eax, BYTE PTR [rcx+rax]
	cmp	eax, 88					; 00000058H
	jne	SHORT $LN429@stbsp_vspr
	lea	rax, OFFSET FLAT:?hexu@?1??stbsp_vsprintfcb@@9@4PADA
	mov	QWORD PTR tv793[rsp], rax
	jmp	SHORT $LN430@stbsp_vspr
$LN429@stbsp_vspr:
	lea	rax, OFFSET FLAT:?hex@?1??stbsp_vsprintfcb@@9@4PADA
	mov	QWORD PTR tv793[rsp], rax
$LN430@stbsp_vspr:
	mov	rax, QWORD PTR tv793[rsp]
	mov	QWORD PTR h$21[rsp], rax
; Line 1009
	mov	DWORD PTR l$5[rsp], 1088		; 00000440H
; Line 1010
	mov	eax, 1
	imul	rax, rax, 0
	mov	QWORD PTR $T57[rsp], rax
	cmp	QWORD PTR $T57[rsp], 8
	jae	SHORT $LN431@stbsp_vspr
	jmp	SHORT $LN432@stbsp_vspr
$LN431@stbsp_vspr:
	call	__report_rangecheckfailure
$LN432@stbsp_vspr:
	mov	rax, QWORD PTR $T57[rsp]
	mov	BYTE PTR lead$62[rsp+rax], 0
; Line 1011
	mov	eax, DWORD PTR fl$1[rsp]
	and	eax, 8
	test	eax, eax
	je	SHORT $LN266@stbsp_vspr
; Line 1012
	mov	eax, 1
	imul	rax, rax, 0
	mov	BYTE PTR lead$62[rsp+rax], 2
; Line 1013
	mov	eax, 1
	imul	rax, rax, 1
	mov	BYTE PTR lead$62[rsp+rax], 48		; 00000030H
; Line 1014
	mov	eax, 1
	imul	rax, rax, 16
	mov	ecx, 1
	imul	rcx, rcx, 2
	mov	rdx, QWORD PTR h$21[rsp]
	movzx	eax, BYTE PTR [rdx+rax]
	mov	BYTE PTR lead$62[rsp+rcx], al
$LN266@stbsp_vspr:
$LN259@stbsp_vspr:
$LN262@stbsp_vspr:
$radixnum$473:
; Line 1018
	mov	eax, DWORD PTR fl$1[rsp]
	and	eax, 32					; 00000020H
	test	eax, eax
	je	SHORT $LN267@stbsp_vspr
; Line 1019
	xor	eax, eax
	test	eax, eax
	je	SHORT $LN433@stbsp_vspr
	mov	rax, QWORD PTR va$[rsp]
	add	rax, 8
	mov	QWORD PTR va$[rsp], rax
	mov	rax, QWORD PTR va$[rsp]
	mov	rax, QWORD PTR [rax-8]
	mov	rax, QWORD PTR [rax]
	mov	QWORD PTR tv815[rsp], rax
	jmp	SHORT $LN434@stbsp_vspr
$LN433@stbsp_vspr:
	mov	rax, QWORD PTR va$[rsp]
	add	rax, 8
	mov	QWORD PTR va$[rsp], rax
	mov	rax, QWORD PTR va$[rsp]
	mov	rax, QWORD PTR [rax-8]
	mov	QWORD PTR tv815[rsp], rax
$LN434@stbsp_vspr:
	mov	rax, QWORD PTR tv815[rsp]
	mov	QWORD PTR n64$11[rsp], rax
	jmp	SHORT $LN268@stbsp_vspr
$LN267@stbsp_vspr:
; Line 1021
	xor	eax, eax
	test	eax, eax
	je	SHORT $LN435@stbsp_vspr
	mov	rax, QWORD PTR va$[rsp]
	add	rax, 8
	mov	QWORD PTR va$[rsp], rax
	mov	rax, QWORD PTR va$[rsp]
	mov	rax, QWORD PTR [rax-8]
	mov	eax, DWORD PTR [rax]
	mov	DWORD PTR tv822[rsp], eax
	jmp	SHORT $LN436@stbsp_vspr
$LN435@stbsp_vspr:
	mov	rax, QWORD PTR va$[rsp]
	add	rax, 8
	mov	QWORD PTR va$[rsp], rax
	mov	rax, QWORD PTR va$[rsp]
	mov	eax, DWORD PTR [rax-8]
	mov	DWORD PTR tv822[rsp], eax
$LN436@stbsp_vspr:
	mov	eax, DWORD PTR tv822[rsp]
	mov	QWORD PTR n64$11[rsp], rax
$LN268@stbsp_vspr:
; Line 1023
	lea	rax, QWORD PTR num$64[rsp+512]
	mov	QWORD PTR s$4[rsp], rax
; Line 1024
	mov	DWORD PTR dp$6[rsp], 0
; Line 1026
	mov	eax, 1
	imul	rax, rax, 0
	mov	QWORD PTR $T58[rsp], rax
	cmp	QWORD PTR $T58[rsp], 8
	jae	SHORT $LN437@stbsp_vspr
	jmp	SHORT $LN438@stbsp_vspr
$LN437@stbsp_vspr:
	call	__report_rangecheckfailure
$LN438@stbsp_vspr:
	mov	rax, QWORD PTR $T58[rsp]
	mov	BYTE PTR tail$63[rsp+rax], 0
; Line 1027
	cmp	QWORD PTR n64$11[rsp], 0
	jne	SHORT $LN269@stbsp_vspr
; Line 1028
	mov	eax, 1
	imul	rax, rax, 0
	mov	QWORD PTR $T59[rsp], rax
	cmp	QWORD PTR $T59[rsp], 8
	jae	SHORT $LN439@stbsp_vspr
	jmp	SHORT $LN440@stbsp_vspr
$LN439@stbsp_vspr:
	call	__report_rangecheckfailure
$LN440@stbsp_vspr:
	mov	rax, QWORD PTR $T59[rsp]
	mov	BYTE PTR lead$62[rsp+rax], 0
; Line 1029
	cmp	DWORD PTR pr$2[rsp], 0
	jne	SHORT $LN270@stbsp_vspr
; Line 1030
	mov	DWORD PTR l$5[rsp], 0
; Line 1031
	mov	DWORD PTR cs$8[rsp], 0
; Line 1032
	jmp	$LN271@stbsp_vspr
	jmp	$scopy$468
$LN270@stbsp_vspr:
$LN269@stbsp_vspr:
$LN63@stbsp_vspr:
; Line 1037
	mov	rax, QWORD PTR s$4[rsp]
	dec	rax
	mov	QWORD PTR s$4[rsp], rax
	mov	eax, DWORD PTR l$5[rsp]
	shr	eax, 8
	mov	ecx, 1
	mov	DWORD PTR tv1973[rsp], ecx
	movzx	ecx, al
	mov	eax, DWORD PTR tv1973[rsp]
	shl	eax, cl
	dec	eax
	cdqe
	mov	rcx, QWORD PTR n64$11[rsp]
	and	rcx, rax
	mov	rax, rcx
	mov	rcx, QWORD PTR s$4[rsp]
	mov	rdx, QWORD PTR h$21[rsp]
	movzx	eax, BYTE PTR [rdx+rax]
	mov	BYTE PTR [rcx], al
; Line 1038
	mov	eax, DWORD PTR l$5[rsp]
	shr	eax, 8
	mov	eax, eax
	movzx	ecx, al
	mov	rax, QWORD PTR n64$11[rsp]
	shr	rax, cl
	mov	QWORD PTR n64$11[rsp], rax
; Line 1039
	cmp	QWORD PTR n64$11[rsp], 0
	jne	SHORT $LN272@stbsp_vspr
	lea	rax, QWORD PTR num$64[rsp+512]
	sub	rax, QWORD PTR s$4[rsp]
	cmp	eax, DWORD PTR pr$2[rsp]
	jl	SHORT $LN272@stbsp_vspr
; Line 1040
	jmp	SHORT $LN64@stbsp_vspr
$LN272@stbsp_vspr:
; Line 1041
	mov	eax, DWORD PTR fl$1[rsp]
	and	eax, 64					; 00000040H
	test	eax, eax
	je	SHORT $LN273@stbsp_vspr
; Line 1042
	mov	eax, DWORD PTR l$5[rsp]
	inc	eax
	mov	DWORD PTR l$5[rsp], eax
; Line 1043
	mov	eax, DWORD PTR l$5[rsp]
	and	eax, 15
	mov	ecx, DWORD PTR l$5[rsp]
	shr	ecx, 4
	and	ecx, 15
	cmp	eax, ecx
	jne	SHORT $LN274@stbsp_vspr
; Line 1044
	mov	eax, DWORD PTR l$5[rsp]
	and	eax, -16				; fffffff0H
	mov	DWORD PTR l$5[rsp], eax
; Line 1045
	mov	rax, QWORD PTR s$4[rsp]
	dec	rax
	mov	QWORD PTR s$4[rsp], rax
	mov	rax, QWORD PTR s$4[rsp]
	movzx	ecx, BYTE PTR ?stbsp__comma@@3DA
	mov	BYTE PTR [rax], cl
$LN274@stbsp_vspr:
$LN273@stbsp_vspr:
; Line 1048
	jmp	$LN63@stbsp_vspr
$LN64@stbsp_vspr:
; Line 1050
	lea	rax, QWORD PTR num$64[rsp+512]
	sub	rax, QWORD PTR s$4[rsp]
	mov	ecx, DWORD PTR l$5[rsp]
	shr	ecx, 4
	and	ecx, 15
	shl	ecx, 24
	add	eax, ecx
	mov	DWORD PTR cs$8[rsp], eax
; Line 1052
	lea	rax, QWORD PTR num$64[rsp+512]
	sub	rax, QWORD PTR s$4[rsp]
	mov	DWORD PTR l$5[rsp], eax
; Line 1054
	jmp	$LN275@stbsp_vspr
	jmp	$scopy$468
$LN276@stbsp_vspr:
$LN277@stbsp_vspr:
$LN278@stbsp_vspr:
; Line 1060
	mov	eax, DWORD PTR fl$1[rsp]
	and	eax, 32					; 00000020H
	test	eax, eax
	je	$LN279@stbsp_vspr
; Line 1061
	xor	eax, eax
	test	eax, eax
	je	SHORT $LN441@stbsp_vspr
	mov	rax, QWORD PTR va$[rsp]
	add	rax, 8
	mov	QWORD PTR va$[rsp], rax
	mov	rax, QWORD PTR va$[rsp]
	mov	rax, QWORD PTR [rax-8]
	mov	rax, QWORD PTR [rax]
	mov	QWORD PTR tv876[rsp], rax
	jmp	SHORT $LN442@stbsp_vspr
$LN441@stbsp_vspr:
	mov	rax, QWORD PTR va$[rsp]
	add	rax, 8
	mov	QWORD PTR va$[rsp], rax
	mov	rax, QWORD PTR va$[rsp]
	mov	rax, QWORD PTR [rax-8]
	mov	QWORD PTR tv876[rsp], rax
$LN442@stbsp_vspr:
	mov	rax, QWORD PTR tv876[rsp]
	mov	QWORD PTR i64$46[rsp], rax
; Line 1062
	mov	rax, QWORD PTR i64$46[rsp]
	mov	QWORD PTR n64$11[rsp], rax
; Line 1063
	mov	eax, 1
	imul	rax, rax, 0
	mov	rcx, QWORD PTR f$[rsp]
	movsx	eax, BYTE PTR [rcx+rax]
	cmp	eax, 117				; 00000075H
	je	SHORT $LN281@stbsp_vspr
	cmp	QWORD PTR i64$46[rsp], 0
	jge	SHORT $LN281@stbsp_vspr
; Line 1064
	mov	rax, QWORD PTR i64$46[rsp]
	neg	rax
	mov	QWORD PTR n64$11[rsp], rax
; Line 1065
	mov	eax, DWORD PTR fl$1[rsp]
	bts	eax, 7
	mov	DWORD PTR fl$1[rsp], eax
$LN281@stbsp_vspr:
; Line 1067
	jmp	$LN280@stbsp_vspr
$LN279@stbsp_vspr:
; Line 1068
	xor	eax, eax
	test	eax, eax
	je	SHORT $LN443@stbsp_vspr
	mov	rax, QWORD PTR va$[rsp]
	add	rax, 8
	mov	QWORD PTR va$[rsp], rax
	mov	rax, QWORD PTR va$[rsp]
	mov	rax, QWORD PTR [rax-8]
	mov	eax, DWORD PTR [rax]
	mov	DWORD PTR tv890[rsp], eax
	jmp	SHORT $LN444@stbsp_vspr
$LN443@stbsp_vspr:
	mov	rax, QWORD PTR va$[rsp]
	add	rax, 8
	mov	QWORD PTR va$[rsp], rax
	mov	rax, QWORD PTR va$[rsp]
	mov	eax, DWORD PTR [rax-8]
	mov	DWORD PTR tv890[rsp], eax
$LN444@stbsp_vspr:
	mov	eax, DWORD PTR tv890[rsp]
	mov	DWORD PTR i$32[rsp], eax
; Line 1069
	mov	eax, DWORD PTR i$32[rsp]
	mov	QWORD PTR n64$11[rsp], rax
; Line 1070
	mov	eax, 1
	imul	rax, rax, 0
	mov	rcx, QWORD PTR f$[rsp]
	movsx	eax, BYTE PTR [rcx+rax]
	cmp	eax, 117				; 00000075H
	je	SHORT $LN282@stbsp_vspr
	cmp	DWORD PTR i$32[rsp], 0
	jge	SHORT $LN282@stbsp_vspr
; Line 1071
	mov	eax, DWORD PTR i$32[rsp]
	neg	eax
	mov	eax, eax
	mov	QWORD PTR n64$11[rsp], rax
; Line 1072
	mov	eax, DWORD PTR fl$1[rsp]
	bts	eax, 7
	mov	DWORD PTR fl$1[rsp], eax
$LN282@stbsp_vspr:
$LN280@stbsp_vspr:
; Line 1077
	mov	eax, DWORD PTR fl$1[rsp]
	and	eax, 256				; 00000100H
	test	eax, eax
	je	SHORT $LN283@stbsp_vspr
; Line 1078
	cmp	QWORD PTR n64$11[rsp], 1024		; 00000400H
	jae	SHORT $LN284@stbsp_vspr
; Line 1079
	mov	DWORD PTR pr$2[rsp], 0
	jmp	SHORT $LN285@stbsp_vspr
$LN284@stbsp_vspr:
; Line 1080
	cmp	DWORD PTR pr$2[rsp], -1
	jne	SHORT $LN286@stbsp_vspr
; Line 1081
	mov	DWORD PTR pr$2[rsp], 1
$LN286@stbsp_vspr:
$LN285@stbsp_vspr:
; Line 1082
	cvtsi2sd xmm0, QWORD PTR n64$11[rsp]
	movsd	QWORD PTR fv$20[rsp], xmm0
; Line 1083
	jmp	$doafloat$472
$LN283@stbsp_vspr:
; Line 1088
	lea	rax, QWORD PTR num$64[rsp+512]
	mov	QWORD PTR s$4[rsp], rax
; Line 1089
	mov	DWORD PTR l$5[rsp], 0
$LN66@stbsp_vspr:
; Line 1093
	mov	rax, QWORD PTR s$4[rsp]
	sub	rax, 8
	mov	QWORD PTR o$44[rsp], rax
; Line 1094
	cmp	QWORD PTR n64$11[rsp], 100000000	; 05f5e100H
	jb	SHORT $LN287@stbsp_vspr
; Line 1095
	xor	edx, edx
	mov	rax, QWORD PTR n64$11[rsp]
	mov	ecx, 100000000				; 05f5e100H
	div	rcx
	mov	rax, rdx
	mov	DWORD PTR n$3[rsp], eax
; Line 1096
	xor	edx, edx
	mov	rax, QWORD PTR n64$11[rsp]
	mov	ecx, 100000000				; 05f5e100H
	div	rcx
	mov	QWORD PTR n64$11[rsp], rax
; Line 1097
	jmp	SHORT $LN288@stbsp_vspr
$LN287@stbsp_vspr:
; Line 1098
	mov	eax, DWORD PTR n64$11[rsp]
	mov	DWORD PTR n$3[rsp], eax
; Line 1099
	mov	QWORD PTR n64$11[rsp], 0
$LN288@stbsp_vspr:
; Line 1101
	mov	eax, DWORD PTR fl$1[rsp]
	and	eax, 64					; 00000040H
	test	eax, eax
	jne	SHORT $LN289@stbsp_vspr
$LN71@stbsp_vspr:
; Line 1103
	mov	rax, QWORD PTR s$4[rsp]
	sub	rax, 2
	mov	QWORD PTR s$4[rsp], rax
; Line 1104
	xor	edx, edx
	mov	eax, DWORD PTR n$3[rsp]
	mov	ecx, 100				; 00000064H
	div	ecx
	mov	eax, edx
	shl	eax, 1
	mov	eax, eax
	lea	rcx, OFFSET FLAT:?stbsp__digitpair@@3U<unnamed-type-stbsp__digitpair>@@A+2
	mov	rdx, QWORD PTR s$4[rsp]
	movzx	eax, WORD PTR [rcx+rax]
	mov	WORD PTR [rdx], ax
; Line 1105
	xor	edx, edx
	mov	eax, DWORD PTR n$3[rsp]
	mov	ecx, 100				; 00000064H
	div	ecx
	mov	DWORD PTR n$3[rsp], eax
; Line 1106
	cmp	DWORD PTR n$3[rsp], 0
	jne	SHORT $LN71@stbsp_vspr
$LN289@stbsp_vspr:
$LN72@stbsp_vspr:
; Line 1108
	cmp	DWORD PTR n$3[rsp], 0
	je	$LN73@stbsp_vspr
; Line 1109
	mov	eax, DWORD PTR fl$1[rsp]
	and	eax, 64					; 00000040H
	test	eax, eax
	je	SHORT $LN290@stbsp_vspr
	mov	eax, DWORD PTR l$5[rsp]
	mov	DWORD PTR tv926[rsp], eax
	mov	eax, DWORD PTR l$5[rsp]
	inc	eax
	mov	DWORD PTR l$5[rsp], eax
	cmp	DWORD PTR tv926[rsp], 3
	jne	SHORT $LN290@stbsp_vspr
; Line 1110
	mov	DWORD PTR l$5[rsp], 0
; Line 1111
	mov	rax, QWORD PTR s$4[rsp]
	dec	rax
	mov	QWORD PTR s$4[rsp], rax
	mov	rax, QWORD PTR s$4[rsp]
	movzx	ecx, BYTE PTR ?stbsp__comma@@3DA
	mov	BYTE PTR [rax], cl
; Line 1112
	mov	rax, QWORD PTR o$44[rsp]
	dec	rax
	mov	QWORD PTR o$44[rsp], rax
; Line 1113
	jmp	SHORT $LN291@stbsp_vspr
$LN290@stbsp_vspr:
; Line 1114
	mov	rax, QWORD PTR s$4[rsp]
	dec	rax
	mov	QWORD PTR s$4[rsp], rax
	xor	edx, edx
	mov	eax, DWORD PTR n$3[rsp]
	mov	ecx, 10
	div	ecx
	mov	eax, edx
	movsx	eax, al
	add	eax, 48					; 00000030H
	mov	rcx, QWORD PTR s$4[rsp]
	mov	BYTE PTR [rcx], al
; Line 1115
	xor	edx, edx
	mov	eax, DWORD PTR n$3[rsp]
	mov	ecx, 10
	div	ecx
	mov	DWORD PTR n$3[rsp], eax
$LN291@stbsp_vspr:
; Line 1117
	jmp	$LN72@stbsp_vspr
$LN73@stbsp_vspr:
; Line 1118
	cmp	QWORD PTR n64$11[rsp], 0
	jne	SHORT $LN292@stbsp_vspr
; Line 1119
	mov	eax, 1
	imul	rax, rax, 0
	mov	rcx, QWORD PTR s$4[rsp]
	movsx	eax, BYTE PTR [rcx+rax]
	cmp	eax, 48					; 00000030H
	jne	SHORT $LN293@stbsp_vspr
	lea	rax, QWORD PTR num$64[rsp+512]
	cmp	QWORD PTR s$4[rsp], rax
	je	SHORT $LN293@stbsp_vspr
; Line 1120
	mov	rax, QWORD PTR s$4[rsp]
	inc	rax
	mov	QWORD PTR s$4[rsp], rax
$LN293@stbsp_vspr:
; Line 1121
	jmp	$LN67@stbsp_vspr
$LN292@stbsp_vspr:
$LN74@stbsp_vspr:
; Line 1123
	mov	rax, QWORD PTR o$44[rsp]
	cmp	QWORD PTR s$4[rsp], rax
	je	SHORT $LN75@stbsp_vspr
; Line 1124
	mov	eax, DWORD PTR fl$1[rsp]
	and	eax, 64					; 00000040H
	test	eax, eax
	je	SHORT $LN294@stbsp_vspr
	mov	eax, DWORD PTR l$5[rsp]
	mov	DWORD PTR tv949[rsp], eax
	mov	eax, DWORD PTR l$5[rsp]
	inc	eax
	mov	DWORD PTR l$5[rsp], eax
	cmp	DWORD PTR tv949[rsp], 3
	jne	SHORT $LN294@stbsp_vspr
; Line 1125
	mov	DWORD PTR l$5[rsp], 0
; Line 1126
	mov	rax, QWORD PTR s$4[rsp]
	dec	rax
	mov	QWORD PTR s$4[rsp], rax
	mov	rax, QWORD PTR s$4[rsp]
	movzx	ecx, BYTE PTR ?stbsp__comma@@3DA
	mov	BYTE PTR [rax], cl
; Line 1127
	mov	rax, QWORD PTR o$44[rsp]
	dec	rax
	mov	QWORD PTR o$44[rsp], rax
; Line 1128
	jmp	SHORT $LN295@stbsp_vspr
$LN294@stbsp_vspr:
; Line 1129
	mov	rax, QWORD PTR s$4[rsp]
	dec	rax
	mov	QWORD PTR s$4[rsp], rax
	mov	rax, QWORD PTR s$4[rsp]
	mov	BYTE PTR [rax], 48			; 00000030H
$LN295@stbsp_vspr:
; Line 1130
	jmp	$LN74@stbsp_vspr
$LN75@stbsp_vspr:
; Line 1131
	jmp	$LN66@stbsp_vspr
$LN67@stbsp_vspr:
; Line 1133
	mov	eax, 1
	imul	rax, rax, 0
	mov	QWORD PTR $T60[rsp], rax
	cmp	QWORD PTR $T60[rsp], 8
	jae	SHORT $LN445@stbsp_vspr
	jmp	SHORT $LN446@stbsp_vspr
$LN445@stbsp_vspr:
	call	__report_rangecheckfailure
$LN446@stbsp_vspr:
	mov	rax, QWORD PTR $T60[rsp]
	mov	BYTE PTR tail$63[rsp+rax], 0
; Line 1134
	lea	rdx, QWORD PTR lead$62[rsp]
	mov	ecx, DWORD PTR fl$1[rsp]
	call	?stbsp__lead_sign@@YAXIPEAD@Z		; stbsp__lead_sign
; Line 1137
	lea	rax, QWORD PTR num$64[rsp+512]
	sub	rax, QWORD PTR s$4[rsp]
	mov	DWORD PTR l$5[rsp], eax
; Line 1138
	cmp	DWORD PTR l$5[rsp], 0
	jne	SHORT $LN296@stbsp_vspr
; Line 1139
	mov	rax, QWORD PTR s$4[rsp]
	dec	rax
	mov	QWORD PTR s$4[rsp], rax
	mov	rax, QWORD PTR s$4[rsp]
	mov	BYTE PTR [rax], 48			; 00000030H
; Line 1140
	mov	DWORD PTR l$5[rsp], 1
$LN296@stbsp_vspr:
; Line 1142
	mov	eax, DWORD PTR l$5[rsp]
	add	eax, 50331648				; 03000000H
	mov	DWORD PTR cs$8[rsp], eax
; Line 1143
	cmp	DWORD PTR pr$2[rsp], 0
	jge	SHORT $LN297@stbsp_vspr
; Line 1144
	mov	DWORD PTR pr$2[rsp], 0
$LN297@stbsp_vspr:
$LN173@stbsp_vspr:
$LN175@stbsp_vspr:
$LN190@stbsp_vspr:
$LN212@stbsp_vspr:
$LN226@stbsp_vspr:
$LN255@stbsp_vspr:
$LN271@stbsp_vspr:
$LN275@stbsp_vspr:
$scopy$468:
; Line 1148
	mov	eax, DWORD PTR l$5[rsp]
	cmp	DWORD PTR pr$2[rsp], eax
	jge	SHORT $LN298@stbsp_vspr
; Line 1149
	mov	eax, DWORD PTR l$5[rsp]
	mov	DWORD PTR pr$2[rsp], eax
$LN298@stbsp_vspr:
; Line 1150
	mov	eax, 1
	imul	rax, rax, 0
	movsx	eax, BYTE PTR lead$62[rsp+rax]
	mov	ecx, DWORD PTR pr$2[rsp]
	add	ecx, eax
	mov	eax, ecx
	mov	ecx, 1
	imul	rcx, rcx, 0
	movsx	ecx, BYTE PTR tail$63[rsp+rcx]
	mov	edx, DWORD PTR tz$16[rsp]
	add	edx, eax
	mov	eax, edx
	add	ecx, eax
	mov	eax, ecx
	mov	DWORD PTR n$3[rsp], eax
; Line 1151
	mov	eax, DWORD PTR n$3[rsp]
	cmp	DWORD PTR fw$10[rsp], eax
	jge	SHORT $LN299@stbsp_vspr
; Line 1152
	mov	eax, DWORD PTR n$3[rsp]
	mov	DWORD PTR fw$10[rsp], eax
$LN299@stbsp_vspr:
; Line 1153
	mov	eax, DWORD PTR n$3[rsp]
	mov	ecx, DWORD PTR fw$10[rsp]
	sub	ecx, eax
	mov	eax, ecx
	mov	DWORD PTR fw$10[rsp], eax
; Line 1154
	mov	eax, DWORD PTR l$5[rsp]
	mov	ecx, DWORD PTR pr$2[rsp]
	sub	ecx, eax
	mov	eax, ecx
	mov	DWORD PTR pr$2[rsp], eax
; Line 1157
	mov	eax, DWORD PTR fl$1[rsp]
	and	eax, 1
	test	eax, eax
	jne	SHORT $LN300@stbsp_vspr
; Line 1158
	mov	eax, DWORD PTR fl$1[rsp]
	and	eax, 16
	test	eax, eax
	je	SHORT $LN301@stbsp_vspr
; Line 1160
	mov	eax, DWORD PTR pr$2[rsp]
	cmp	DWORD PTR fw$10[rsp], eax
	jle	SHORT $LN447@stbsp_vspr
	mov	eax, DWORD PTR fw$10[rsp]
	mov	DWORD PTR tv983[rsp], eax
	jmp	SHORT $LN448@stbsp_vspr
$LN447@stbsp_vspr:
	mov	eax, DWORD PTR pr$2[rsp]
	mov	DWORD PTR tv983[rsp], eax
$LN448@stbsp_vspr:
	mov	eax, DWORD PTR tv983[rsp]
	mov	DWORD PTR pr$2[rsp], eax
; Line 1161
	mov	DWORD PTR fw$10[rsp], 0
; Line 1162
	jmp	SHORT $LN302@stbsp_vspr
$LN301@stbsp_vspr:
; Line 1163
	mov	eax, DWORD PTR fl$1[rsp]
	and	eax, -65				; ffffffbfH
	mov	DWORD PTR fl$1[rsp], eax
$LN302@stbsp_vspr:
$LN300@stbsp_vspr:
; Line 1168
	mov	eax, DWORD PTR pr$2[rsp]
	mov	ecx, DWORD PTR fw$10[rsp]
	add	ecx, eax
	mov	eax, ecx
	test	eax, eax
	je	$LN303@stbsp_vspr
; Line 1173
	mov	eax, DWORD PTR fl$1[rsp]
	and	eax, 1
	test	eax, eax
	jne	$LN304@stbsp_vspr
$LN76@stbsp_vspr:
; Line 1174
	cmp	DWORD PTR fw$10[rsp], 0
	jle	$LN77@stbsp_vspr
; Line 1175
	mov	eax, DWORD PTR fw$10[rsp]
	mov	DWORD PTR i$9[rsp], eax
	cmp	QWORD PTR callback$[rsp], 0
	je	SHORT $LN305@stbsp_vspr
	mov	rax, QWORD PTR buf$[rsp]
	mov	rcx, QWORD PTR bf$[rsp]
	sub	rcx, rax
	mov	rax, rcx
	mov	ecx, 512				; 00000200H
	sub	ecx, eax
	mov	eax, ecx
	mov	DWORD PTR lg$35[rsp], eax
	mov	eax, DWORD PTR lg$35[rsp]
	cmp	DWORD PTR i$9[rsp], eax
	jle	SHORT $LN306@stbsp_vspr
	mov	eax, DWORD PTR lg$35[rsp]
	mov	DWORD PTR i$9[rsp], eax
$LN306@stbsp_vspr:
$LN305@stbsp_vspr:
; Line 1176
	mov	eax, DWORD PTR i$9[rsp]
	mov	ecx, DWORD PTR fw$10[rsp]
	sub	ecx, eax
	mov	eax, ecx
	mov	DWORD PTR fw$10[rsp], eax
$LN78@stbsp_vspr:
; Line 1177
	cmp	DWORD PTR i$9[rsp], 0
	je	SHORT $LN79@stbsp_vspr
; Line 1178
	mov	rax, QWORD PTR bf$[rsp]
	and	rax, 3
	test	rax, rax
	jne	SHORT $LN307@stbsp_vspr
; Line 1179
	jmp	SHORT $LN79@stbsp_vspr
$LN307@stbsp_vspr:
; Line 1180
	mov	rax, QWORD PTR bf$[rsp]
	mov	BYTE PTR [rax], 32			; 00000020H
	mov	rax, QWORD PTR bf$[rsp]
	inc	rax
	mov	QWORD PTR bf$[rsp], rax
; Line 1181
	mov	eax, DWORD PTR i$9[rsp]
	dec	eax
	mov	DWORD PTR i$9[rsp], eax
; Line 1182
	jmp	SHORT $LN78@stbsp_vspr
$LN79@stbsp_vspr:
$LN80@stbsp_vspr:
; Line 1183
	cmp	DWORD PTR i$9[rsp], 4
	jl	SHORT $LN81@stbsp_vspr
; Line 1184
	mov	rax, QWORD PTR bf$[rsp]
	mov	DWORD PTR [rax], 538976288		; 20202020H
; Line 1185
	mov	rax, QWORD PTR bf$[rsp]
	add	rax, 4
	mov	QWORD PTR bf$[rsp], rax
; Line 1186
	mov	eax, DWORD PTR i$9[rsp]
	sub	eax, 4
	mov	DWORD PTR i$9[rsp], eax
; Line 1187
	jmp	SHORT $LN80@stbsp_vspr
$LN81@stbsp_vspr:
$LN82@stbsp_vspr:
; Line 1188
	cmp	DWORD PTR i$9[rsp], 0
	je	SHORT $LN83@stbsp_vspr
; Line 1189
	mov	rax, QWORD PTR bf$[rsp]
	mov	BYTE PTR [rax], 32			; 00000020H
	mov	rax, QWORD PTR bf$[rsp]
	inc	rax
	mov	QWORD PTR bf$[rsp], rax
; Line 1190
	mov	eax, DWORD PTR i$9[rsp]
	dec	eax
	mov	DWORD PTR i$9[rsp], eax
; Line 1191
	jmp	SHORT $LN82@stbsp_vspr
$LN83@stbsp_vspr:
; Line 1192
	cmp	QWORD PTR callback$[rsp], 0
	je	$LN308@stbsp_vspr
	mov	rax, QWORD PTR buf$[rsp]
	mov	rcx, QWORD PTR bf$[rsp]
	sub	rcx, rax
	mov	rax, rcx
	mov	DWORD PTR len$33[rsp], eax
	mov	eax, DWORD PTR len$33[rsp]
	inc	eax
	cmp	eax, 512				; 00000200H
	jl	SHORT $LN309@stbsp_vspr
	mov	eax, DWORD PTR len$33[rsp]
	mov	ecx, DWORD PTR tlen$[rsp]
	add	ecx, eax
	mov	eax, ecx
	mov	DWORD PTR tlen$[rsp], eax
	mov	rax, QWORD PTR callback$[rsp]
	mov	QWORD PTR tv1018[rsp], rax
	mov	r8d, DWORD PTR len$33[rsp]
	mov	rdx, QWORD PTR user$[rsp]
	mov	rcx, QWORD PTR buf$[rsp]
	call	QWORD PTR tv1018[rsp]
	mov	QWORD PTR buf$[rsp], rax
	mov	rax, QWORD PTR buf$[rsp]
	mov	QWORD PTR bf$[rsp], rax
	cmp	QWORD PTR bf$[rsp], 0
	jne	SHORT $LN310@stbsp_vspr
	jmp	$LN311@stbsp_vspr
	jmp	$done$466
$LN310@stbsp_vspr:
$LN309@stbsp_vspr:
$LN308@stbsp_vspr:
; Line 1193
	jmp	$LN76@stbsp_vspr
$LN77@stbsp_vspr:
$LN304@stbsp_vspr:
; Line 1196
	lea	rax, QWORD PTR lead$62[rsp+1]
	mov	QWORD PTR sn$13[rsp], rax
$LN84@stbsp_vspr:
; Line 1197
	mov	eax, 1
	imul	rax, rax, 0
	movsx	eax, BYTE PTR lead$62[rsp+rax]
	test	eax, eax
	je	$LN85@stbsp_vspr
; Line 1198
	mov	eax, 1
	imul	rax, rax, 0
	movsx	eax, BYTE PTR lead$62[rsp+rax]
	mov	DWORD PTR i$9[rsp], eax
	cmp	QWORD PTR callback$[rsp], 0
	je	SHORT $LN312@stbsp_vspr
	mov	rax, QWORD PTR buf$[rsp]
	mov	rcx, QWORD PTR bf$[rsp]
	sub	rcx, rax
	mov	rax, rcx
	mov	ecx, 512				; 00000200H
	sub	ecx, eax
	mov	eax, ecx
	mov	DWORD PTR lg$36[rsp], eax
	mov	eax, DWORD PTR lg$36[rsp]
	cmp	DWORD PTR i$9[rsp], eax
	jle	SHORT $LN313@stbsp_vspr
	mov	eax, DWORD PTR lg$36[rsp]
	mov	DWORD PTR i$9[rsp], eax
$LN313@stbsp_vspr:
$LN312@stbsp_vspr:
; Line 1199
	movsx	eax, BYTE PTR i$9[rsp]
	mov	ecx, 1
	imul	rcx, rcx, 0
	movsx	ecx, BYTE PTR lead$62[rsp+rcx]
	sub	ecx, eax
	mov	eax, ecx
	mov	ecx, 1
	imul	rcx, rcx, 0
	mov	BYTE PTR lead$62[rsp+rcx], al
$LN86@stbsp_vspr:
; Line 1200
	cmp	DWORD PTR i$9[rsp], 0
	je	SHORT $LN87@stbsp_vspr
; Line 1201
	mov	rax, QWORD PTR sn$13[rsp]
	movzx	eax, BYTE PTR [rax]
	mov	BYTE PTR tv1045[rsp], al
	mov	rax, QWORD PTR sn$13[rsp]
	inc	rax
	mov	QWORD PTR sn$13[rsp], rax
	mov	rax, QWORD PTR bf$[rsp]
	movzx	ecx, BYTE PTR tv1045[rsp]
	mov	BYTE PTR [rax], cl
	mov	rax, QWORD PTR bf$[rsp]
	inc	rax
	mov	QWORD PTR bf$[rsp], rax
; Line 1202
	mov	eax, DWORD PTR i$9[rsp]
	dec	eax
	mov	DWORD PTR i$9[rsp], eax
; Line 1203
	jmp	SHORT $LN86@stbsp_vspr
$LN87@stbsp_vspr:
; Line 1204
	cmp	QWORD PTR callback$[rsp], 0
	je	$LN314@stbsp_vspr
	mov	rax, QWORD PTR buf$[rsp]
	mov	rcx, QWORD PTR bf$[rsp]
	sub	rcx, rax
	mov	rax, rcx
	mov	DWORD PTR len$23[rsp], eax
	mov	eax, DWORD PTR len$23[rsp]
	inc	eax
	cmp	eax, 512				; 00000200H
	jl	SHORT $LN315@stbsp_vspr
	mov	eax, DWORD PTR len$23[rsp]
	mov	ecx, DWORD PTR tlen$[rsp]
	add	ecx, eax
	mov	eax, ecx
	mov	DWORD PTR tlen$[rsp], eax
	mov	rax, QWORD PTR callback$[rsp]
	mov	QWORD PTR tv1058[rsp], rax
	mov	r8d, DWORD PTR len$23[rsp]
	mov	rdx, QWORD PTR user$[rsp]
	mov	rcx, QWORD PTR buf$[rsp]
	call	QWORD PTR tv1058[rsp]
	mov	QWORD PTR buf$[rsp], rax
	mov	rax, QWORD PTR buf$[rsp]
	mov	QWORD PTR bf$[rsp], rax
	cmp	QWORD PTR bf$[rsp], 0
	jne	SHORT $LN316@stbsp_vspr
	jmp	$LN317@stbsp_vspr
	jmp	$done$466
$LN316@stbsp_vspr:
$LN315@stbsp_vspr:
$LN314@stbsp_vspr:
; Line 1205
	jmp	$LN84@stbsp_vspr
$LN85@stbsp_vspr:
; Line 1208
	mov	eax, DWORD PTR cs$8[rsp]
	shr	eax, 24
	mov	DWORD PTR c$24[rsp], eax
; Line 1209
	mov	eax, DWORD PTR cs$8[rsp]
	and	eax, 16777215				; 00ffffffH
	mov	DWORD PTR cs$8[rsp], eax
; Line 1210
	mov	eax, DWORD PTR fl$1[rsp]
	and	eax, 64					; 00000040H
	test	eax, eax
	je	SHORT $LN449@stbsp_vspr
	mov	eax, DWORD PTR cs$8[rsp]
	mov	ecx, DWORD PTR pr$2[rsp]
	add	ecx, eax
	mov	eax, ecx
	mov	ecx, DWORD PTR c$24[rsp]
	inc	ecx
	xor	edx, edx
	div	ecx
	mov	eax, edx
	mov	ecx, DWORD PTR c$24[rsp]
	sub	ecx, eax
	mov	eax, ecx
	mov	DWORD PTR tv1068[rsp], eax
	jmp	SHORT $LN450@stbsp_vspr
$LN449@stbsp_vspr:
	mov	DWORD PTR tv1068[rsp], 0
$LN450@stbsp_vspr:
	mov	eax, DWORD PTR tv1068[rsp]
	mov	DWORD PTR cs$8[rsp], eax
$LN88@stbsp_vspr:
; Line 1211
	cmp	DWORD PTR pr$2[rsp], 0
	jle	$LN89@stbsp_vspr
; Line 1212
	mov	eax, DWORD PTR pr$2[rsp]
	mov	DWORD PTR i$9[rsp], eax
	cmp	QWORD PTR callback$[rsp], 0
	je	SHORT $LN318@stbsp_vspr
	mov	rax, QWORD PTR buf$[rsp]
	mov	rcx, QWORD PTR bf$[rsp]
	sub	rcx, rax
	mov	rax, rcx
	mov	ecx, 512				; 00000200H
	sub	ecx, eax
	mov	eax, ecx
	mov	DWORD PTR lg$37[rsp], eax
	mov	eax, DWORD PTR lg$37[rsp]
	cmp	DWORD PTR i$9[rsp], eax
	jle	SHORT $LN319@stbsp_vspr
	mov	eax, DWORD PTR lg$37[rsp]
	mov	DWORD PTR i$9[rsp], eax
$LN319@stbsp_vspr:
$LN318@stbsp_vspr:
; Line 1213
	mov	eax, DWORD PTR i$9[rsp]
	mov	ecx, DWORD PTR pr$2[rsp]
	sub	ecx, eax
	mov	eax, ecx
	mov	DWORD PTR pr$2[rsp], eax
; Line 1214
	mov	eax, DWORD PTR fl$1[rsp]
	and	eax, 64					; 00000040H
	test	eax, eax
	jne	SHORT $LN320@stbsp_vspr
$LN90@stbsp_vspr:
; Line 1215
	cmp	DWORD PTR i$9[rsp], 0
	je	SHORT $LN91@stbsp_vspr
; Line 1216
	mov	rax, QWORD PTR bf$[rsp]
	and	rax, 3
	test	rax, rax
	jne	SHORT $LN321@stbsp_vspr
; Line 1217
	jmp	SHORT $LN91@stbsp_vspr
$LN321@stbsp_vspr:
; Line 1218
	mov	rax, QWORD PTR bf$[rsp]
	mov	BYTE PTR [rax], 48			; 00000030H
	mov	rax, QWORD PTR bf$[rsp]
	inc	rax
	mov	QWORD PTR bf$[rsp], rax
; Line 1219
	mov	eax, DWORD PTR i$9[rsp]
	dec	eax
	mov	DWORD PTR i$9[rsp], eax
; Line 1220
	jmp	SHORT $LN90@stbsp_vspr
$LN91@stbsp_vspr:
$LN92@stbsp_vspr:
; Line 1221
	cmp	DWORD PTR i$9[rsp], 4
	jl	SHORT $LN93@stbsp_vspr
; Line 1222
	mov	rax, QWORD PTR bf$[rsp]
	mov	DWORD PTR [rax], 808464432		; 30303030H
; Line 1223
	mov	rax, QWORD PTR bf$[rsp]
	add	rax, 4
	mov	QWORD PTR bf$[rsp], rax
; Line 1224
	mov	eax, DWORD PTR i$9[rsp]
	sub	eax, 4
	mov	DWORD PTR i$9[rsp], eax
; Line 1225
	jmp	SHORT $LN92@stbsp_vspr
$LN93@stbsp_vspr:
$LN320@stbsp_vspr:
$LN94@stbsp_vspr:
; Line 1227
	cmp	DWORD PTR i$9[rsp], 0
	je	$LN95@stbsp_vspr
; Line 1228
	mov	eax, DWORD PTR fl$1[rsp]
	and	eax, 64					; 00000040H
	test	eax, eax
	je	SHORT $LN322@stbsp_vspr
	mov	eax, DWORD PTR cs$8[rsp]
	mov	DWORD PTR tv1091[rsp], eax
	mov	eax, DWORD PTR c$24[rsp]
	mov	DWORD PTR tv1092[rsp], eax
	mov	eax, DWORD PTR cs$8[rsp]
	inc	eax
	mov	DWORD PTR cs$8[rsp], eax
	mov	eax, DWORD PTR tv1092[rsp]
	cmp	DWORD PTR tv1091[rsp], eax
	jne	SHORT $LN322@stbsp_vspr
; Line 1229
	mov	DWORD PTR cs$8[rsp], 0
; Line 1230
	mov	rax, QWORD PTR bf$[rsp]
	movzx	ecx, BYTE PTR ?stbsp__comma@@3DA
	mov	BYTE PTR [rax], cl
	mov	rax, QWORD PTR bf$[rsp]
	inc	rax
	mov	QWORD PTR bf$[rsp], rax
; Line 1231
	jmp	SHORT $LN323@stbsp_vspr
$LN322@stbsp_vspr:
; Line 1232
	mov	rax, QWORD PTR bf$[rsp]
	mov	BYTE PTR [rax], 48			; 00000030H
	mov	rax, QWORD PTR bf$[rsp]
	inc	rax
	mov	QWORD PTR bf$[rsp], rax
$LN323@stbsp_vspr:
; Line 1233
	mov	eax, DWORD PTR i$9[rsp]
	dec	eax
	mov	DWORD PTR i$9[rsp], eax
; Line 1234
	jmp	$LN94@stbsp_vspr
$LN95@stbsp_vspr:
; Line 1235
	cmp	QWORD PTR callback$[rsp], 0
	je	$LN324@stbsp_vspr
	mov	rax, QWORD PTR buf$[rsp]
	mov	rcx, QWORD PTR bf$[rsp]
	sub	rcx, rax
	mov	rax, rcx
	mov	DWORD PTR len$25[rsp], eax
	mov	eax, DWORD PTR len$25[rsp]
	inc	eax
	cmp	eax, 512				; 00000200H
	jl	SHORT $LN325@stbsp_vspr
	mov	eax, DWORD PTR len$25[rsp]
	mov	ecx, DWORD PTR tlen$[rsp]
	add	ecx, eax
	mov	eax, ecx
	mov	DWORD PTR tlen$[rsp], eax
	mov	rax, QWORD PTR callback$[rsp]
	mov	QWORD PTR tv1107[rsp], rax
	mov	r8d, DWORD PTR len$25[rsp]
	mov	rdx, QWORD PTR user$[rsp]
	mov	rcx, QWORD PTR buf$[rsp]
	call	QWORD PTR tv1107[rsp]
	mov	QWORD PTR buf$[rsp], rax
	mov	rax, QWORD PTR buf$[rsp]
	mov	QWORD PTR bf$[rsp], rax
	cmp	QWORD PTR bf$[rsp], 0
	jne	SHORT $LN326@stbsp_vspr
	jmp	$LN327@stbsp_vspr
	jmp	$done$466
$LN326@stbsp_vspr:
$LN325@stbsp_vspr:
$LN324@stbsp_vspr:
; Line 1236
	jmp	$LN88@stbsp_vspr
$LN89@stbsp_vspr:
$LN303@stbsp_vspr:
; Line 1240
	lea	rax, QWORD PTR lead$62[rsp+1]
	mov	QWORD PTR sn$13[rsp], rax
$LN96@stbsp_vspr:
; Line 1241
	mov	eax, 1
	imul	rax, rax, 0
	movsx	eax, BYTE PTR lead$62[rsp+rax]
	test	eax, eax
	je	$LN97@stbsp_vspr
; Line 1243
	mov	eax, 1
	imul	rax, rax, 0
	movsx	eax, BYTE PTR lead$62[rsp+rax]
	mov	DWORD PTR i$18[rsp], eax
	cmp	QWORD PTR callback$[rsp], 0
	je	SHORT $LN328@stbsp_vspr
	mov	rax, QWORD PTR buf$[rsp]
	mov	rcx, QWORD PTR bf$[rsp]
	sub	rcx, rax
	mov	rax, rcx
	mov	ecx, 512				; 00000200H
	sub	ecx, eax
	mov	eax, ecx
	mov	DWORD PTR lg$38[rsp], eax
	mov	eax, DWORD PTR lg$38[rsp]
	cmp	DWORD PTR i$18[rsp], eax
	jle	SHORT $LN329@stbsp_vspr
	mov	eax, DWORD PTR lg$38[rsp]
	mov	DWORD PTR i$18[rsp], eax
$LN329@stbsp_vspr:
$LN328@stbsp_vspr:
; Line 1244
	movsx	eax, BYTE PTR i$18[rsp]
	mov	ecx, 1
	imul	rcx, rcx, 0
	movsx	ecx, BYTE PTR lead$62[rsp+rcx]
	sub	ecx, eax
	mov	eax, ecx
	mov	ecx, 1
	imul	rcx, rcx, 0
	mov	BYTE PTR lead$62[rsp+rcx], al
$LN98@stbsp_vspr:
; Line 1245
	cmp	DWORD PTR i$18[rsp], 0
	je	SHORT $LN99@stbsp_vspr
; Line 1246
	mov	rax, QWORD PTR sn$13[rsp]
	movzx	eax, BYTE PTR [rax]
	mov	BYTE PTR tv1134[rsp], al
	mov	rax, QWORD PTR sn$13[rsp]
	inc	rax
	mov	QWORD PTR sn$13[rsp], rax
	mov	rax, QWORD PTR bf$[rsp]
	movzx	ecx, BYTE PTR tv1134[rsp]
	mov	BYTE PTR [rax], cl
	mov	rax, QWORD PTR bf$[rsp]
	inc	rax
	mov	QWORD PTR bf$[rsp], rax
; Line 1247
	mov	eax, DWORD PTR i$18[rsp]
	dec	eax
	mov	DWORD PTR i$18[rsp], eax
; Line 1248
	jmp	SHORT $LN98@stbsp_vspr
$LN99@stbsp_vspr:
; Line 1249
	cmp	QWORD PTR callback$[rsp], 0
	je	$LN330@stbsp_vspr
	mov	rax, QWORD PTR buf$[rsp]
	mov	rcx, QWORD PTR bf$[rsp]
	sub	rcx, rax
	mov	rax, rcx
	mov	DWORD PTR len$26[rsp], eax
	mov	eax, DWORD PTR len$26[rsp]
	inc	eax
	cmp	eax, 512				; 00000200H
	jl	SHORT $LN331@stbsp_vspr
	mov	eax, DWORD PTR len$26[rsp]
	mov	ecx, DWORD PTR tlen$[rsp]
	add	ecx, eax
	mov	eax, ecx
	mov	DWORD PTR tlen$[rsp], eax
	mov	rax, QWORD PTR callback$[rsp]
	mov	QWORD PTR tv1147[rsp], rax
	mov	r8d, DWORD PTR len$26[rsp]
	mov	rdx, QWORD PTR user$[rsp]
	mov	rcx, QWORD PTR buf$[rsp]
	call	QWORD PTR tv1147[rsp]
	mov	QWORD PTR buf$[rsp], rax
	mov	rax, QWORD PTR buf$[rsp]
	mov	QWORD PTR bf$[rsp], rax
	cmp	QWORD PTR bf$[rsp], 0
	jne	SHORT $LN332@stbsp_vspr
	jmp	$LN333@stbsp_vspr
	jmp	$done$466
$LN332@stbsp_vspr:
$LN331@stbsp_vspr:
$LN330@stbsp_vspr:
; Line 1250
	jmp	$LN96@stbsp_vspr
$LN97@stbsp_vspr:
; Line 1253
	mov	eax, DWORD PTR l$5[rsp]
	mov	DWORD PTR n$3[rsp], eax
$LN100@stbsp_vspr:
; Line 1254
	cmp	DWORD PTR n$3[rsp], 0
	je	$LN101@stbsp_vspr
; Line 1256
	mov	eax, DWORD PTR n$3[rsp]
	mov	DWORD PTR i$17[rsp], eax
	cmp	QWORD PTR callback$[rsp], 0
	je	SHORT $LN334@stbsp_vspr
	mov	rax, QWORD PTR buf$[rsp]
	mov	rcx, QWORD PTR bf$[rsp]
	sub	rcx, rax
	mov	rax, rcx
	mov	ecx, 512				; 00000200H
	sub	ecx, eax
	mov	eax, ecx
	mov	DWORD PTR lg$39[rsp], eax
	mov	eax, DWORD PTR lg$39[rsp]
	cmp	DWORD PTR i$17[rsp], eax
	jle	SHORT $LN335@stbsp_vspr
	mov	eax, DWORD PTR lg$39[rsp]
	mov	DWORD PTR i$17[rsp], eax
$LN335@stbsp_vspr:
$LN334@stbsp_vspr:
; Line 1257
	mov	eax, DWORD PTR i$17[rsp]
	mov	ecx, DWORD PTR n$3[rsp]
	sub	ecx, eax
	mov	eax, ecx
	mov	DWORD PTR n$3[rsp], eax
$LN102@stbsp_vspr:
; Line 1258
	cmp	DWORD PTR i$17[rsp], 4
	jl	SHORT $LN103@stbsp_vspr
	mov	rax, QWORD PTR bf$[rsp]
	mov	rcx, QWORD PTR s$4[rsp]
	mov	ecx, DWORD PTR [rcx]
	mov	DWORD PTR [rax], ecx
	mov	rax, QWORD PTR bf$[rsp]
	add	rax, 4
	mov	QWORD PTR bf$[rsp], rax
	mov	rax, QWORD PTR s$4[rsp]
	add	rax, 4
	mov	QWORD PTR s$4[rsp], rax
	mov	eax, DWORD PTR i$17[rsp]
	sub	eax, 4
	mov	DWORD PTR i$17[rsp], eax
	jmp	SHORT $LN102@stbsp_vspr
$LN103@stbsp_vspr:
$LN104@stbsp_vspr:
; Line 1264
	cmp	DWORD PTR i$17[rsp], 0
	je	SHORT $LN105@stbsp_vspr
; Line 1265
	mov	rax, QWORD PTR s$4[rsp]
	movzx	eax, BYTE PTR [rax]
	mov	BYTE PTR tv1197[rsp], al
	mov	rax, QWORD PTR s$4[rsp]
	inc	rax
	mov	QWORD PTR s$4[rsp], rax
	mov	rax, QWORD PTR bf$[rsp]
	movzx	ecx, BYTE PTR tv1197[rsp]
	mov	BYTE PTR [rax], cl
	mov	rax, QWORD PTR bf$[rsp]
	inc	rax
	mov	QWORD PTR bf$[rsp], rax
; Line 1266
	mov	eax, DWORD PTR i$17[rsp]
	dec	eax
	mov	DWORD PTR i$17[rsp], eax
; Line 1267
	jmp	SHORT $LN104@stbsp_vspr
$LN105@stbsp_vspr:
; Line 1268
	cmp	QWORD PTR callback$[rsp], 0
	je	$LN336@stbsp_vspr
	mov	rax, QWORD PTR buf$[rsp]
	mov	rcx, QWORD PTR bf$[rsp]
	sub	rcx, rax
	mov	rax, rcx
	mov	DWORD PTR len$27[rsp], eax
	mov	eax, DWORD PTR len$27[rsp]
	inc	eax
	cmp	eax, 512				; 00000200H
	jl	SHORT $LN337@stbsp_vspr
	mov	eax, DWORD PTR len$27[rsp]
	mov	ecx, DWORD PTR tlen$[rsp]
	add	ecx, eax
	mov	eax, ecx
	mov	DWORD PTR tlen$[rsp], eax
	mov	rax, QWORD PTR callback$[rsp]
	mov	QWORD PTR tv1210[rsp], rax
	mov	r8d, DWORD PTR len$27[rsp]
	mov	rdx, QWORD PTR user$[rsp]
	mov	rcx, QWORD PTR buf$[rsp]
	call	QWORD PTR tv1210[rsp]
	mov	QWORD PTR buf$[rsp], rax
	mov	rax, QWORD PTR buf$[rsp]
	mov	QWORD PTR bf$[rsp], rax
	cmp	QWORD PTR bf$[rsp], 0
	jne	SHORT $LN338@stbsp_vspr
	jmp	$LN339@stbsp_vspr
	jmp	$done$466
$LN338@stbsp_vspr:
$LN337@stbsp_vspr:
$LN336@stbsp_vspr:
; Line 1269
	jmp	$LN100@stbsp_vspr
$LN101@stbsp_vspr:
$LN106@stbsp_vspr:
; Line 1272
	cmp	DWORD PTR tz$16[rsp], 0
	je	$LN107@stbsp_vspr
; Line 1274
	mov	eax, DWORD PTR tz$16[rsp]
	mov	DWORD PTR i$14[rsp], eax
	cmp	QWORD PTR callback$[rsp], 0
	je	SHORT $LN340@stbsp_vspr
	mov	rax, QWORD PTR buf$[rsp]
	mov	rcx, QWORD PTR bf$[rsp]
	sub	rcx, rax
	mov	rax, rcx
	mov	ecx, 512				; 00000200H
	sub	ecx, eax
	mov	eax, ecx
	mov	DWORD PTR lg$40[rsp], eax
	mov	eax, DWORD PTR lg$40[rsp]
	cmp	DWORD PTR i$14[rsp], eax
	jle	SHORT $LN341@stbsp_vspr
	mov	eax, DWORD PTR lg$40[rsp]
	mov	DWORD PTR i$14[rsp], eax
$LN341@stbsp_vspr:
$LN340@stbsp_vspr:
; Line 1275
	mov	eax, DWORD PTR i$14[rsp]
	mov	ecx, DWORD PTR tz$16[rsp]
	sub	ecx, eax
	mov	eax, ecx
	mov	DWORD PTR tz$16[rsp], eax
$LN108@stbsp_vspr:
; Line 1276
	cmp	DWORD PTR i$14[rsp], 0
	je	SHORT $LN109@stbsp_vspr
; Line 1277
	mov	rax, QWORD PTR bf$[rsp]
	and	rax, 3
	test	rax, rax
	jne	SHORT $LN342@stbsp_vspr
; Line 1278
	jmp	SHORT $LN109@stbsp_vspr
$LN342@stbsp_vspr:
; Line 1279
	mov	rax, QWORD PTR bf$[rsp]
	mov	BYTE PTR [rax], 48			; 00000030H
	mov	rax, QWORD PTR bf$[rsp]
	inc	rax
	mov	QWORD PTR bf$[rsp], rax
; Line 1280
	mov	eax, DWORD PTR i$14[rsp]
	dec	eax
	mov	DWORD PTR i$14[rsp], eax
; Line 1281
	jmp	SHORT $LN108@stbsp_vspr
$LN109@stbsp_vspr:
$LN110@stbsp_vspr:
; Line 1282
	cmp	DWORD PTR i$14[rsp], 4
	jl	SHORT $LN111@stbsp_vspr
; Line 1283
	mov	rax, QWORD PTR bf$[rsp]
	mov	DWORD PTR [rax], 808464432		; 30303030H
; Line 1284
	mov	rax, QWORD PTR bf$[rsp]
	add	rax, 4
	mov	QWORD PTR bf$[rsp], rax
; Line 1285
	mov	eax, DWORD PTR i$14[rsp]
	sub	eax, 4
	mov	DWORD PTR i$14[rsp], eax
; Line 1286
	jmp	SHORT $LN110@stbsp_vspr
$LN111@stbsp_vspr:
$LN112@stbsp_vspr:
; Line 1287
	cmp	DWORD PTR i$14[rsp], 0
	je	SHORT $LN113@stbsp_vspr
; Line 1288
	mov	rax, QWORD PTR bf$[rsp]
	mov	BYTE PTR [rax], 48			; 00000030H
	mov	rax, QWORD PTR bf$[rsp]
	inc	rax
	mov	QWORD PTR bf$[rsp], rax
; Line 1289
	mov	eax, DWORD PTR i$14[rsp]
	dec	eax
	mov	DWORD PTR i$14[rsp], eax
; Line 1290
	jmp	SHORT $LN112@stbsp_vspr
$LN113@stbsp_vspr:
; Line 1291
	cmp	QWORD PTR callback$[rsp], 0
	je	$LN343@stbsp_vspr
	mov	rax, QWORD PTR buf$[rsp]
	mov	rcx, QWORD PTR bf$[rsp]
	sub	rcx, rax
	mov	rax, rcx
	mov	DWORD PTR len$34[rsp], eax
	mov	eax, DWORD PTR len$34[rsp]
	inc	eax
	cmp	eax, 512				; 00000200H
	jl	SHORT $LN344@stbsp_vspr
	mov	eax, DWORD PTR len$34[rsp]
	mov	ecx, DWORD PTR tlen$[rsp]
	add	ecx, eax
	mov	eax, ecx
	mov	DWORD PTR tlen$[rsp], eax
	mov	rax, QWORD PTR callback$[rsp]
	mov	QWORD PTR tv1241[rsp], rax
	mov	r8d, DWORD PTR len$34[rsp]
	mov	rdx, QWORD PTR user$[rsp]
	mov	rcx, QWORD PTR buf$[rsp]
	call	QWORD PTR tv1241[rsp]
	mov	QWORD PTR buf$[rsp], rax
	mov	rax, QWORD PTR buf$[rsp]
	mov	QWORD PTR bf$[rsp], rax
	cmp	QWORD PTR bf$[rsp], 0
	jne	SHORT $LN345@stbsp_vspr
	jmp	$LN346@stbsp_vspr
	jmp	$done$466
$LN345@stbsp_vspr:
$LN344@stbsp_vspr:
$LN343@stbsp_vspr:
; Line 1292
	jmp	$LN106@stbsp_vspr
$LN107@stbsp_vspr:
; Line 1295
	lea	rax, QWORD PTR tail$63[rsp+1]
	mov	QWORD PTR sn$13[rsp], rax
$LN114@stbsp_vspr:
; Line 1296
	mov	eax, 1
	imul	rax, rax, 0
	movsx	eax, BYTE PTR tail$63[rsp+rax]
	test	eax, eax
	je	$LN115@stbsp_vspr
; Line 1298
	mov	eax, 1
	imul	rax, rax, 0
	movsx	eax, BYTE PTR tail$63[rsp+rax]
	mov	DWORD PTR i$19[rsp], eax
	cmp	QWORD PTR callback$[rsp], 0
	je	SHORT $LN347@stbsp_vspr
	mov	rax, QWORD PTR buf$[rsp]
	mov	rcx, QWORD PTR bf$[rsp]
	sub	rcx, rax
	mov	rax, rcx
	mov	ecx, 512				; 00000200H
	sub	ecx, eax
	mov	eax, ecx
	mov	DWORD PTR lg$43[rsp], eax
	mov	eax, DWORD PTR lg$43[rsp]
	cmp	DWORD PTR i$19[rsp], eax
	jle	SHORT $LN348@stbsp_vspr
	mov	eax, DWORD PTR lg$43[rsp]
	mov	DWORD PTR i$19[rsp], eax
$LN348@stbsp_vspr:
$LN347@stbsp_vspr:
; Line 1299
	movsx	eax, BYTE PTR i$19[rsp]
	mov	ecx, 1
	imul	rcx, rcx, 0
	movsx	ecx, BYTE PTR tail$63[rsp+rcx]
	sub	ecx, eax
	mov	eax, ecx
	mov	ecx, 1
	imul	rcx, rcx, 0
	mov	BYTE PTR tail$63[rsp+rcx], al
$LN116@stbsp_vspr:
; Line 1300
	cmp	DWORD PTR i$19[rsp], 0
	je	SHORT $LN117@stbsp_vspr
; Line 1301
	mov	rax, QWORD PTR sn$13[rsp]
	movzx	eax, BYTE PTR [rax]
	mov	BYTE PTR tv1268[rsp], al
	mov	rax, QWORD PTR sn$13[rsp]
	inc	rax
	mov	QWORD PTR sn$13[rsp], rax
	mov	rax, QWORD PTR bf$[rsp]
	movzx	ecx, BYTE PTR tv1268[rsp]
	mov	BYTE PTR [rax], cl
	mov	rax, QWORD PTR bf$[rsp]
	inc	rax
	mov	QWORD PTR bf$[rsp], rax
; Line 1302
	mov	eax, DWORD PTR i$19[rsp]
	dec	eax
	mov	DWORD PTR i$19[rsp], eax
; Line 1303
	jmp	SHORT $LN116@stbsp_vspr
$LN117@stbsp_vspr:
; Line 1304
	cmp	QWORD PTR callback$[rsp], 0
	je	$LN349@stbsp_vspr
	mov	rax, QWORD PTR buf$[rsp]
	mov	rcx, QWORD PTR bf$[rsp]
	sub	rcx, rax
	mov	rax, rcx
	mov	DWORD PTR len$28[rsp], eax
	mov	eax, DWORD PTR len$28[rsp]
	inc	eax
	cmp	eax, 512				; 00000200H
	jl	SHORT $LN350@stbsp_vspr
	mov	eax, DWORD PTR len$28[rsp]
	mov	ecx, DWORD PTR tlen$[rsp]
	add	ecx, eax
	mov	eax, ecx
	mov	DWORD PTR tlen$[rsp], eax
	mov	rax, QWORD PTR callback$[rsp]
	mov	QWORD PTR tv1281[rsp], rax
	mov	r8d, DWORD PTR len$28[rsp]
	mov	rdx, QWORD PTR user$[rsp]
	mov	rcx, QWORD PTR buf$[rsp]
	call	QWORD PTR tv1281[rsp]
	mov	QWORD PTR buf$[rsp], rax
	mov	rax, QWORD PTR buf$[rsp]
	mov	QWORD PTR bf$[rsp], rax
	cmp	QWORD PTR bf$[rsp], 0
	jne	SHORT $LN351@stbsp_vspr
	jmp	$LN352@stbsp_vspr
	jmp	$done$466
$LN351@stbsp_vspr:
$LN350@stbsp_vspr:
$LN349@stbsp_vspr:
; Line 1305
	jmp	$LN114@stbsp_vspr
$LN115@stbsp_vspr:
; Line 1308
	mov	eax, DWORD PTR fl$1[rsp]
	and	eax, 1
	test	eax, eax
	je	$LN353@stbsp_vspr
; Line 1309
	cmp	DWORD PTR fw$10[rsp], 0
	jle	$LN354@stbsp_vspr
$LN118@stbsp_vspr:
; Line 1310
	cmp	DWORD PTR fw$10[rsp], 0
	je	$LN119@stbsp_vspr
; Line 1312
	mov	eax, DWORD PTR fw$10[rsp]
	mov	DWORD PTR i$15[rsp], eax
	cmp	QWORD PTR callback$[rsp], 0
	je	SHORT $LN355@stbsp_vspr
	mov	rax, QWORD PTR buf$[rsp]
	mov	rcx, QWORD PTR bf$[rsp]
	sub	rcx, rax
	mov	rax, rcx
	mov	ecx, 512				; 00000200H
	sub	ecx, eax
	mov	eax, ecx
	mov	DWORD PTR lg$41[rsp], eax
	mov	eax, DWORD PTR lg$41[rsp]
	cmp	DWORD PTR i$15[rsp], eax
	jle	SHORT $LN356@stbsp_vspr
	mov	eax, DWORD PTR lg$41[rsp]
	mov	DWORD PTR i$15[rsp], eax
$LN356@stbsp_vspr:
$LN355@stbsp_vspr:
; Line 1313
	mov	eax, DWORD PTR i$15[rsp]
	mov	ecx, DWORD PTR fw$10[rsp]
	sub	ecx, eax
	mov	eax, ecx
	mov	DWORD PTR fw$10[rsp], eax
$LN120@stbsp_vspr:
; Line 1314
	cmp	DWORD PTR i$15[rsp], 0
	je	SHORT $LN121@stbsp_vspr
; Line 1315
	mov	rax, QWORD PTR bf$[rsp]
	and	rax, 3
	test	rax, rax
	jne	SHORT $LN357@stbsp_vspr
; Line 1316
	jmp	SHORT $LN121@stbsp_vspr
$LN357@stbsp_vspr:
; Line 1317
	mov	rax, QWORD PTR bf$[rsp]
	mov	BYTE PTR [rax], 32			; 00000020H
	mov	rax, QWORD PTR bf$[rsp]
	inc	rax
	mov	QWORD PTR bf$[rsp], rax
; Line 1318
	mov	eax, DWORD PTR i$15[rsp]
	dec	eax
	mov	DWORD PTR i$15[rsp], eax
; Line 1319
	jmp	SHORT $LN120@stbsp_vspr
$LN121@stbsp_vspr:
$LN122@stbsp_vspr:
; Line 1320
	cmp	DWORD PTR i$15[rsp], 4
	jl	SHORT $LN123@stbsp_vspr
; Line 1321
	mov	rax, QWORD PTR bf$[rsp]
	mov	DWORD PTR [rax], 538976288		; 20202020H
; Line 1322
	mov	rax, QWORD PTR bf$[rsp]
	add	rax, 4
	mov	QWORD PTR bf$[rsp], rax
; Line 1323
	mov	eax, DWORD PTR i$15[rsp]
	sub	eax, 4
	mov	DWORD PTR i$15[rsp], eax
; Line 1324
	jmp	SHORT $LN122@stbsp_vspr
$LN123@stbsp_vspr:
$LN124@stbsp_vspr:
; Line 1325
	mov	eax, DWORD PTR i$15[rsp]
	mov	DWORD PTR tv1303[rsp], eax
	mov	eax, DWORD PTR i$15[rsp]
	dec	eax
	mov	DWORD PTR i$15[rsp], eax
	cmp	DWORD PTR tv1303[rsp], 0
	je	SHORT $LN125@stbsp_vspr
; Line 1326
	mov	rax, QWORD PTR bf$[rsp]
	mov	BYTE PTR [rax], 32			; 00000020H
	mov	rax, QWORD PTR bf$[rsp]
	inc	rax
	mov	QWORD PTR bf$[rsp], rax
	jmp	SHORT $LN124@stbsp_vspr
$LN125@stbsp_vspr:
; Line 1327
	cmp	QWORD PTR callback$[rsp], 0
	je	$LN358@stbsp_vspr
	mov	rax, QWORD PTR buf$[rsp]
	mov	rcx, QWORD PTR bf$[rsp]
	sub	rcx, rax
	mov	rax, rcx
	mov	DWORD PTR len$29[rsp], eax
	mov	eax, DWORD PTR len$29[rsp]
	inc	eax
	cmp	eax, 512				; 00000200H
	jl	SHORT $LN359@stbsp_vspr
	mov	eax, DWORD PTR len$29[rsp]
	mov	ecx, DWORD PTR tlen$[rsp]
	add	ecx, eax
	mov	eax, ecx
	mov	DWORD PTR tlen$[rsp], eax
	mov	rax, QWORD PTR callback$[rsp]
	mov	QWORD PTR tv1316[rsp], rax
	mov	r8d, DWORD PTR len$29[rsp]
	mov	rdx, QWORD PTR user$[rsp]
	mov	rcx, QWORD PTR buf$[rsp]
	call	QWORD PTR tv1316[rsp]
	mov	QWORD PTR buf$[rsp], rax
	mov	rax, QWORD PTR buf$[rsp]
	mov	QWORD PTR bf$[rsp], rax
	cmp	QWORD PTR bf$[rsp], 0
	jne	SHORT $LN360@stbsp_vspr
	jmp	$LN361@stbsp_vspr
	jmp	$done$466
$LN360@stbsp_vspr:
$LN359@stbsp_vspr:
$LN358@stbsp_vspr:
; Line 1328
	jmp	$LN118@stbsp_vspr
$LN119@stbsp_vspr:
$LN354@stbsp_vspr:
$LN353@stbsp_vspr:
; Line 1330
	jmp	$LN24@stbsp_vspr
$LN362@stbsp_vspr:
; Line 1333
	lea	rax, QWORD PTR num$64[rsp+511]
	mov	QWORD PTR s$4[rsp], rax
; Line 1334
	mov	eax, 1
	imul	rax, rax, 0
	mov	rcx, QWORD PTR s$4[rsp]
	mov	rdx, QWORD PTR f$[rsp]
	movzx	eax, BYTE PTR [rdx+rax]
	mov	BYTE PTR [rcx], al
; Line 1335
	mov	DWORD PTR l$5[rsp], 1
; Line 1336
	mov	DWORD PTR fl$1[rsp], 0
	mov	eax, DWORD PTR fl$1[rsp]
	mov	DWORD PTR fw$10[rsp], eax
; Line 1337
	mov	eax, 1
	imul	rax, rax, 0
	mov	QWORD PTR $T47[rsp], rax
	cmp	QWORD PTR $T47[rsp], 8
	jae	SHORT $LN451@stbsp_vspr
	jmp	SHORT $LN452@stbsp_vspr
$LN451@stbsp_vspr:
	call	__report_rangecheckfailure
$LN452@stbsp_vspr:
	mov	rax, QWORD PTR $T47[rsp]
	mov	BYTE PTR lead$62[rsp+rax], 0
; Line 1338
	mov	eax, 1
	imul	rax, rax, 0
	mov	QWORD PTR $T48[rsp], rax
	cmp	QWORD PTR $T48[rsp], 8
	jae	SHORT $LN453@stbsp_vspr
	jmp	SHORT $LN454@stbsp_vspr
$LN453@stbsp_vspr:
	call	__report_rangecheckfailure
$LN454@stbsp_vspr:
	mov	rax, QWORD PTR $T48[rsp]
	mov	BYTE PTR tail$63[rsp+rax], 0
; Line 1339
	mov	DWORD PTR pr$2[rsp], 0
; Line 1340
	mov	DWORD PTR dp$6[rsp], 0
; Line 1341
	mov	DWORD PTR cs$8[rsp], 0
; Line 1342
	jmp	$scopy$468
$LN24@stbsp_vspr:
; Line 1344
	mov	rax, QWORD PTR f$[rsp]
	inc	rax
	mov	QWORD PTR f$[rsp], rax
; Line 1345
	jmp	$LN2@stbsp_vspr
$LN129@stbsp_vspr:
$endfmt$465:
; Line 1348
	cmp	QWORD PTR callback$[rsp], 0
	jne	SHORT $LN363@stbsp_vspr
; Line 1349
	mov	rax, QWORD PTR bf$[rsp]
	mov	BYTE PTR [rax], 0
	jmp	$LN364@stbsp_vspr
$LN363@stbsp_vspr:
; Line 1351
	mov	rax, QWORD PTR buf$[rsp]
	mov	rcx, QWORD PTR bf$[rsp]
	sub	rcx, rax
	mov	rax, rcx
	mov	DWORD PTR len$30[rsp], eax
	mov	eax, DWORD PTR len$30[rsp]
	add	eax, 511				; 000001ffH
	cmp	eax, 512				; 00000200H
	jl	SHORT $LN365@stbsp_vspr
	mov	eax, DWORD PTR len$30[rsp]
	mov	ecx, DWORD PTR tlen$[rsp]
	add	ecx, eax
	mov	eax, ecx
	mov	DWORD PTR tlen$[rsp], eax
	mov	rax, QWORD PTR callback$[rsp]
	mov	QWORD PTR tv1342[rsp], rax
	mov	r8d, DWORD PTR len$30[rsp]
	mov	rdx, QWORD PTR user$[rsp]
	mov	rcx, QWORD PTR buf$[rsp]
	call	QWORD PTR tv1342[rsp]
	mov	QWORD PTR buf$[rsp], rax
	mov	rax, QWORD PTR buf$[rsp]
	mov	QWORD PTR bf$[rsp], rax
$LN365@stbsp_vspr:
$LN364@stbsp_vspr:
$LN133@stbsp_vspr:
$LN311@stbsp_vspr:
$LN317@stbsp_vspr:
$LN327@stbsp_vspr:
$LN333@stbsp_vspr:
$LN339@stbsp_vspr:
$LN346@stbsp_vspr:
$LN352@stbsp_vspr:
$LN361@stbsp_vspr:
$done$466:
; Line 1354
	mov	rax, QWORD PTR buf$[rsp]
	mov	rcx, QWORD PTR bf$[rsp]
	sub	rcx, rax
	mov	rax, rcx
	mov	ecx, DWORD PTR tlen$[rsp]
	add	ecx, eax
	mov	eax, ecx
$LN368@stbsp_vspr:
; Line 1355
	mov	rcx, QWORD PTR __$ArrayPad$[rsp]
	xor	rcx, rsp
	call	__security_check_cookie
	add	rsp, 1304				; 00000518H
	ret	0
$LN460@stbsp_vspr:
	DD	$LN140@stbsp_vspr
	DD	$LN141@stbsp_vspr
	DD	$LN143@stbsp_vspr
	DD	$LN142@stbsp_vspr
	DD	$LN139@stbsp_vspr
	DD	$LN138@stbsp_vspr
	DD	$LN149@stbsp_vspr
	DD	$LN148@stbsp_vspr
	DD	$LN151@stbsp_vspr
$LN459@stbsp_vspr:
	DB	0
	DB	8
	DB	8
	DB	1
	DB	2
	DB	8
	DB	8
	DB	3
	DB	8
	DB	8
	DB	8
	DB	4
	DB	8
	DB	5
	DB	8
	DB	8
	DB	6
	DB	8
	DB	8
	DB	8
	DB	8
	DB	8
	DB	8
	DB	8
	DB	8
	DB	8
	DB	8
	DB	8
	DB	8
	DB	8
	DB	8
	DB	8
	DB	8
	DB	8
	DB	8
	DB	8
	DB	8
	DB	8
	DB	8
	DB	8
	DB	8
	DB	8
	DB	8
	DB	8
	DB	8
	DB	8
	DB	8
	DB	8
	DB	8
	DB	8
	DB	8
	DB	8
	DB	8
	DB	8
	DB	8
	DB	8
	DB	8
	DB	8
	DB	8
	DB	8
	DB	8
	DB	8
	DB	8
	DB	7
$LN458@stbsp_vspr:
	DD	$LN165@stbsp_vspr
	DD	$LN158@stbsp_vspr
	DD	$LN162@stbsp_vspr
	DD	$LN160@stbsp_vspr
	DD	$LN164@stbsp_vspr
	DD	$LN163@stbsp_vspr
	DD	$LN170@stbsp_vspr
$LN457@stbsp_vspr:
	DB	0
	DB	6
	DB	6
	DB	6
	DB	6
	DB	6
	DB	6
	DB	6
	DB	6
	DB	6
	DB	6
	DB	6
	DB	6
	DB	6
	DB	6
	DB	6
	DB	6
	DB	6
	DB	6
	DB	6
	DB	6
	DB	6
	DB	6
	DB	6
	DB	6
	DB	6
	DB	6
	DB	6
	DB	6
	DB	6
	DB	6
	DB	1
	DB	6
	DB	2
	DB	6
	DB	3
	DB	6
	DB	6
	DB	6
	DB	6
	DB	6
	DB	6
	DB	6
	DB	4
	DB	6
	DB	6
	DB	6
	DB	6
	DB	6
	DB	5
	npad	2
$LN456@stbsp_vspr:
	DD	$LN177@stbsp_vspr
	DD	$LN256@stbsp_vspr
	DD	$LN207@stbsp_vspr
	DD	$LN191@stbsp_vspr
	DD	$LN264@stbsp_vspr
	DD	$LN178@stbsp_vspr
	DD	$LN257@stbsp_vspr
	DD	$LN174@stbsp_vspr
	DD	$LN278@stbsp_vspr
	DD	$LN208@stbsp_vspr
	DD	$LN219@stbsp_vspr
	DD	$LN192@stbsp_vspr
	DD	$LN277@stbsp_vspr
	DD	$LN176@stbsp_vspr
	DD	$LN260@stbsp_vspr
	DD	$LN263@stbsp_vspr
	DD	$LN171@stbsp_vspr
	DD	$LN276@stbsp_vspr
	DD	$LN265@stbsp_vspr
	DD	$LN362@stbsp_vspr
$LN455@stbsp_vspr:
	DB	0
	DB	1
	DB	19
	DB	19
	DB	2
	DB	19
	DB	3
	DB	19
	DB	19
	DB	19
	DB	19
	DB	19
	DB	19
	DB	19
	DB	19
	DB	19
	DB	19
	DB	19
	DB	19
	DB	19
	DB	19
	DB	19
	DB	19
	DB	4
	DB	19
	DB	19
	DB	19
	DB	19
	DB	19
	DB	19
	DB	19
	DB	19
	DB	5
	DB	6
	DB	7
	DB	8
	DB	9
	DB	10
	DB	11
	DB	19
	DB	12
	DB	19
	DB	19
	DB	19
	DB	19
	DB	13
	DB	14
	DB	15
	DB	19
	DB	19
	DB	16
	DB	19
	DB	17
	DB	19
	DB	19
	DB	18
stbsp_vsprintfcb ENDP
_TEXT	ENDS
; Function compile flags: /Odtp
_TEXT	SEGMENT
result$ = 32
va$ = 40
buf$ = 64
count$ = 72
fmt$ = 80
stbsp_snprintf PROC
; File W:\cpp\void\ktt-c\stb_sprintf.h
; Line 1461
$LN3:
	mov	QWORD PTR [rsp+24], r8
	mov	DWORD PTR [rsp+16], edx
	mov	QWORD PTR [rsp+8], rcx
	mov	QWORD PTR [rsp+32], r9
	sub	rsp, 56					; 00000038H
; Line 1464
	lea	rax, QWORD PTR fmt$[rsp+8]
	mov	QWORD PTR va$[rsp], rax
; Line 1466
	mov	r9, QWORD PTR va$[rsp]
	mov	r8, QWORD PTR fmt$[rsp]
	mov	edx, DWORD PTR count$[rsp]
	mov	rcx, QWORD PTR buf$[rsp]
	call	stbsp_vsnprintf
	mov	DWORD PTR result$[rsp], eax
; Line 1467
	mov	QWORD PTR va$[rsp], 0
; Line 1469
	mov	eax, DWORD PTR result$[rsp]
; Line 1470
	add	rsp, 56					; 00000038H
	ret	0
stbsp_snprintf ENDP
_TEXT	ENDS
; Function compile flags: /Odtp
_TEXT	SEGMENT
result$ = 48
va$ = 56
buf$ = 80
fmt$ = 88
stbsp_sprintf PROC
; File W:\cpp\void\ktt-c\stb_sprintf.h
; Line 1377
$LN3:
	mov	QWORD PTR [rsp+16], rdx
	mov	QWORD PTR [rsp+8], rcx
	mov	QWORD PTR [rsp+24], r8
	mov	QWORD PTR [rsp+32], r9
	sub	rsp, 72					; 00000048H
; Line 1380
	lea	rax, QWORD PTR fmt$[rsp+8]
	mov	QWORD PTR va$[rsp], rax
; Line 1381
	mov	rax, QWORD PTR va$[rsp]
	mov	QWORD PTR [rsp+32], rax
	mov	r9, QWORD PTR fmt$[rsp]
	mov	r8, QWORD PTR buf$[rsp]
	xor	edx, edx
	xor	ecx, ecx
	call	stbsp_vsprintfcb
	mov	DWORD PTR result$[rsp], eax
; Line 1382
	mov	QWORD PTR va$[rsp], 0
; Line 1383
	mov	eax, DWORD PTR result$[rsp]
; Line 1384
	add	rsp, 72					; 00000048H
	ret	0
stbsp_sprintf ENDP
_TEXT	ENDS
; Function compile flags: /Odtp
_TEXT	SEGMENT
l$1 = 48
c$ = 64
__$ArrayPad$ = 592
buf$ = 624
count$ = 632
fmt$ = 640
va$ = 648
stbsp_vsnprintf PROC
; File W:\cpp\void\ktt-c\stb_sprintf.h
; Line 1431
$LN6:
	mov	QWORD PTR [rsp+32], r9
	mov	QWORD PTR [rsp+24], r8
	mov	DWORD PTR [rsp+16], edx
	mov	QWORD PTR [rsp+8], rcx
	sub	rsp, 616				; 00000268H
	mov	rax, QWORD PTR __security_cookie
	xor	rax, rsp
	mov	QWORD PTR __$ArrayPad$[rsp], rax
; Line 1434
	cmp	DWORD PTR count$[rsp], 0
	jne	SHORT $LN2@stbsp_vsnp
	cmp	QWORD PTR buf$[rsp], 0
	jne	SHORT $LN2@stbsp_vsnp
; Line 1436
	mov	DWORD PTR c$[rsp+12], 0
; Line 1438
	mov	rax, QWORD PTR va$[rsp]
	mov	QWORD PTR [rsp+32], rax
	mov	r9, QWORD PTR fmt$[rsp]
	lea	r8, QWORD PTR c$[rsp+16]
	lea	rdx, QWORD PTR c$[rsp]
	lea	rcx, OFFSET FLAT:?stbsp__count_clamp_callback@@YAPEADPEBDPEAXH@Z ; stbsp__count_clamp_callback
	call	stbsp_vsprintfcb
; Line 1439
	jmp	$LN3@stbsp_vsnp
$LN2@stbsp_vsnp:
; Line 1444
	mov	rax, QWORD PTR buf$[rsp]
	mov	QWORD PTR c$[rsp], rax
; Line 1445
	mov	eax, DWORD PTR count$[rsp]
	mov	DWORD PTR c$[rsp+8], eax
; Line 1446
	mov	DWORD PTR c$[rsp+12], 0
; Line 1448
	xor	r8d, r8d
	lea	rdx, QWORD PTR c$[rsp]
	xor	ecx, ecx
	call	?stbsp__clamp_callback@@YAPEADPEBDPEAXH@Z ; stbsp__clamp_callback
	mov	rcx, QWORD PTR va$[rsp]
	mov	QWORD PTR [rsp+32], rcx
	mov	r9, QWORD PTR fmt$[rsp]
	mov	r8, rax
	lea	rdx, QWORD PTR c$[rsp]
	lea	rcx, OFFSET FLAT:?stbsp__clamp_callback@@YAPEADPEBDPEAXH@Z ; stbsp__clamp_callback
	call	stbsp_vsprintfcb
; Line 1451
	mov	rax, QWORD PTR buf$[rsp]
	mov	rcx, QWORD PTR c$[rsp]
	sub	rcx, rax
	mov	rax, rcx
	mov	DWORD PTR l$1[rsp], eax
; Line 1452
	mov	eax, DWORD PTR count$[rsp]
	cmp	DWORD PTR l$1[rsp], eax
	jl	SHORT $LN4@stbsp_vsnp
; Line 1453
	mov	eax, DWORD PTR count$[rsp]
	dec	eax
	mov	DWORD PTR l$1[rsp], eax
$LN4@stbsp_vsnp:
; Line 1454
	movsxd	rax, DWORD PTR l$1[rsp]
	mov	rcx, QWORD PTR buf$[rsp]
	mov	BYTE PTR [rcx+rax], 0
$LN3@stbsp_vsnp:
; Line 1457
	mov	eax, DWORD PTR c$[rsp+12]
; Line 1458
	mov	rcx, QWORD PTR __$ArrayPad$[rsp]
	xor	rcx, rsp
	call	__security_check_cookie
	add	rsp, 616				; 00000268H
	ret	0
stbsp_vsnprintf ENDP
_TEXT	ENDS
; Function compile flags: /Odtp
_TEXT	SEGMENT
buf$ = 64
fmt$ = 72
va$ = 80
stbsp_vsprintf PROC
; File W:\cpp\void\ktt-c\stb_sprintf.h
; Line 1473
$LN3:
	mov	QWORD PTR [rsp+24], r8
	mov	QWORD PTR [rsp+16], rdx
	mov	QWORD PTR [rsp+8], rcx
	sub	rsp, 56					; 00000038H
; Line 1474
	mov	rax, QWORD PTR va$[rsp]
	mov	QWORD PTR [rsp+32], rax
	mov	r9, QWORD PTR fmt$[rsp]
	mov	r8, QWORD PTR buf$[rsp]
	xor	edx, edx
	xor	ecx, ecx
	call	stbsp_vsprintfcb
; Line 1475
	add	rsp, 56					; 00000038H
	ret	0
stbsp_vsprintf ENDP
_TEXT	ENDS
; Function compile flags: /Odtp
;	COMDAT printf
_TEXT	SEGMENT
_Result$ = 32
_ArgList$ = 40
tv77 = 48
tv75 = 56
_Format$ = 80
printf	PROC						; COMDAT
; File W:\Windows Kits\10\include\10.0.22000.0\ucrt\stdio.h
; Line 956
$LN3:
	mov	QWORD PTR [rsp+8], rcx
	mov	QWORD PTR [rsp+16], rdx
	mov	QWORD PTR [rsp+24], r8
	mov	QWORD PTR [rsp+32], r9
	sub	rsp, 72					; 00000048H
; Line 959
	lea	rax, QWORD PTR _Format$[rsp+8]
	mov	QWORD PTR _ArgList$[rsp], rax
; Line 960
	mov	rax, QWORD PTR _ArgList$[rsp]
	mov	QWORD PTR tv77[rsp], rax
	mov	ecx, 1
	call	QWORD PTR __imp___acrt_iob_func
	mov	QWORD PTR tv75[rsp], rax
	mov	r9, QWORD PTR tv77[rsp]
	xor	r8d, r8d
	mov	rdx, QWORD PTR _Format$[rsp]
	mov	rcx, QWORD PTR tv75[rsp]
	call	_vfprintf_l
	mov	DWORD PTR _Result$[rsp], eax
; Line 961
	mov	QWORD PTR _ArgList$[rsp], 0
; Line 962
	mov	eax, DWORD PTR _Result$[rsp]
; Line 963
	add	rsp, 72					; 00000048H
	ret	0
printf	ENDP
_TEXT	ENDS
; Function compile flags: /Odtp
;	COMDAT _vfprintf_l
_TEXT	SEGMENT
_Stream$ = 64
_Format$ = 72
_Locale$ = 80
_ArgList$ = 88
_vfprintf_l PROC					; COMDAT
; File W:\Windows Kits\10\include\10.0.22000.0\ucrt\stdio.h
; Line 644
$LN3:
	mov	QWORD PTR [rsp+32], r9
	mov	QWORD PTR [rsp+24], r8
	mov	QWORD PTR [rsp+16], rdx
	mov	QWORD PTR [rsp+8], rcx
	sub	rsp, 56					; 00000038H
; Line 645
	call	__local_stdio_printf_options
	mov	rcx, QWORD PTR _ArgList$[rsp]
	mov	QWORD PTR [rsp+32], rcx
	mov	r9, QWORD PTR _Locale$[rsp]
	mov	r8, QWORD PTR _Format$[rsp]
	mov	rdx, QWORD PTR _Stream$[rsp]
	mov	rcx, QWORD PTR [rax]
	call	QWORD PTR __imp___stdio_common_vfprintf
; Line 646
	add	rsp, 56					; 00000038H
	ret	0
_vfprintf_l ENDP
_TEXT	ENDS
; Function compile flags: /Odtp
;	COMDAT __local_stdio_printf_options
_TEXT	SEGMENT
__local_stdio_printf_options PROC			; COMDAT
; File W:\Windows Kits\10\include\10.0.22000.0\ucrt\corecrt_stdio_config.h
; Line 92
	lea	rax, OFFSET FLAT:?_OptionsStorage@?1??__local_stdio_printf_options@@9@4_KA ; `__local_stdio_printf_options'::`2'::_OptionsStorage
; Line 93
	ret	0
__local_stdio_printf_options ENDP
_TEXT	ENDS
END
