; Listing generated by Microsoft (R) Optimizing Compiler Version 19.34.31937.0 

include listing.inc

INCLUDELIB LIBCMTD
INCLUDELIB OLDNAMES

CONST	SEGMENT
$SG49168 DB	'unexpected ''...'', must be at end of function', 00H
	ORG $+3
$SG49169 DB	'err', 00H
$SG49229 DB	'err', 00H
$SG49170 DB	'ccread_param_decl', 00H
	ORG $+2
$SG49236 DB	'err', 00H
$SG49171 DB	'W:\cpp\void\ktt-c\ccread.c', 00H
	ORG $+1
$SG49243 DB	'err', 00H
$SG49228 DB	'expected ''}''', 00H
	ORG $+3
$SG49230 DB	'ccread_statement', 00H
	ORG $+3
$SG49248 DB	'err', 00H
$SG49231 DB	'W:\cpp\void\ktt-c\ccread.c', 00H
	ORG $+1
$SG49255 DB	'err', 00H
$SG49235 DB	'expected '';''', 00H
	ORG $+3
$SG49237 DB	'ccread_statement', 00H
	ORG $+3
$SG49260 DB	'err', 00H
$SG49238 DB	'W:\cpp\void\ktt-c\ccread.c', 00H
	ORG $+1
$SG49265 DB	'err', 00H
$SG49242 DB	'expected expression', 00H
$SG49271 DB	'err', 00H
$SG49244 DB	'ccread_statement', 00H
	ORG $+3
$SG49278 DB	'err', 00H
$SG49245 DB	'W:\cpp\void\ktt-c\ccread.c', 00H
	ORG $+1
$SG49283 DB	'err', 00H
$SG49247 DB	'expected '';''', 00H
	ORG $+3
$SG49249 DB	'ccread_statement', 00H
	ORG $+3
$SG49292 DB	'err', 00H
$SG49250 DB	'W:\cpp\void\ktt-c\ccread.c', 00H
	ORG $+1
$SG49297 DB	'err', 00H
$SG49254 DB	'expected ''(''', 00H
	ORG $+3
$SG49256 DB	'ccread_statement', 00H
	ORG $+3
$SG49302 DB	'err', 00H
$SG49257 DB	'W:\cpp\void\ktt-c\ccread.c', 00H
	ORG $+1
$SG49308 DB	'err', 00H
$SG49259 DB	'expected '')''', 00H
	ORG $+3
$SG49261 DB	'ccread_statement', 00H
	ORG $+3
$SG49314 DB	'err', 00H
$SG49262 DB	'W:\cpp\void\ktt-c\ccread.c', 00H
	ORG $+1
$SG49325 DB	'err', 00H
$SG49264 DB	'expected expression', 00H
$SG49329 DB	'err', 00H
$SG49266 DB	'ccread_statement', 00H
	ORG $+3
$SG49352 DB	'err', 00H
$SG49267 DB	'W:\cpp\void\ktt-c\ccread.c', 00H
	ORG $+1
$SG49380 DB	'err', 00H
$SG49270 DB	'expected statement', 00H
	ORG $+1
$SG49385 DB	'err', 00H
$SG49272 DB	'ccread_statement', 00H
	ORG $+3
$SG49390 DB	'err', 00H
$SG49273 DB	'W:\cpp\void\ktt-c\ccread.c', 00H
	ORG $+1
$SG49665 DB	'err', 00H
$SG49277 DB	'missing goto label identifier', 00H
	ORG $+2
$SG49279 DB	'ccread_statement', 00H
	ORG $+3
$SG49414 DB	'array', 00H
	ORG $+2
$SG49597 DB	'.JP-WL', 00H
	ORG $+1
$SG49740 DB	'>', 00H
	ORG $+2
$SG49280 DB	'W:\cpp\void\ktt-c\ccread.c', 00H
	ORG $+1
$SG49742 DB	'>=', 00H
	ORG $+1
$SG49282 DB	'expected '';''', 00H
	ORG $+3
$SG49284 DB	'ccread_statement', 00H
	ORG $+3
$SG49418 DB	'error', 00H
	ORG $+2
$SG49598 DB	'.JP-WE', 00H
	ORG $+1
$SG49744 DB	'<', 00H
	ORG $+2
$SG49285 DB	'W:\cpp\void\ktt-c\ccread.c', 00H
	ORG $+1
$SG49746 DB	'<=', 00H
	ORG $+1
$SG49291 DB	'expected ''(''', 00H
	ORG $+3
$SG49293 DB	'ccread_statement', 00H
	ORG $+3
$SG49594 DB	'.JP-E', 00H
	ORG $+2
$SG49748 DB	'*', 00H
	ORG $+2
$SG49294 DB	'W:\cpp\void\ktt-c\ccread.c', 00H
	ORG $+1
$SG49750 DB	'/', 00H
	ORG $+2
$SG49296 DB	'expected '')''', 00H
	ORG $+3
$SG49298 DB	'ccread_statement', 00H
	ORG $+3
$SG49599 DB	'error', 00H
	ORG $+2
$SG49752 DB	'-', 00H
	ORG $+2
$SG49299 DB	'W:\cpp\void\ktt-c\ccread.c', 00H
	ORG $+1
$SG49754 DB	'+', 00H
	ORG $+2
$SG49301 DB	'expected expression', 00H
$SG49835 DB	'zro', 00H
$SG49303 DB	'ccread_statement', 00H
	ORG $+3
$SG49629 DB	'error', 00H
	ORG $+2
$SG49877 DB	'log', 00H
$SG49304 DB	'W:\cpp\void\ktt-c\ccread.c', 00H
	ORG $+1
pf	DB	069H
	DB	075H
	DB	063H
	DB	066H
$SG49307 DB	'expected statement', 00H
	ORG $+1
fn	DB	078H
	DB	079H
	DB	07aH
	DB	077H
$SG49309 DB	'ccread_statement', 00H
	ORG $+3
$SG49756 DB	'error', 00H
	ORG $+2
$SG50007 DB	'i', 00H
	ORG $+2
$SG49310 DB	'W:\cpp\void\ktt-c\ccread.c', 00H
	ORG $+1
$SG50008 DB	'lli', 00H
$SG49313 DB	'expected statement', 00H
	ORG $+1
$SG50009 DB	'c', 00H
	ORG $+2
$SG49315 DB	'ccread_statement', 00H
	ORG $+3
$SG49843 DB	'fetch', 00H
	ORG $+2
$SG50010 DB	'f', 00H
	ORG $+2
$SG49316 DB	'W:\cpp\void\ktt-c\ccread.c', 00H
	ORG $+1
$SG50025 DB	'x%i', 00H
$SG49324 DB	'invalid statement, missing '':'' for label statement?', 00H
$SG50035 DB	'%s', 00H
	ORG $+1
$SG49326 DB	'ccread_statement', 00H
	ORG $+3
$SG49865 DB	'error', 00H
	ORG $+2
$SG50041 DB	'*', 00H
	ORG $+2
$SG49327 DB	'W:\cpp\void\ktt-c\ccread.c', 00H
	ORG $+1
$SG50043 DB	'&', 00H
	ORG $+2
$SG49328 DB	'invalid statement', 00H
	ORG $+2
$SG50045 DB	'[]', 00H
	ORG $+1
$SG49330 DB	'ccread_statement', 00H
	ORG $+3
$SG49881 DB	'error', 00H
	ORG $+2
$SG50058 DB	'%s ', 00H
$SG49331 DB	'W:\cpp\void\ktt-c\ccread.c', 00H
	ORG $+1
$SG50065 DB	'%c', 00H
	ORG $+1
$SG49351 DB	'expected ''}''', 00H
	ORG $+3
$SG49353 DB	'ccread_block', 00H
	ORG $+3
$SG49354 DB	'W:\cpp\void\ktt-c\ccread.c', 00H
	ORG $+1
$SG50091 DB	'(', 00H
	ORG $+2
$SG49379 DB	'expected '';''', 00H
	ORG $+3
$SG49381 DB	'ccread_external_declaration', 00H
$SG50093 DB	',', 00H
	ORG $+2
$SG49382 DB	'W:\cpp\void\ktt-c\ccread.c', 00H
	ORG $+1
$SG50094 DB	')', 00H
	ORG $+2
$SG49384 DB	'expected '';''', 00H
	ORG $+3
$SG49386 DB	'ccread_external_declaration', 00H
$SG50103 DB	'%sm', 00H
$SG49387 DB	'W:\cpp\void\ktt-c\ccread.c', 00H
	ORG $+1
$SG50104 DB	0dH, 0aH, 00H
	ORG $+1
$SG49389 DB	'invalid external declaration', 00H
	ORG $+3
$SG49391 DB	'ccread_external_declaration', 00H
$SG50105 DB	'{ ', 00H
	ORG $+1
$SG49392 DB	'W:\cpp\void\ktt-c\ccread.c', 00H
	ORG $+1
$SG50106 DB	';', 00H
	ORG $+2
$SG49417 DB	'integer', 00H
$SG49442 DB	'ccemit_constant', 00H
$SG49443 DB	'W:\cpp\void\ktt-c\ccemit.c', 00H
	ORG $+1
$SG50109 DB	'}', 0dH, 0aH, 00H
$SG49488 DB	'internal', 00H
	ORG $+3
$SG49939 DB	'arg-0', 00H
	ORG $+2
$SG50122 DB	',', 00H
	ORG $+2
$SG49506 DB	'internal', 00H
	ORG $+3
$SG49628 DB	'main', 00H
	ORG $+7
$SG49666 DB	'ccstack_yield', 00H
	ORG $+2
$SG49685 DB	'constant-value', 00H
	ORG $+1
$SG49707 DB	'ccstack_local_alloc', 00H
	ORG $+4
$SG49664 DB	'value kind is invalid, did you register this value and n'
	DB	'ot set its contents?', 00H
	ORG $+3
$SG49667 DB	'W:\cpp\void\ktt-c\ccexec.c', 00H
	ORG $+1
$SG50123 DB	')', 0dH, 0aH, 00H
$SG49708 DB	'W:\cpp\void\ktt-c\ccexec.c', 00H
	ORG $+1
$SG50124 DB	'{ ', 00H
	ORG $+1
$SG49709 DB	'local_alloc', 00H
$SG50125 DB	';', 00H
	ORG $+2
$SG49757 DB	'internal-error', 00H
	ORG $+1
$SG49839 DB	'address', 00H
$SG49854 DB	'no-return value, error', 00H
	ORG $+1
$SG49855 DB	'ccexec_edict', 00H
	ORG $+3
$SG49856 DB	'W:\cpp\void\ktt-c\ccexec.c', 00H
	ORG $+1
$SG50128 DB	'}', 0dH, 0aH, 00H
$SG49859 DB	'deprecated', 00H
	ORG $+1
$SG50139 DB	0dH, 0aH, 00H
	ORG $+1
$SG49876 DB	'size %i', 00H
$SG49878 DB	'ccexec_sizeof', 00H
	ORG $+2
$SG49879 DB	'W:\cpp\void\ktt-c\ccexec.c', 00H
	ORG $+1
$SG50140 DB	'{', 00H
	ORG $+2
$SG49913 DB	'ccexec_invoke', 00H
	ORG $+2
$SG49914 DB	'W:\cpp\void\ktt-c\ccexec.c', 00H
	ORG $+1
$SG50142 DB	';', 00H
	ORG $+2
$SG49940 DB	'fib c:%i %f(s) - cc:%i %f(s)', 0aH, 00H
	ORG $+2
$SG49981 DB	'gen_type', 00H
	ORG $+3
$SG50143 DB	0dH, 0aH, 00H
	ORG $+1
$SG49982 DB	'W:\cpp\void\ktt-c\ccemit-c.c', 00H
	ORG $+3
$SG50019 DB	'%c%i', 00H
	ORG $+3
$SG50022 DB	'%c%i_%i', 00H
$SG50086 DB	'static ', 00H
$SG50089 DB	'void', 00H
	ORG $+3
$SG50090 DB	0dH, 0aH, '%s', 00H
	ORG $+3
$SG50107 DB	0dH, 0aH, '  r.%c=%c;', 00H
	ORG $+3
$SG50108 DB	0dH, 0aH, '  return r;', 0dH, 0aH, 00H
$SG50119 DB	'static %s operator %s (', 00H
$SG50126 DB	0dH, 0aH, '  r.%c=a.%c%cb.%c;', 00H
	ORG $+3
$SG50127 DB	0dH, 0aH, '  return r;', 0dH, 0aH, 00H
$SG50138 DB	'typedef struct ', 00H
$SG50141 DB	0dH, 0aH, '  ', 00H
	ORG $+3
$SG50144 DB	'} ', 00H
	ORG $+1
$SG50145 DB	';', 0dH, 0aH, 00H
$SG50146 DB	'*', 00H
	ORG $+2
$SG50147 DB	'*=', 00H
	ORG $+1
$SG50148 DB	'/', 00H
	ORG $+2
$SG50149 DB	'/=', 00H
	ORG $+1
$SG50150 DB	'+', 00H
	ORG $+2
$SG50151 DB	'+=', 00H
	ORG $+1
$SG50152 DB	'-', 00H
	ORG $+2
$SG50153 DB	'-=', 00H
	ORG $+1
$SG50187 DB	'log test 1', 00H
	ORG $+1
$SG50188 DB	'log', 00H
$SG50189 DB	'main', 00H
	ORG $+3
$SG50190 DB	'test.c', 00H
	ORG $+1
$SG50191 DB	'log test 2', 00H
	ORG $+1
$SG50192 DB	'log', 00H
$SG50193 DB	'main', 00H
	ORG $+3
$SG50194 DB	'test.c', 00H
	ORG $+1
$SG50195 DB	'log test 3', 00H
	ORG $+1
$SG50196 DB	'log', 00H
$SG50197 DB	'main', 00H
	ORG $+3
$SG50198 DB	'test.c', 00H
	ORG $+1
$SG50199 DB	'test.svm.c', 00H
	ORG $+5
$SG50200 DB	'#define f64 double', 0dH, 0aH, '#define f32 float', 0dH, 0aH
	DB	'#ifdef _MSC_VER', 0dH, 0aH, '# define i64 signed   __int64', 0dH
	DB	0aH, '# define u64 unsigned __int64', 0dH, 0aH, '# define i32 '
	DB	'signed   __int32', 0dH, 0aH, '# define u32 unsigned __int32', 0dH
	DB	0aH, '# define i16 signed   __int16', 0dH, 0aH, '# define u16 '
	DB	'unsigned __int16', 0dH, 0aH, '# define i8  signed   __int8', 0dH
	DB	0aH, '# define u8  unsigned __int8', 0dH, 0aH, '#else', 0dH, 0aH
	DB	'# define i64 signed   long long', 0dH, 0aH, '# define u64 uns'
	DB	'igned long long', 0dH, 0aH, '# define i32 signed   int', 0dH, 0aH
	DB	'# define u32 unsigned int', 0dH, 0aH, '# define i16 signed   '
	DB	'short', 0dH, 0aH, '# define u16 unsigned short', 0dH, 0aH, '#'
	DB	' define i8  signed   char', 0dH, 0aH, '# define u8  unsigned '
	DB	'char', 0dH, 0aH, '#endif', 0dH, 0aH, '#define c8  char', 0dH, 0aH
	DB	'#define c16 wchar_t', 0dH, 0aH, 00H
	ORG $+1
$SG50201 DB	'#define f64 double', 0dH, 0aH, '#define f32 float', 0dH, 0aH
	DB	'#ifdef _MSC_VER', 0dH, 0aH, '# define i64 signed   __int64', 0dH
	DB	0aH, '# define u64 unsigned __int64', 0dH, 0aH, '# define i32 '
	DB	'signed   __int32', 0dH, 0aH, '# define u32 unsigned __int32', 0dH
	DB	0aH, '# define i16 signed   __int16', 0dH, 0aH, '# define u16 '
	DB	'unsigned __int16', 0dH, 0aH, '# define i8  signed   __int8', 0dH
	DB	0aH, '# define u8  unsigned __int8', 0dH, 0aH, '#else', 0dH, 0aH
	DB	'# define i64 signed   long long', 0dH, 0aH, '# define u64 uns'
	DB	'igned long long', 0dH, 0aH, '# define i32 signed   int', 0dH, 0aH
	DB	'# define u32 unsigned int', 0dH, 0aH, '# define i16 signed   '
	DB	'short', 0dH, 0aH, '# define u16 unsigned short', 0dH, 0aH, '#'
	DB	' define i8  signed   char', 0dH, 0aH, '# define u8  unsigned '
	DB	'char', 0dH, 0aH, '#endif', 0dH, 0aH, '#define c8  char', 0dH, 0aH
	DB	'#define c16 wchar_t', 0dH, 0aH, 00H
	ORG $+1
$SG50202 DB	'#define f64 double', 0dH, 0aH, '#define f32 float', 0dH, 0aH
	DB	'#ifdef _MSC_VER', 0dH, 0aH, '# define i64 signed   __int64', 0dH
	DB	0aH, '# define u64 unsigned __int64', 0dH, 0aH, '# define i32 '
	DB	'signed   __int32', 0dH, 0aH, '# define u32 unsigned __int32', 0dH
	DB	0aH, '# define i16 signed   __int16', 0dH, 0aH, '# define u16 '
	DB	'unsigned __int16', 0dH, 0aH, '# define i8  signed   __int8', 0dH
	DB	0aH, '# define u8  unsigned __int8', 0dH, 0aH, '#else', 0dH, 0aH
	DB	'# define i64 signed   long long', 0dH, 0aH, '# define u64 uns'
	DB	'igned long long', 0dH, 0aH, '# define i32 signed   int', 0dH, 0aH
	DB	'# define u32 unsigned int', 0dH, 0aH, '# define i16 signed   '
	DB	'short', 0dH, 0aH, '# define u16 unsigned short', 0dH, 0aH, '#'
	DB	' define i8  signed   char', 0dH, 0aH, '# define u8  unsigned '
	DB	'char', 0dH, 0aH, '#endif', 0dH, 0aH, '#define c8  char', 0dH, 0aH
	DB	'#define c16 wchar_t', 0dH, 0aH, 00H
	ORG $+1
$SG50203 DB	'gen.ktt.c', 00H
	ORG $+2
$SG45592 DB	'null', 00H
	ORG $+3
$SG45674 DB	'_KMGT', 00H
	ORG $+2
$SG45675 DB	'_kMGT', 00H
	ORG $+2
$SG46207 DB	'NaN', 00H
$SG46208 DB	'Inf', 00H
	ORG $+4
stbsp__bot DQ	03ff0000000000000r		; 1
	DQ	04024000000000000r		; 10
	DQ	04059000000000000r		; 100
	DQ	0408f400000000000r		; 1000
	DQ	040c3880000000000r		; 10000
	DQ	040f86a0000000000r		; 100000
	DQ	0412e848000000000r		; 1e+06
	DQ	0416312d000000000r		; 1e+07
	DQ	04197d78400000000r		; 1e+08
	DQ	041cdcd6500000000r		; 1e+09
	DQ	04202a05f20000000r		; 1e+10
	DQ	042374876e8000000r		; 1e+11
	DQ	0426d1a94a2000000r		; 1e+12
	DQ	042a2309ce5400000r		; 1e+13
	DQ	042d6bcc41e900000r		; 1e+14
	DQ	0430c6bf526340000r		; 1e+15
	DQ	04341c37937e08000r		; 1e+16
	DQ	04376345785d8a000r		; 1e+17
	DQ	043abc16d674ec800r		; 1e+18
	DQ	043e158e460913d00r		; 1e+19
	DQ	04415af1d78b58c40r		; 1e+20
	DQ	0444b1ae4d6e2ef50r		; 1e+21
	DQ	04480f0cf064dd592r		; 1e+22
$SG46246 DB	0dH, 0aH, 00H
	ORG $+5
stbsp__negbot DQ 03fb999999999999ar		; 0.1
	DQ	03f847ae147ae147br		; 0.01
	DQ	03f50624dd2f1a9fcr		; 0.001
	DQ	03f1a36e2eb1c432dr		; 0.0001
	DQ	03ee4f8b588e368f1r		; 1e-05
	DQ	03eb0c6f7a0b5ed8dr		; 1e-06
	DQ	03e7ad7f29abcaf48r		; 1e-07
	DQ	03e45798ee2308c3ar		; 1e-08
	DQ	03e112e0be826d695r		; 1e-09
	DQ	03ddb7cdfd9d7bdbbr		; 1e-10
	DQ	03da5fd7fe1796495r		; 1e-11
	DQ	03d719799812dea11r		; 1e-12
	DQ	03d3c25c268497682r		; 1e-13
	DQ	03d06849b86a12b9br		; 1e-14
	DQ	03cd203af9ee75616r		; 1e-15
	DQ	03c9cd2b297d889bcr		; 1e-16
	DQ	03c670ef54646d497r		; 1e-17
	DQ	03c32725dd1d243acr		; 1e-18
	DQ	03bfd83c94fb6d2acr		; 1e-19
	DQ	03bc79ca10c924223r		; 1e-20
	DQ	03b92e3b40a0e9b4fr		; 1e-21
	DQ	03b5e392010175ee6r		; 1e-22
stbsp__negboterr DQ 0bc5999999999999ar		; -5.55112e-18
	DQ	0bc0eb851eb851eb8r		; -2.08167e-19
	DQ	0bbd89374bc6a7efar		; -2.08167e-20
	DQ	0bbb6a161e4f765fer		; -4.79217e-21
	DQ	0bb8ee78183f91e64r		; -8.18031e-22
	DQ	03b4b5a63f9a49c2cr		; 4.52519e-23
	DQ	03b15e1e99483b023r		; 4.52519e-24
	DQ	0bad03023df2d4c94r		; -2.09226e-25
	DQ	0bab34674bfabb83br		; -6.22816e-26
	DQ	0ba720a5465df8d2cr		; -3.64322e-27
	DQ	03a47f7bc7b4d28aar		; 6.0503e-28
	DQ	039f97f27f0f6e886r		; 2.01134e-29
	DQ	0b9cecd79a5a0df95r		; -3.03737e-30
	DQ	0394ea70909833de7r		; 1.18069e-32
	DQ	0b97937831647f5a0r		; -7.77054e-32
	DQ	03925b4c2ebe68799r		; 2.09022e-33
	DQ	0b90db7b2080a3029r		; -7.15424e-34
	DQ	0b8d7c628066e8ceer		; -7.15424e-35
	DQ	0388a52b31e9e3d07r		; 2.47541e-36
	DQ	038675447a5d8e536r		; 5.48467e-37
	DQ	0383f769fb7e0b75er		; 9.24625e-38
	DQ	0b7fa7566d9cba769r		; -4.85968e-39
stbsp__top DQ	044b52d02c7e14af6r		; 1e+23
	DQ	0497c06a5ec5433c6r		; 1e+46
	DQ	04e428bc8abe49f64r		; 1e+69
	DQ	053088ba3bf284e24r		; 1e+92
	DQ	057d03e29f5c2b18cr		; 1e+115
	DQ	05c957f48bb41db7cr		; 1e+138
	DQ	0615c73892ecbfbf4r		; 1e+161
	DQ	06622d3d6f88f0b3dr		; 1e+184
	DQ	06ae8eb0138858d0ar		; 1e+207
	DQ	06fb07d457124123dr		; 1e+230
	DQ	07475d2ce55747a18r		; 1e+253
	DQ	0793ce2137f743382r		; 1e+276
	DQ	07e031cfd3999f7b0r		; 1e+299
$SG46300 DB	'%s: %s[%i] %s() %s', 0aH, 00H
	ORG $+4
stbsp__negtop DQ 03b282db34012b251r		; 1e-23
	DQ	0366244ce242c5561r		; 1e-46
	DQ	0319b9b6364f30304r		; 1e-69
	DQ	02cd4dbf7b3f71cb7r		; 1e-92
	DQ	0280f8587e7083e30r		; 1e-115
	DQ	02347d12a4670c123r		; 1e-138
	DQ	01e81fee341fc585dr		; 1e-161
	DQ	019bb31bb5dc320d2r		; 1e-184
	DQ	014f48c22ca71a1bdr		; 1e-207
	DQ	0102f0ce4839198dbr		; 1e-230
	DQ	00b677603725064a8r		; 1e-253
	DQ	006a1ba03f5b21000r		; 1e-276
	DQ	001dac9a7b3b7302fr		; 1e-299
$SG46341 DB	'none', 00H
	ORG $+3
stbsp__toperr DQ 04160000000000000r		; 8.38861e+06
	DQ	045ebb542c80deb40r		; 6.86018e+28
	DQ	0cae83b80b9aab60ar		; -7.25314e+52
	DQ	0cfa32e22d17a166cr		; -4.33773e+75
	DQ	0d4523606902e180er		; -1.55594e+98
	DQ	0d9296fb782462e87r		; -3.28416e+121
	DQ	0ddf358952c0bd011r		; -3.77459e+144
	DQ	0e2a78c1376a34b6cr		; -1.73567e+167
	DQ	0e7817569fc243adfr		; -3.88936e+190
	DQ	0ec5d9365a897aaa6r		; -9.95664e+213
	DQ	07119050c256123a0r		; 6.36413e+236
	DQ	0f5db1799d76cc7a6r		; -5.20691e+259
	DQ	0faa213fe39571a38r		; -5.25048e+282
$SG46343 DB	'already in table', 00H
	ORG $+7
stbsp__negtoperr DQ 037c13badb829e079r		; 3.95653e-40
	DQ	0b2ee46a98d3d9f64r		; -2.2999e-63
	DQ	02e3227c7218a2b65r		; 3.65062e-86
	DQ	02951d96999aa01e9r		; 1.18752e-109
	DQ	0a4acc2229efc3962r		; -5.06449e-132
	DQ	09fecd04a2263407ar		; -6.71568e-155
	DQ	09b123b80f187a157r		; -2.81208e-178
	DQ	0965c4e22914ed912r		; -5.77789e-201
	DQ	0119bc296cdf42f82r		; 7.49971e-224
	DQ	08cc9f9e7f4e16fe1r		; -4.64397e-247
	DQ	0880aeb0a72a8902ar		; -6.36911e-270
	DQ	0834e228e12c13408r		; -9.43681e-293
	DQ	00000000000fa1259r		; 8.09709e-317
$SG46345 DB	'invalid user argument', 00H
	ORG $+2
stbsp__powten DQ 0000000000000001H
	DQ	000000000000000aH
	DQ	0000000000000064H
	DQ	00000000000003e8H
	DQ	0000000000002710H
	DQ	00000000000186a0H
	DQ	00000000000f4240H
	DQ	0000000000989680H
	DQ	0000000005f5e100H
	DQ	000000003b9aca00H
	DQ	00000002540be400H
	DQ	000000174876e800H
	DQ	000000e8d4a51000H
	DQ	000009184e72a000H
	DQ	00005af3107a4000H
	DQ	00038d7ea4c68000H
	DQ	002386f26fc10000H
	DQ	016345785d8a0000H
	DQ	0de0b6b3a7640000H
	DQ	8ac7230489e80000H
$SG46342 DB	'not in table', 00H
	ORG $+3
$SG46344 DB	'out of memory', 00H
	ORG $+2
$SG46377 DB	'ccdlb_arradd_', 00H
	ORG $+2
$SG46378 DB	'W:\cpp\void\ktt-c\ccdlb.h', 00H
	ORG $+2
$SG46950 DB	'kARRAY', 00H
	ORG $+1
$SG47249 DB	'err', 00H
$SG46437 DB	'ccdlb_tblcat', 00H
	ORG $+3
$SG46438 DB	'W:\cpp\void\ktt-c\ccdlb.h', 00H
	ORG $+2
$SG46598 DB	'%c%i', 00H
	ORG $+3
$SG46599 DB	'%c%i', 00H
	ORG $+3
$SG46600 DB	'%c%i', 00H
	ORG $+3
$SG46601 DB	'%c%i', 00H
	ORG $+3
$SG46602 DB	'%c%i', 00H
	ORG $+3
$SG46603 DB	'%c%i', 00H
	ORG $+3
$SG46604 DB	'%c%i', 00H
	ORG $+3
$SG46605 DB	'%c%i', 00H
	ORG $+3
$SG46948 DB	'kENUM', 00H
	ORG $+2
$SG46954 DB	'kFLOAT', 00H
	ORG $+1
$SG47273 DB	'err', 00H
$SG46646 DB	'ccpullfile', 00H
	ORG $+1
$SG47295 DB	'err', 00H
$SG46647 DB	'W:\cpp\void\ktt-c\ccfio.c', 00H
	ORG $+2
$SG46956 DB	'kBLOCK', 00H
	ORG $+1
$SG47306 DB	'err', 00H
$SG46946 DB	'kTYPENAME', 00H
	ORG $+2
$SG46957 DB	'kLABEL', 00H
	ORG $+1
$SG47317 DB	'err', 00H
$SG46947 DB	'kSTRUCT', 00H
$SG46949 DB	'kFUNC', 00H
	ORG $+2
$SG46951 DB	'kPOINTER', 00H
	ORG $+3
$SG46959 DB	'kGOTO', 00H
	ORG $+2
$SG46960 DB	'kWHILE', 00H
	ORG $+1
$SG47332 DB	'err', 00H
$SG46952 DB	'kIDENTIFIER', 00H
$SG47404 DB	'err', 00H
$SG46953 DB	'kINTEGER', 00H
	ORG $+3
$SG46962 DB	'kDECL', 00H
	ORG $+2
$SG46965 DB	'kUNARY', 00H
	ORG $+1
$SG47408 DB	'err', 00H
$SG46955 DB	'kSTRING', 00H
$SG46958 DB	'kRETURN', 00H
$SG46961 DB	'kDECLNAME', 00H
	ORG $+2
$SG46966 DB	'kGROUP', 00H
	ORG $+1
$SG47414 DB	'err', 00H
$SG46963 DB	'kTERNARY', 00H
	ORG $+3
$SG46967 DB	'kCALL', 00H
	ORG $+2
$SG46968 DB	'kINDEX', 00H
	ORG $+1
$SG48139 DB	'err', 00H
$SG46964 DB	'kBINARY', 00H
$SG46969 DB	'kTUNIT', 00H
	ORG $+1
$SG46970 DB	't_designator', 00H
	ORG $+3
$SG46971 DB	't_designation', 00H
	ORG $+2
$SG47064 DB	'cctree_del', 00H
	ORG $+1
$SG48223 DB	'int', 00H
$SG47065 DB	'W:\cpp\void\ktt-c\cctree.h', 00H
	ORG $+1
$SG48239 DB	'if', 00H
	ORG $+1
$SG47074 DB	'cctree_new', 00H
	ORG $+1
$SG48244 DB	'for', 00H
$SG47075 DB	'W:\cpp\void\ktt-c\cctree.h', 00H
	ORG $+1
$SG48246 DB	'do', 00H
	ORG $+1
$SG47248 DB	'''%s[0x%x]'': uncoupled tree, ''%s'', checker did not do'
	DB	' its job', 00H
	ORG $+3
$SG47250 DB	'cctree_resolve_symbol', 00H
	ORG $+2
$SG47251 DB	'W:\cpp\void\ktt-c\cccheck.c', 00H
$SG47266 DB	'error', 00H
	ORG $+2
$SG47468 DB	'INVOKE', 00H
	ORG $+1
$SG48652 DB	'err', 00H
$SG47272 DB	'''%s[0x%x]'': invalid mingling tree, expected CALL or ID'
	DB	'ENTIFIER', 00H
	ORG $+1
$SG47274 DB	'cctree_mingle', 00H
	ORG $+2
$SG47275 DB	'W:\cpp\void\ktt-c\cccheck.c', 00H
$SG48669 DB	'err', 00H
$SG47294 DB	'%s: identifier not found', 00H
	ORG $+3
$SG47379 DB	'error', 00H
	ORG $+2
$SG47469 DB	'RETURN', 00H
	ORG $+1
$SG48676 DB	'err', 00H
$SG47296 DB	'cctree_solve_call', 00H
	ORG $+2
$SG47713 DB	'jump-c', 00H
	ORG $+1
$SG48720 DB	'err', 00H
$SG47297 DB	'W:\cpp\void\ktt-c\cccheck.c', 00H
$SG48839 DB	'err', 00H
$SG47305 DB	'%s: identifier not found', 00H
	ORG $+3
$SG47422 DB	'error', 00H
	ORG $+2
$SG47719 DB	'invoke', 00H
	ORG $+1
$SG48920 DB	'err', 00H
$SG47307 DB	'cctree_solve_index', 00H
	ORG $+1
$SG48925 DB	'war', 00H
$SG47308 DB	'W:\cpp\void\ktt-c\cccheck.c', 00H
$SG48930 DB	'war', 00H
$SG47316 DB	'''%s'': undeclared lvalue identifier', 00H
	ORG $+1
$SG48936 DB	'err', 00H
$SG47318 DB	'cctree_solve_lvalue', 00H
$SG48955 DB	'err', 00H
$SG47319 DB	'W:\cpp\void\ktt-c\cccheck.c', 00H
$SG48985 DB	'err', 00H
$SG47322 DB	'internal', 00H
	ORG $+3
$SG47456 DB	'LOCAL', 00H
	ORG $+2
$SG47724 DB	'return', 00H
	ORG $+1
$SG48999 DB	'err', 00H
$SG47331 DB	'''%s'': undeclared rvalue identifier', 00H
	ORG $+1
$SG49040 DB	'err', 00H
$SG47333 DB	'cctree_solve_rvalue', 00H
$SG49054 DB	'err', 00H
$SG47334 DB	'W:\cpp\void\ktt-c\cccheck.c', 00H
$SG49073 DB	'err', 00H
$SG47339 DB	'internal', 00H
	ORG $+3
$SG47457 DB	'PARAM', 00H
	ORG $+2
$SG47861 DB	'cctype', 00H
	ORG $+1
$SG49078 DB	'err', 00H
$SG47403 DB	'%s: already has a body', 00H
	ORG $+1
$SG47405 DB	'cctree_solve_decl_name', 00H
	ORG $+1
$SG47406 DB	'W:\cpp\void\ktt-c\cccheck.c', 00H
$SG49083 DB	'err', 00H
$SG47407 DB	'''%s'': local function defintions are illegal', 00H
	ORG $+4
$SG47409 DB	'cctree_solve_decl_name', 00H
	ORG $+1
$SG47410 DB	'W:\cpp\void\ktt-c\cccheck.c', 00H
	ORG $+4
$SG47413 DB	'''%s'': variable redefinition', 00H
	ORG $+4
$SG47415 DB	'cctree_solve_decl_name', 00H
	ORG $+1
$SG47416 DB	'W:\cpp\void\ktt-c\cccheck.c', 00H
	ORG $+4
$SG47458 DB	'ADDRESS', 00H
$SG47459 DB	'STORE', 00H
	ORG $+2
$SG47460 DB	'FETCH', 00H
	ORG $+2
$SG47461 DB	'ARITH', 00H
	ORG $+2
$SG47462 DB	'JUMP', 00H
	ORG $+3
$SG47463 DB	'JUMPT', 00H
	ORG $+2
$SG47464 DB	'JUMPF', 00H
	ORG $+2
$SG47465 DB	'JUMPC', 00H
	ORG $+2
$SG47466 DB	'TERNARY', 00H
$SG47467 DB	'ENTER', 00H
	ORG $+2
$SG47654 DB	'ccedict', 00H
$SG47655 DB	'W:\cpp\void\ktt-c\ccedict.h', 00H
$SG47675 DB	'store', 00H
	ORG $+2
$SG47681 DB	'fetch', 00H
	ORG $+2
$SG47688 DB	'arith', 00H
	ORG $+2
$SG47693 DB	'enter', 00H
	ORG $+6
$SG47730 DB	'address', 00H
$SG47737 DB	'ternary', 00H
$SG47852 DB	'ccvalue', 00H
$SG47853 DB	'W:\cpp\void\ktt-c\ccemit.h', 00H
	ORG $+5
$SG47862 DB	'W:\cpp\void\ktt-c\ccemit.h', 00H
	ORG $+5
$SG47869 DB	'ccblock', 00H
$SG47870 DB	'W:\cpp\void\ktt-c\ccemit.h', 00H
	ORG $+5
$SG47877 DB	'ccprocd', 00H
$SG47878 DB	'W:\cpp\void\ktt-c\ccemit.h', 00H
	ORG $+1
$SG47908 DB	'$decls', 00H
	ORG $+1
$SG47909 DB	'$enter', 00H
	ORG $+1
$SG47910 DB	'$leave', 00H
	ORG $+5
$SG47930 DB	'ccblock_add', 00H
	ORG $+4
$SG47931 DB	'W:\cpp\void\ktt-c\ccemit.h', 00H
	ORG $+5
$SG48121 DB	'cclex_hash', 00H
	ORG $+5
$SG48122 DB	'W:\cpp\void\ktt-c\cclex.c', 00H
	ORG $+6
$SG48138 DB	'invalid key, already in hash table', 00H
	ORG $+5
$SG48140 DB	'cclex_hashonly', 00H
	ORG $+1
$SG48141 DB	'W:\cpp\void\ktt-c\cclex.c', 00H
	ORG $+2
$SG48198 DB	'__asm', 00H
	ORG $+6
$SG48199 DB	'__based', 00H
$SG48200 DB	'__cdecl', 00H
$SG48201 DB	'__clrcall', 00H
	ORG $+6
$SG48202 DB	'__fastcall', 00H
	ORG $+5
$SG48203 DB	'__inline', 00H
	ORG $+7
$SG48204 DB	'__stdcall', 00H
	ORG $+6
$SG48205 DB	'__thiscall', 00H
	ORG $+5
$SG48206 DB	'__vectorcal', 00H
	ORG $+4
$SG48207 DB	'_Alignof', 00H
	ORG $+7
$SG48208 DB	'_Alignas', 00H
	ORG $+3
$SG48209 DB	'const', 00H
	ORG $+6
$SG48210 DB	'restrict', 00H
	ORG $+7
$SG48211 DB	'volatile', 00H
	ORG $+3
$SG48212 DB	'inline', 00H
	ORG $+5
$SG48213 DB	'_Noreturn', 00H
	ORG $+2
$SG48214 DB	'signed', 00H
	ORG $+5
$SG48215 DB	'unsigned', 00H
	ORG $+3
$SG48216 DB	'__int8', 00H
	ORG $+5
$SG48217 DB	'__int16', 00H
$SG48218 DB	'__int32', 00H
$SG48219 DB	'__int64', 00H
$SG48220 DB	'double', 00H
	ORG $+1
$SG48221 DB	'float', 00H
	ORG $+2
$SG48222 DB	'long', 00H
	ORG $+3
$SG48224 DB	'short', 00H
	ORG $+2
$SG48225 DB	'char', 00H
	ORG $+3
$SG48226 DB	'void', 00H
	ORG $+3
$SG48227 DB	'_Bool', 00H
	ORG $+2
$SG48228 DB	'_Complex', 00H
	ORG $+7
$SG48229 DB	'_Atomic', 00H
$SG48230 DB	'enum', 00H
	ORG $+3
$SG48231 DB	'struct', 00H
	ORG $+1
$SG48232 DB	'typedef', 00H
$SG48233 DB	'auto', 00H
	ORG $+3
$SG48234 DB	'extern', 00H
	ORG $+1
$SG48235 DB	'register', 00H
	ORG $+3
$SG48236 DB	'static', 00H
	ORG $+5
$SG48237 DB	'_Thread_local', 00H
	ORG $+2
$SG48238 DB	'__declspec', 00H
	ORG $+1
$SG48240 DB	'switch', 00H
	ORG $+1
$SG48241 DB	'else', 00H
	ORG $+3
$SG48242 DB	'case', 00H
	ORG $+7
$SG48243 DB	'default', 00H
$SG48245 DB	'while', 00H
	ORG $+2
$SG48247 DB	'goto', 00H
	ORG $+3
$SG48248 DB	'return', 00H
	ORG $+1
$SG48249 DB	'break', 00H
	ORG $+2
$SG48250 DB	'continue', 00H
	ORG $+7
$SG48264 DB	'cclex_init', 00H
	ORG $+5
$SG48265 DB	'W:\cpp\void\ktt-c\cclex.c', 00H
	ORG $+6
$SG48538 DB	'ccread_uninit', 00H
	ORG $+2
$SG48539 DB	'W:\cpp\void\ktt-c\ccread.c', 00H
	ORG $+1
$SG48648 DB	'error', 00H
	ORG $+6
$SG48651 DB	'expected '')''', 00H
	ORG $+3
$SG48653 DB	'ccread_primary', 00H
	ORG $+1
$SG48654 DB	'W:\cpp\void\ktt-c\ccread.c', 00H
	ORG $+5
$SG48668 DB	'expected '')''', 00H
	ORG $+3
$SG48670 DB	'ccread_postfix', 00H
	ORG $+1
$SG48671 DB	'W:\cpp\void\ktt-c\ccread.c', 00H
	ORG $+5
$SG48675 DB	'expected '']''', 00H
	ORG $+3
$SG48677 DB	'ccread_postfix', 00H
	ORG $+1
$SG48678 DB	'W:\cpp\void\ktt-c\ccread.c', 00H
	ORG $+5
$SG48719 DB	'expected '')''', 00H
	ORG $+3
$SG48721 DB	'ccread_cast_expr', 00H
	ORG $+7
$SG48722 DB	'W:\cpp\void\ktt-c\ccread.c', 00H
	ORG $+5
$SG48838 DB	'expected '':'' invalid conditional expression', 00H
	ORG $+4
$SG48840 DB	'ccread_conditional_expr', 00H
$SG48841 DB	'W:\cpp\void\ktt-c\ccread.c', 00H
	ORG $+5
$SG48919 DB	'expected '')''', 00H
	ORG $+3
$SG48921 DB	'ccread_direct_decl_name_modifier', 00H
	ORG $+7
$SG48922 DB	'W:\cpp\void\ktt-c\ccread.c', 00H
	ORG $+5
$SG48924 DB	'function that returns function', 00H
	ORG $+1
$SG48926 DB	'ccread_direct_decl_name_modifier', 00H
	ORG $+7
$SG48927 DB	'W:\cpp\void\ktt-c\ccread.c', 00H
	ORG $+5
$SG48929 DB	'function that returns array', 00H
	ORG $+4
$SG48931 DB	'ccread_direct_decl_name_modifier', 00H
	ORG $+7
$SG48932 DB	'W:\cpp\void\ktt-c\ccread.c', 00H
	ORG $+5
$SG48935 DB	'expected '']''', 00H
	ORG $+3
$SG48937 DB	'ccread_direct_decl_name_modifier', 00H
	ORG $+7
$SG48938 DB	'W:\cpp\void\ktt-c\ccread.c', 00H
	ORG $+5
$SG48954 DB	'expected '')''', 00H
	ORG $+3
$SG48956 DB	'ccread_direct_decl_name', 00H
$SG48957 DB	'W:\cpp\void\ktt-c\ccread.c', 00H
	ORG $+5
$SG48984 DB	'expected initializer after ''=''', 00H
	ORG $+1
$SG48986 DB	'ccread_init_decl_name', 00H
	ORG $+2
$SG48987 DB	'W:\cpp\void\ktt-c\ccread.c', 00H
	ORG $+5
$SG48998 DB	'expected constant expression after '':''', 00H
	ORG $+1
$SG49000 DB	'ccread_struct_decl_name', 00H
$SG49001 DB	'W:\cpp\void\ktt-c\ccread.c', 00H
	ORG $+5
$SG49039 DB	'expected declarator', 00H
	ORG $+4
$SG49041 DB	'ccread_init_decl', 00H
	ORG $+7
$SG49042 DB	'W:\cpp\void\ktt-c\ccread.c', 00H
	ORG $+5
$SG49053 DB	'expected declarator', 00H
	ORG $+4
$SG49055 DB	'ccread_struct_decl', 00H
	ORG $+5
$SG49056 DB	'W:\cpp\void\ktt-c\ccread.c', 00H
	ORG $+5
$SG49072 DB	'expected ''{'' for struct specifier', 00H
	ORG $+6
$SG49074 DB	'ccread_struct_or_union_specifier', 00H
	ORG $+7
$SG49075 DB	'W:\cpp\void\ktt-c\ccread.c', 00H
	ORG $+5
$SG49077 DB	'expected '';''', 00H
	ORG $+3
$SG49079 DB	'ccread_struct_or_union_specifier', 00H
	ORG $+7
$SG49080 DB	'W:\cpp\void\ktt-c\ccread.c', 00H
	ORG $+5
$SG49082 DB	'expected ''}'' for struct specifier', 00H
	ORG $+6
$SG49084 DB	'ccread_struct_or_union_specifier', 00H
	ORG $+7
$SG49085 DB	'W:\cpp\void\ktt-c\ccread.c', 00H
	ORG $+1
$SG49087 DB	'noimpl', 00H
CONST	ENDS
PUBLIC	__local_stdio_printf_options
PUBLIC	_vfprintf_l
PUBLIC	printf
PUBLIC	stbsp_vsprintf
PUBLIC	stbsp_vsnprintf
PUBLIC	stbsp_sprintf
PUBLIC	stbsp_snprintf
PUBLIC	stbsp_vsprintfcb
PUBLIC	stbsp_set_separators
PUBLIC	fib
PUBLIC	gen_type
PUBLIC	gen_vectype
PUBLIC	gen_ptrtype
PUBLIC	gen_vartype
PUBLIC	gen_fixtype
PUBLIC	gen_typename_ex
PUBLIC	gen_typename
PUBLIC	emit_typename
PUBLIC	emit_modifier
PUBLIC	emit_vardecl_ex
PUBLIC	emit_vardecl
PUBLIC	emit_fundecl
PUBLIC	genmake
PUBLIC	emit_vecoprari
PUBLIC	emit_vectype
PUBLIC	emit_type
PUBLIC	main
PUBLIC	?_OptionsStorage@?1??__local_stdio_printf_options@@9@4_KA ; `__local_stdio_printf_options'::`2'::_OptionsStorage
PUBLIC	__real@3ff0000000000000
PUBLIC	__real@408f400000000000
PUBLIC	__real@4090000000000000
PUBLIC	__xmm@80000000000000008000000000000000
EXTRN	__report_rangecheckfailure:PROC
EXTRN	_Init_thread_header:PROC
EXTRN	_Init_thread_footer:PROC
EXTRN	memcmp:PROC
EXTRN	memcpy:PROC
EXTRN	memset:PROC
EXTRN	strcmp:PROC
EXTRN	strlen:PROC
EXTRN	__imp_CreateFileA:PROC
EXTRN	__imp_GetFileSize:PROC
EXTRN	__imp_ReadFile:PROC
EXTRN	__imp_WriteFile:PROC
EXTRN	__imp_OutputDebugStringA:PROC
EXTRN	__imp_CloseHandle:PROC
EXTRN	__imp_QueryPerformanceCounter:PROC
EXTRN	__imp_QueryPerformanceFrequency:PROC
EXTRN	_CrtIsValidHeapPointer:PROC
EXTRN	_free_dbg:PROC
EXTRN	_malloc_dbg:PROC
EXTRN	_realloc_dbg:PROC
EXTRN	__acrt_iob_func:PROC
EXTRN	__stdio_common_vfprintf:PROC
EXTRN	__GSHandlerCheck:PROC
EXTRN	__security_check_cookie:PROC
EXTRN	_Init_thread_epoch:DWORD
EXTRN	__ImageBase:BYTE
EXTRN	__security_cookie:QWORD
EXTRN	_fltused:DWORD
EXTRN	_tls_index:DWORD
;	COMDAT ?_OptionsStorage@?1??__local_stdio_printf_options@@9@4_KA
_BSS	SEGMENT
?_OptionsStorage@?1??__local_stdio_printf_options@@9@4_KA DQ 01H DUP (?) ; `__local_stdio_printf_options'::`2'::_OptionsStorage
_BSS	ENDS
;	COMDAT ?buf@?1??ccformatv@@9@4PADA
_TLS	SEGMENT
?buf@?1??ccformatv@@9@4PADA DB 0ffH DUP (?)		; `ccformatv'::`2'::buf
_TLS	ENDS
;	COMDAT ?buf@?1??cctrace_@@9@4PADA
_BSS	SEGMENT
?buf@?1??cctrace_@@9@4PADA DB 0fffH DUP (?)		; `cctrace_'::`2'::buf
_BSS	ENDS
_TLS	SEGMENT
ccerr	DD	01H DUP (?)
_TLS	ENDS
_BSS	SEGMENT
func_decls DQ	01H DUP (?)
vari_decls DQ	01H DUP (?)
symbols	DQ	01H DUP (?)
_BSS	ENDS
;	COMDAT ?end_tok@?1??ccpeek@@9@4Ucctoken_t@@A
_BSS	SEGMENT
?end_tok@?1??ccpeek@@9@4Ucctoken_t@@A DB 010H DUP (?)	; `ccpeek'::`2'::end_tok
_BSS	ENDS
;	COMDAT ?zro@?1??ccexec_edict@@9@4Uccexec_value_t@@A
_BSS	SEGMENT
?zro@?1??ccexec_edict@@9@4Uccexec_value_t@@A DB 018H DUP (?) ; `ccexec_edict'::`2'::zro
_BSS	ENDS
;	COMDAT ?$TSS0@?1??ccexec_edict@@9@4HA
_BSS	SEGMENT
?$TSS0@?1??ccexec_edict@@9@4HA DD 01H DUP (?)		; `ccexec_edict'::`2'::$TSS0
_BSS	ENDS
;	COMDAT ?buf@?1??gen_typename@@9@4PADA
_BSS	SEGMENT
?buf@?1??gen_typename@@9@4PADA DB 020H DUP (?)		; `gen_typename'::`2'::buf
_BSS	ENDS
;	COMDAT pdata
pdata	SEGMENT
$pdata$_vfprintf_l DD imagerel $LN3
	DD	imagerel $LN3+67
	DD	imagerel $unwind$_vfprintf_l
pdata	ENDS
;	COMDAT pdata
pdata	SEGMENT
$pdata$printf DD imagerel $LN3
	DD	imagerel $LN3+87
	DD	imagerel $unwind$printf
pdata	ENDS
pdata	SEGMENT
$pdata$cctrace_ DD imagerel cctrace_
	DD	imagerel cctrace_+217
	DD	imagerel $unwind$cctrace_
$pdata$ccmalloc_ DD imagerel ccmalloc_
	DD	imagerel ccmalloc_+64
	DD	imagerel $unwind$ccmalloc_
$pdata$ccrealloc_ DD imagerel ccrealloc_
	DD	imagerel ccrealloc_+73
	DD	imagerel $unwind$ccrealloc_
$pdata$ccfree_ DD imagerel ccfree_
	DD	imagerel ccfree_+59
	DD	imagerel $unwind$ccfree_
$pdata$ccrealfile DD imagerel ccrealfile
	DD	imagerel ccrealfile+41
	DD	imagerel $unwind$ccrealfile
$pdata$ccclosefile DD imagerel ccclosefile
	DD	imagerel ccclosefile+25
	DD	imagerel $unwind$ccclosefile
$pdata$ccopenfile DD imagerel ccopenfile
	DD	imagerel ccopenfile+109
	DD	imagerel $unwind$ccopenfile
$pdata$ccpullfile DD imagerel ccpullfile
	DD	imagerel ccpullfile+234
	DD	imagerel $unwind$ccpullfile
$pdata$ccpushfile DD imagerel ccpushfile
	DD	imagerel ccpushfile+119
	DD	imagerel $unwind$ccpushfile
$pdata$ccfilesize DD imagerel ccfilesize
	DD	imagerel ccfilesize+27
	DD	imagerel $unwind$ccfilesize
$pdata$ccclocktick DD imagerel ccclocktick
	DD	imagerel ccclocktick+25
	DD	imagerel $unwind$ccclocktick
$pdata$ccclocksecs DD imagerel ccclocksecs
	DD	imagerel ccclocksecs+78
	DD	imagerel $unwind$ccclocksecs
$pdata$stbsp_vsprintf DD imagerel $LN3
	DD	imagerel $LN3+53
	DD	imagerel $unwind$stbsp_vsprintf
$pdata$stbsp_vsnprintf DD imagerel $LN6
	DD	imagerel $LN6+303
	DD	imagerel $unwind$stbsp_vsnprintf
$pdata$stbsp_sprintf DD imagerel $LN3
	DD	imagerel $LN3+85
	DD	imagerel $unwind$stbsp_sprintf
$pdata$stbsp_snprintf DD imagerel $LN3
	DD	imagerel $LN3+79
	DD	imagerel $unwind$stbsp_snprintf
$pdata$stbsp_vsprintfcb DD imagerel $LN461
	DD	imagerel $LN461+14412
	DD	imagerel $unwind$stbsp_vsprintfcb
$pdata$stbsp__real_to_str DD imagerel stbsp__real_to_str
	DD	imagerel stbsp__real_to_str+1622
	DD	imagerel $unwind$stbsp__real_to_str
$pdata$stbsp__real_to_parts DD imagerel stbsp__real_to_parts
	DD	imagerel stbsp__real_to_parts+154
	DD	imagerel $unwind$stbsp__real_to_parts
$pdata$stbsp__strlen_limited DD imagerel stbsp__strlen_limited
	DD	imagerel stbsp__strlen_limited+239
	DD	imagerel $unwind$stbsp__strlen_limited
$pdata$stbsp__clamp_callback DD imagerel stbsp__clamp_callback
	DD	imagerel stbsp__clamp_callback+300
	DD	imagerel $unwind$stbsp__clamp_callback
$pdata$stbsp__count_clamp_callback DD imagerel stbsp__count_clamp_callback
	DD	imagerel stbsp__count_clamp_callback+59
	DD	imagerel $unwind$stbsp__count_clamp_callback
$pdata$stbsp__raise_to_power10 DD imagerel stbsp__raise_to_power10
	DD	imagerel stbsp__raise_to_power10+3868
	DD	imagerel $unwind$stbsp__raise_to_power10
$pdata$ccout DD	imagerel ccout
	DD	imagerel ccout+35
	DD	imagerel $unwind$ccout
$pdata$ccformatvex DD imagerel ccformatvex
	DD	imagerel ccformatvex+52
	DD	imagerel $unwind$ccformatvex
$pdata$ccformatv DD imagerel ccformatv
	DD	imagerel ccformatv+94
	DD	imagerel $unwind$ccformatv
$pdata$ccformatex DD imagerel ccformatex
	DD	imagerel ccformatex+79
	DD	imagerel $unwind$ccformatex
$pdata$ccformat DD imagerel ccformat
	DD	imagerel ccformat+73
	DD	imagerel $unwind$ccformat
$pdata$ccdlb_tblget DD imagerel ccdlb_tblget
	DD	imagerel ccdlb_tblget+204
	DD	imagerel $unwind$ccdlb_tblget
$pdata$ccdlb_tblput DD imagerel ccdlb_tblput
	DD	imagerel ccdlb_tblput+296
	DD	imagerel $unwind$ccdlb_tblput
$pdata$ccdlb_tblset DD imagerel ccdlb_tblset
	DD	imagerel ccdlb_tblset+275
	DD	imagerel $unwind$ccdlb_tblset
$pdata$ccdlb_arradd_ DD imagerel ccdlb_arradd_
	DD	imagerel ccdlb_arradd_+363
	DD	imagerel $unwind$ccdlb_arradd_
$pdata$ccdlb_arradd DD imagerel ccdlb_arradd
	DD	imagerel ccdlb_arradd+141
	DD	imagerel $unwind$ccdlb_arradd
$pdata$ccdlb_stradd DD imagerel ccdlb_stradd
	DD	imagerel ccdlb_stradd+137
	DD	imagerel $unwind$ccdlb_stradd
$pdata$cchsh_abc DD imagerel cchsh_abc
	DD	imagerel cchsh_abc+103
	DD	imagerel $unwind$cchsh_abc
$pdata$ccdlb_tblini DD imagerel ccdlb_tblini
	DD	imagerel ccdlb_tblini+306
	DD	imagerel $unwind$ccdlb_tblini
$pdata$ccdlb_tblcat DD imagerel ccdlb_tblcat
	DD	imagerel ccdlb_tblcat+358
	DD	imagerel $unwind$ccdlb_tblcat
$pdata$ccdlb_tblent_ DD imagerel ccdlb_tblent_
	DD	imagerel ccdlb_tblent_+331
	DD	imagerel $unwind$ccdlb_tblent_
$pdata$ccstr_vcatf DD imagerel ccstr_vcatf
	DD	imagerel ccstr_vcatf+123
	DD	imagerel $unwind$ccstr_vcatf
$pdata$ccstr_catf DD imagerel ccstr_catf
	DD	imagerel ccstr_catf+76
	DD	imagerel $unwind$ccstr_catf
$pdata$ccdlb_test DD imagerel ccdlb_test
	DD	imagerel ccdlb_test+2036
	DD	imagerel $unwind$ccdlb_test
$pdata$cctree_del DD imagerel cctree_del
	DD	imagerel cctree_del+44
	DD	imagerel $unwind$cctree_del
$pdata$cctree_new DD imagerel cctree_new
	DD	imagerel cctree_new+118
	DD	imagerel $unwind$cctree_new
$pdata$cctree_clone DD imagerel cctree_clone
	DD	imagerel cctree_clone+75
	DD	imagerel $unwind$cctree_clone
$pdata$cctree_name DD imagerel cctree_name
	DD	imagerel cctree_name+49
	DD	imagerel $unwind$cctree_name
$pdata$cctreee_pointer_modifier DD imagerel cctreee_pointer_modifier
	DD	imagerel cctreee_pointer_modifier+53
	DD	imagerel $unwind$cctreee_pointer_modifier
$pdata$cctreee_array_modifier DD imagerel cctreee_array_modifier
	DD	imagerel cctreee_array_modifier+72
	DD	imagerel $unwind$cctreee_array_modifier
$pdata$cctreee_function_modifier DD imagerel cctreee_function_modifier
	DD	imagerel cctreee_function_modifier+72
	DD	imagerel $unwind$cctreee_function_modifier
$pdata$cctreee_struct_specifier DD imagerel cctreee_struct_specifier
	DD	imagerel cctreee_struct_specifier+86
	DD	imagerel $unwind$cctreee_struct_specifier
$pdata$cctree_translation_unit DD imagerel cctree_translation_unit
	DD	imagerel cctree_translation_unit+34
	DD	imagerel $unwind$cctree_translation_unit
$pdata$cctree_group DD imagerel cctree_group
	DD	imagerel cctree_group+67
	DD	imagerel $unwind$cctree_group
$pdata$cctree_call DD imagerel cctree_call
	DD	imagerel cctree_call+100
	DD	imagerel $unwind$cctree_call
$pdata$cctree_index DD imagerel cctree_index
	DD	imagerel cctree_index+100
	DD	imagerel $unwind$cctree_index
$pdata$cctree_block DD imagerel cctree_block
	DD	imagerel cctree_block+67
	DD	imagerel $unwind$cctree_block
$pdata$cctree_while DD imagerel cctree_while
	DD	imagerel cctree_while+95
	DD	imagerel $unwind$cctree_while
$pdata$cctree_label DD imagerel cctree_label
	DD	imagerel cctree_label+91
	DD	imagerel $unwind$cctree_label
$pdata$cctree_goto DD imagerel cctree_goto
	DD	imagerel cctree_goto+72
	DD	imagerel $unwind$cctree_goto
$pdata$cctree_return DD imagerel cctree_return
	DD	imagerel cctree_return+67
	DD	imagerel $unwind$cctree_return
$pdata$cctree_decl_name DD imagerel cctree_decl_name
	DD	imagerel cctree_decl_name+119
	DD	imagerel $unwind$cctree_decl_name
$pdata$cctree_decl DD imagerel cctree_decl
	DD	imagerel cctree_decl+86
	DD	imagerel $unwind$cctree_decl
$pdata$cctree_litide DD imagerel cctree_litide
	DD	imagerel cctree_litide+67
	DD	imagerel $unwind$cctree_litide
$pdata$cctree_litint DD imagerel cctree_litint
	DD	imagerel cctree_litint+71
	DD	imagerel $unwind$cctree_litint
$pdata$cctree_litflo DD imagerel cctree_litflo
	DD	imagerel cctree_litflo+71
	DD	imagerel $unwind$cctree_litflo
$pdata$cctree_unary DD imagerel cctree_unary
	DD	imagerel cctree_unary+87
	DD	imagerel $unwind$cctree_unary
$pdata$cctree_binary DD imagerel cctree_binary
	DD	imagerel cctree_binary+101
	DD	imagerel $unwind$cctree_binary
$pdata$cctree_ternary DD imagerel cctree_ternary
	DD	imagerel cctree_ternary+100
	DD	imagerel $unwind$cctree_ternary
$pdata$cctree_solve_decl DD imagerel cctree_solve_decl
	DD	imagerel cctree_solve_decl+140
	DD	imagerel $unwind$cctree_solve_decl
$pdata$cctree_solve_statement DD imagerel cctree_solve_statement
	DD	imagerel cctree_solve_statement+428
	DD	imagerel $unwind$cctree_solve_statement
$pdata$cctree_include_invokable DD imagerel cctree_include_invokable
	DD	imagerel cctree_include_invokable+197
	DD	imagerel $unwind$cctree_include_invokable
$pdata$cctree_resolve_symbol DD imagerel cctree_resolve_symbol
	DD	imagerel cctree_resolve_symbol+271
	DD	imagerel $unwind$cctree_resolve_symbol
$pdata$cctree_mingle DD imagerel cctree_mingle
	DD	imagerel cctree_mingle+511
	DD	imagerel $unwind$cctree_mingle
$pdata$cctree_solve_binary DD imagerel cctree_solve_binary
	DD	imagerel cctree_solve_binary+62
	DD	imagerel $unwind$cctree_solve_binary
$pdata$cctree_solve_rvalue DD imagerel cctree_solve_rvalue
	DD	imagerel cctree_solve_rvalue+242
	DD	imagerel $unwind$cctree_solve_rvalue
$pdata$cctree_solve_lvalue DD imagerel cctree_solve_lvalue
	DD	imagerel cctree_solve_lvalue+160
	DD	imagerel $unwind$cctree_solve_lvalue
$pdata$cctree_solve_call DD imagerel cctree_solve_call
	DD	imagerel cctree_solve_call+260
	DD	imagerel $unwind$cctree_solve_call
$pdata$cctree_solve_index DD imagerel cctree_solve_index
	DD	imagerel cctree_solve_index+214
	DD	imagerel $unwind$cctree_solve_index
$pdata$cctree_solve_block DD imagerel cctree_solve_block
	DD	imagerel cctree_solve_block+140
	DD	imagerel $unwind$cctree_solve_block
$pdata$cctree_solve_decl_name DD imagerel cctree_solve_decl_name
	DD	imagerel cctree_solve_decl_name+946
	DD	imagerel $unwind$cctree_solve_decl_name
$pdata$cctree_solve_translation_unit DD imagerel cctree_solve_translation_unit
	DD	imagerel cctree_solve_translation_unit+151
	DD	imagerel $unwind$cctree_solve_translation_unit
$pdata$ccedict DD imagerel ccedict
	DD	imagerel ccedict+101
	DD	imagerel $unwind$ccedict
$pdata$ccedict_local DD imagerel ccedict_local
	DD	imagerel ccedict_local+64
	DD	imagerel $unwind$ccedict_local
$pdata$ccedict_param DD imagerel ccedict_param
	DD	imagerel ccedict_param+67
	DD	imagerel $unwind$ccedict_param
$pdata$ccedict_store DD imagerel ccedict_store
	DD	imagerel ccedict_store+74
	DD	imagerel $unwind$ccedict_store
$pdata$ccedict_fetch DD imagerel ccedict_fetch
	DD	imagerel ccedict_fetch+74
	DD	imagerel $unwind$ccedict_fetch
$pdata$ccedict_arith DD imagerel ccedict_arith
	DD	imagerel ccedict_arith+99
	DD	imagerel $unwind$ccedict_arith
$pdata$ccedict_enter DD imagerel ccedict_enter
	DD	imagerel ccedict_enter+58
	DD	imagerel $unwind$ccedict_enter
$pdata$ccedict_jump DD imagerel ccedict_jump
	DD	imagerel ccedict_jump+76
	DD	imagerel $unwind$ccedict_jump
$pdata$ccedict_fjump DD imagerel ccedict_fjump
	DD	imagerel ccedict_fjump+95
	DD	imagerel $unwind$ccedict_fjump
$pdata$ccedict_call DD imagerel ccedict_call
	DD	imagerel ccedict_call+83
	DD	imagerel $unwind$ccedict_call
$pdata$ccedict_return DD imagerel ccedict_return
	DD	imagerel ccedict_return+55
	DD	imagerel $unwind$ccedict_return
$pdata$ccedict_address DD imagerel ccedict_address
	DD	imagerel ccedict_address+74
	DD	imagerel $unwind$ccedict_address
$pdata$ccvalue DD imagerel ccvalue
	DD	imagerel ccvalue+86
	DD	imagerel $unwind$ccvalue
$pdata$cctype DD imagerel cctype
	DD	imagerel cctype+101
	DD	imagerel $unwind$cctype
$pdata$ccblock DD imagerel ccblock
	DD	imagerel ccblock+85
	DD	imagerel $unwind$ccblock
$pdata$ccprocd DD imagerel ccprocd
	DD	imagerel ccprocd+85
	DD	imagerel $unwind$ccprocd
$pdata$ccemit_global DD imagerel ccemit_global
	DD	imagerel ccemit_global+118
	DD	imagerel $unwind$ccemit_global
$pdata$ccemit_include_global DD imagerel ccemit_include_global
	DD	imagerel ccemit_include_global+138
	DD	imagerel $unwind$ccemit_include_global
$pdata$ccemit_global_procd DD imagerel ccemit_global_procd
	DD	imagerel ccemit_global_procd+376
	DD	imagerel $unwind$ccemit_global_procd
$pdata$ccvalue_retarget DD imagerel ccvalue_retarget
	DD	imagerel ccvalue_retarget+82
	DD	imagerel $unwind$ccvalue_retarget
$pdata$ccblock_label DD imagerel ccblock_label
	DD	imagerel ccblock_label+135
	DD	imagerel $unwind$ccblock_label
$pdata$ccblock_add DD imagerel ccblock_add
	DD	imagerel ccblock_add+139
	DD	imagerel $unwind$ccblock_add
$pdata$ccblock_add_edict DD imagerel ccblock_add_edict
	DD	imagerel ccblock_add_edict+64
	DD	imagerel $unwind$ccblock_add_edict
$pdata$ccprocd_local DD imagerel ccprocd_local
	DD	imagerel ccprocd_local+116
	DD	imagerel $unwind$ccprocd_local
$pdata$ccblock_store DD imagerel ccblock_store
	DD	imagerel ccblock_store+52
	DD	imagerel $unwind$ccblock_store
$pdata$ccblock_fetch DD imagerel ccblock_fetch
	DD	imagerel ccblock_fetch+52
	DD	imagerel $unwind$ccblock_fetch
$pdata$ccblock_address DD imagerel ccblock_address
	DD	imagerel ccblock_address+52
	DD	imagerel $unwind$ccblock_address
$pdata$ccblock_arith DD imagerel ccblock_arith
	DD	imagerel ccblock_arith+60
	DD	imagerel $unwind$ccblock_arith
$pdata$ccblock_enter DD imagerel ccblock_enter
	DD	imagerel ccblock_enter+42
	DD	imagerel $unwind$ccblock_enter
$pdata$ccblock_return DD imagerel ccblock_return
	DD	imagerel ccblock_return+42
	DD	imagerel $unwind$ccblock_return
$pdata$ccblock_invoke DD imagerel ccblock_invoke
	DD	imagerel ccblock_invoke+52
	DD	imagerel $unwind$ccblock_invoke
$pdata$ccblock_jump DD imagerel ccblock_jump
	DD	imagerel ccblock_jump+66
	DD	imagerel $unwind$ccblock_jump
$pdata$ccblock_fjump DD imagerel ccblock_fjump
	DD	imagerel ccblock_fjump+76
	DD	imagerel $unwind$ccblock_fjump
$pdata$ccexec_rvalue DD imagerel ccexec_rvalue
	DD	imagerel ccexec_rvalue+79
	DD	imagerel $unwind$ccexec_rvalue
$pdata$ccexec_lvalue DD imagerel ccexec_lvalue
	DD	imagerel ccexec_lvalue+79
	DD	imagerel $unwind$ccexec_lvalue
$pdata$cclex_hashfunc DD imagerel cclex_hashfunc
	DD	imagerel cclex_hashfunc+75
	DD	imagerel $unwind$cclex_hashfunc
$pdata$cclex_hash DD imagerel cclex_hash
	DD	imagerel cclex_hash+698
	DD	imagerel $unwind$cclex_hash
$pdata$cclex_hashonly DD imagerel cclex_hashonly
	DD	imagerel cclex_hashonly+150
	DD	imagerel $unwind$cclex_hashonly
$pdata$cclex_hash_init DD imagerel cclex_hash_init
	DD	imagerel cclex_hash_init+1498
	DD	imagerel $unwind$cclex_hash_init
$pdata$cclex_init DD imagerel cclex_init
	DD	imagerel cclex_init+173
	DD	imagerel $unwind$cclex_init
$pdata$cclex_idenlen DD imagerel cclex_idenlen
	DD	imagerel cclex_idenlen+165
	DD	imagerel $unwind$cclex_idenlen
$pdata$cclex_token DD imagerel cclex_token
	DD	imagerel cclex_token+83
	DD	imagerel $unwind$cclex_token
$pdata$cclex_next_token_internal DD imagerel cclex_next_token_internal
	DD	imagerel cclex_next_token_internal+4588
	DD	imagerel $unwind$cclex_next_token_internal
$pdata$cclex_next_token DD imagerel cclex_next_token
	DD	imagerel cclex_next_token+101
	DD	imagerel $unwind$cclex_next_token
$pdata$cclex_identifier DD imagerel cclex_identifier
	DD	imagerel cclex_identifier+118
	DD	imagerel $unwind$cclex_identifier
$pdata$cclex_readstr DD imagerel cclex_readstr
	DD	imagerel cclex_readstr+867
	DD	imagerel $unwind$cclex_readstr
$pdata$ccread_init DD imagerel ccread_init
	DD	imagerel ccread_init+45
	DD	imagerel $unwind$ccread_init
$pdata$ccread_uninit DD imagerel ccread_uninit
	DD	imagerel ccread_uninit+98
	DD	imagerel $unwind$ccread_uninit
$pdata$ccread_all_tokens DD imagerel ccread_all_tokens
	DD	imagerel ccread_all_tokens+105
	DD	imagerel $unwind$ccread_all_tokens
$pdata$ccreader_move DD imagerel ccreader_move
	DD	imagerel ccreader_move+171
	DD	imagerel $unwind$ccreader_move
$pdata$ccread_include DD imagerel ccread_include
	DD	imagerel ccread_include+95
	DD	imagerel $unwind$ccread_include
$pdata$ccpeep DD imagerel ccpeep
	DD	imagerel ccpeep+26
	DD	imagerel $unwind$ccpeep
$pdata$ccsee DD	imagerel ccsee
	DD	imagerel ccsee+58
	DD	imagerel $unwind$ccsee
$pdata$ccsee_end DD imagerel ccsee_end
	DD	imagerel ccsee_end+26
	DD	imagerel $unwind$ccsee_end
$pdata$ccgobble DD imagerel ccgobble
	DD	imagerel ccgobble+105
	DD	imagerel $unwind$ccgobble
$pdata$cceat DD	imagerel cceat
	DD	imagerel cceat+50
	DD	imagerel $unwind$cceat
$pdata$kttc__peek_alignment_specifier DD imagerel kttc__peek_alignment_specifier
	DD	imagerel kttc__peek_alignment_specifier+58
	DD	imagerel $unwind$kttc__peek_alignment_specifier
$pdata$kttc__peek_type_qualifier DD imagerel kttc__peek_type_qualifier
	DD	imagerel kttc__peek_type_qualifier+58
	DD	imagerel $unwind$kttc__peek_type_qualifier
$pdata$ccsee_typespec DD imagerel ccsee_typespec
	DD	imagerel ccsee_typespec+58
	DD	imagerel $unwind$ccsee_typespec
$pdata$kttc__peek_storage_class DD imagerel kttc__peek_storage_class
	DD	imagerel kttc__peek_storage_class+58
	DD	imagerel $unwind$kttc__peek_storage_class
$pdata$kttc__peek_func_specifier DD imagerel kttc__peek_func_specifier
	DD	imagerel kttc__peek_func_specifier+58
	DD	imagerel $unwind$kttc__peek_func_specifier
$pdata$ccread_arglist_expr DD imagerel ccread_arglist_expr
	DD	imagerel ccread_arglist_expr+170
	DD	imagerel $unwind$ccread_arglist_expr
$pdata$ccread_expression DD imagerel ccread_expression
	DD	imagerel ccread_expression+145
	DD	imagerel $unwind$ccread_expression
$pdata$ccread_cast_expr DD imagerel ccread_cast_expr
	DD	imagerel ccread_cast_expr+178
	DD	imagerel $unwind$ccread_cast_expr
$pdata$ccread_litide DD imagerel ccread_litide
	DD	imagerel ccread_litide+94
	DD	imagerel $unwind$ccread_litide
$pdata$ccread_primary DD imagerel ccread_primary
	DD	imagerel ccread_primary+334
	DD	imagerel $unwind$ccread_primary
$pdata$ccread_postfix DD imagerel ccread_postfix
	DD	imagerel ccread_postfix+620
	DD	imagerel $unwind$ccread_postfix
$pdata$ccread_unary_expr DD imagerel ccread_unary_expr
	DD	imagerel ccread_unary_expr+801
	DD	imagerel $unwind$ccread_unary_expr
$pdata$ccread_multiplicative_expr DD imagerel ccread_multiplicative_expr
	DD	imagerel ccread_multiplicative_expr+195
	DD	imagerel $unwind$ccread_multiplicative_expr
$pdata$ccread_additive_expr DD imagerel ccread_additive_expr
	DD	imagerel ccread_additive_expr+173
	DD	imagerel $unwind$ccread_additive_expr
$pdata$ccread_shift_expr DD imagerel ccread_shift_expr
	DD	imagerel ccread_shift_expr+173
	DD	imagerel $unwind$ccread_shift_expr
$pdata$ccread_relational_expr DD imagerel ccread_relational_expr
	DD	imagerel ccread_relational_expr+214
	DD	imagerel $unwind$ccread_relational_expr
$pdata$ccread_equality_expr DD imagerel ccread_equality_expr
	DD	imagerel ccread_equality_expr+171
	DD	imagerel $unwind$ccread_equality_expr
$pdata$ccread_bitwise_and_expr DD imagerel ccread_bitwise_and_expr
	DD	imagerel ccread_bitwise_and_expr+154
	DD	imagerel $unwind$ccread_bitwise_and_expr
$pdata$ccread_bitwise_xor_expr DD imagerel ccread_bitwise_xor_expr
	DD	imagerel ccread_bitwise_xor_expr+154
	DD	imagerel $unwind$ccread_bitwise_xor_expr
$pdata$ccread_bitwise_or_expr DD imagerel ccread_bitwise_or_expr
	DD	imagerel ccread_bitwise_or_expr+154
	DD	imagerel $unwind$ccread_bitwise_or_expr
$pdata$ccread_logical_and_expr DD imagerel ccread_logical_and_expr
	DD	imagerel ccread_logical_and_expr+154
	DD	imagerel $unwind$ccread_logical_and_expr
$pdata$ccread_logical_or_expr DD imagerel ccread_logical_or_expr
	DD	imagerel ccread_logical_or_expr+154
	DD	imagerel $unwind$ccread_logical_or_expr
$pdata$ccread_conditional_expr DD imagerel ccread_conditional_expr
	DD	imagerel ccread_conditional_expr+260
	DD	imagerel $unwind$ccread_conditional_expr
$pdata$ccread_assignment_expr DD imagerel ccread_assignment_expr
	DD	imagerel ccread_assignment_expr+146
	DD	imagerel $unwind$ccread_assignment_expr
$pdata$ccread_constant_expression DD imagerel ccread_constant_expression
	DD	imagerel ccread_constant_expression+44
	DD	imagerel $unwind$ccread_constant_expression
$pdata$ccread_param_type_list DD imagerel ccread_param_type_list
	DD	imagerel ccread_param_type_list+54
	DD	imagerel $unwind$ccread_param_type_list
$pdata$ccread_initializer DD imagerel ccread_initializer
	DD	imagerel ccread_initializer+44
	DD	imagerel $unwind$ccread_initializer
$pdata$ccread_decl_name DD imagerel ccread_decl_name
	DD	imagerel ccread_decl_name+96
	DD	imagerel $unwind$ccread_decl_name
$pdata$ccread_declaration_specifiers DD imagerel ccread_declaration_specifiers
	DD	imagerel ccread_declaration_specifiers+94
	DD	imagerel $unwind$ccread_declaration_specifiers
$pdata$ccread_specifier_qualifier_list DD imagerel ccread_specifier_qualifier_list
	DD	imagerel ccread_specifier_qualifier_list+94
	DD	imagerel $unwind$ccread_specifier_qualifier_list
$pdata$ccread_direct_decl_name_modifier DD imagerel ccread_direct_decl_name_modifier
	DD	imagerel ccread_direct_decl_name_modifier+514
	DD	imagerel $unwind$ccread_direct_decl_name_modifier
$pdata$ccread_direct_decl_name DD imagerel ccread_direct_decl_name
	DD	imagerel ccread_direct_decl_name+522
	DD	imagerel $unwind$ccread_direct_decl_name
$pdata$ccread_decl_name_modifier_maybe DD imagerel ccread_decl_name_modifier_maybe
	DD	imagerel ccread_decl_name_modifier_maybe+89
	DD	imagerel $unwind$ccread_decl_name_modifier_maybe
$pdata$ccread_init_decl_name DD imagerel ccread_init_decl_name
	DD	imagerel ccread_init_decl_name+198
	DD	imagerel $unwind$ccread_init_decl_name
$pdata$ccread_struct_decl_name DD imagerel ccread_struct_decl_name
	DD	imagerel ccread_struct_decl_name+198
	DD	imagerel $unwind$ccread_struct_decl_name
$pdata$ccread_init_decl_name_list DD imagerel ccread_init_decl_name_list
	DD	imagerel ccread_init_decl_name_list+155
	DD	imagerel $unwind$ccread_init_decl_name_list
$pdata$ccread_struct_decl_name_list DD imagerel ccread_struct_decl_name_list
	DD	imagerel ccread_struct_decl_name_list+152
	DD	imagerel $unwind$ccread_struct_decl_name_list
$pdata$ccread_init_decl DD imagerel ccread_init_decl
	DD	imagerel ccread_init_decl+205
	DD	imagerel $unwind$ccread_init_decl
$pdata$ccread_struct_decl DD imagerel ccread_struct_decl
	DD	imagerel ccread_struct_decl+181
	DD	imagerel $unwind$ccread_struct_decl
$pdata$ccread_struct_or_union_specifier DD imagerel ccread_struct_or_union_specifier
	DD	imagerel ccread_struct_or_union_specifier+456
	DD	imagerel $unwind$ccread_struct_or_union_specifier
$pdata$ccread_type_specifier DD imagerel ccread_type_specifier
	DD	imagerel ccread_type_specifier+480
	DD	imagerel $unwind$ccread_type_specifier
$pdata$ccread_storage_class_specifier DD imagerel ccread_storage_class_specifier
	DD	imagerel ccread_storage_class_specifier+63
	DD	imagerel $unwind$ccread_storage_class_specifier
$pdata$ccread_type_qualifier DD imagerel ccread_type_qualifier
	DD	imagerel ccread_type_qualifier+63
	DD	imagerel $unwind$ccread_type_qualifier
$pdata$ccread_function_specifier DD imagerel ccread_function_specifier
	DD	imagerel ccread_function_specifier+63
	DD	imagerel $unwind$ccread_function_specifier
$pdata$ccread_alignment_specifier DD imagerel ccread_alignment_specifier
	DD	imagerel ccread_alignment_specifier+63
	DD	imagerel $unwind$ccread_alignment_specifier
$pdata$ccread_param_decl DD imagerel ccread_param_decl
	DD	imagerel ccread_param_decl+185
	DD	imagerel $unwind$ccread_param_decl
$pdata$ccread_param_decl_list DD imagerel ccread_param_decl_list
	DD	imagerel ccread_param_decl_list+138
	DD	imagerel $unwind$ccread_param_decl_list
$pdata$ccread_block DD imagerel ccread_block
	DD	imagerel ccread_block+185
	DD	imagerel $unwind$ccread_block
$pdata$ccread_statement_list DD imagerel ccread_statement_list
	DD	imagerel ccread_statement_list+132
	DD	imagerel $unwind$ccread_statement_list
$pdata$ccread_statement DD imagerel ccread_statement
	DD	imagerel ccread_statement+2296
	DD	imagerel $unwind$ccread_statement
$pdata$ccread_block_or_single_stmt DD imagerel ccread_block_or_single_stmt
	DD	imagerel ccread_block_or_single_stmt+87
	DD	imagerel $unwind$ccread_block_or_single_stmt
$pdata$ccread_external_declaration DD imagerel ccread_external_declaration
	DD	imagerel ccread_external_declaration+516
	DD	imagerel $unwind$ccread_external_declaration
$pdata$ccread_translation_unit DD imagerel ccread_translation_unit
	DD	imagerel ccread_translation_unit+116
	DD	imagerel $unwind$ccread_translation_unit
$pdata$ccemit_lvalue DD imagerel ccemit_lvalue
	DD	imagerel ccemit_lvalue+237
	DD	imagerel $unwind$ccemit_lvalue
$pdata$ccemit_rvalue DD imagerel ccemit_rvalue
	DD	imagerel ccemit_rvalue+455
	DD	imagerel $unwind$ccemit_rvalue
$pdata$cctree_to_type DD imagerel cctree_to_type
	DD	imagerel cctree_to_type+207
	DD	imagerel $unwind$cctree_to_type
$pdata$ccemit_include_local DD imagerel ccemit_include_local
	DD	imagerel ccemit_include_local+290
	DD	imagerel $unwind$ccemit_include_local
$pdata$ccemit_constant DD imagerel ccemit_constant
	DD	imagerel ccemit_constant+121
	DD	imagerel $unwind$ccemit_constant
$pdata$ccemit_const_i32 DD imagerel ccemit_const_i32
	DD	imagerel ccemit_const_i32+46
	DD	imagerel $unwind$ccemit_const_i32
$pdata$ccemit_resolve DD imagerel ccemit_resolve
	DD	imagerel ccemit_resolve+112
	DD	imagerel $unwind$ccemit_resolve
$pdata$ccemit_invoke_easy DD imagerel ccemit_invoke_easy
	DD	imagerel ccemit_invoke_easy+344
	DD	imagerel $unwind$ccemit_invoke_easy
$pdata$ccemit_tree DD imagerel ccemit_tree
	DD	imagerel ccemit_tree+1362
	DD	imagerel $unwind$ccemit_tree
$pdata$ccemit_treelist DD imagerel ccemit_treelist
	DD	imagerel ccemit_treelist+154
	DD	imagerel $unwind$ccemit_treelist
$pdata$ccemit_decl_name DD imagerel ccemit_decl_name
	DD	imagerel ccemit_decl_name+138
	DD	imagerel $unwind$ccemit_decl_name
$pdata$ccemit_decl DD imagerel ccemit_decl
	DD	imagerel ccemit_decl+170
	DD	imagerel $unwind$ccemit_decl
$pdata$ccemit_param DD imagerel ccemit_param
	DD	imagerel ccemit_param+72
	DD	imagerel $unwind$ccemit_param
$pdata$ccemit_function DD imagerel ccemit_function
	DD	imagerel ccemit_function+482
	DD	imagerel $unwind$ccemit_function
$pdata$ccemit_external_decl DD imagerel ccemit_external_decl
	DD	imagerel ccemit_external_decl+269
	DD	imagerel $unwind$ccemit_external_decl
$pdata$ccemit_translation_unit DD imagerel ccemit_translation_unit
	DD	imagerel ccemit_translation_unit+160
	DD	imagerel $unwind$ccemit_translation_unit
$pdata$ccemit_init DD imagerel ccemit_init
	DD	imagerel ccemit_init+32
	DD	imagerel $unwind$ccemit_init
$pdata$ccexec_sizeof DD imagerel ccexec_sizeof
	DD	imagerel ccexec_sizeof+266
	DD	imagerel $unwind$ccexec_sizeof
$pdata$ccstack_mingle DD imagerel ccstack_mingle
	DD	imagerel ccstack_mingle+86
	DD	imagerel $unwind$ccstack_mingle
$pdata$ccstack_yield DD imagerel ccstack_yield
	DD	imagerel ccstack_yield+223
	DD	imagerel $unwind$ccstack_yield
$pdata$ccstack_yield_rvalue DD imagerel ccstack_yield_rvalue
	DD	imagerel ccstack_yield_rvalue+306
	DD	imagerel $unwind$ccstack_yield_rvalue
$pdata$ccstack_yield_lvalue DD imagerel ccstack_yield_lvalue
	DD	imagerel ccstack_yield_lvalue+205
	DD	imagerel $unwind$ccstack_yield_lvalue
$pdata$ccstack_local_alloc DD imagerel ccstack_local_alloc
	DD	imagerel ccstack_local_alloc+276
	DD	imagerel $unwind$ccstack_local_alloc
$pdata$ccexec_edict_arith DD imagerel ccexec_edict_arith
	DD	imagerel ccexec_edict_arith+1195
	DD	imagerel $unwind$ccexec_edict_arith
$pdata$ccexec_invoke DD imagerel ccexec_invoke
	DD	imagerel ccexec_invoke+800
	DD	imagerel $unwind$ccexec_invoke
$pdata$ccexec_edict DD imagerel ccexec_edict
	DD	imagerel ccexec_edict+3032
	DD	imagerel $unwind$ccexec_edict
$pdata$ccexec_init DD imagerel ccexec_init
	DD	imagerel ccexec_init+37
	DD	imagerel $unwind$ccexec_init
$pdata$fib DD	imagerel $LN4
	DD	imagerel $LN4+73
	DD	imagerel $unwind$fib
$pdata$ccexec_translation_unit DD imagerel ccexec_translation_unit
	DD	imagerel ccexec_translation_unit+355
	DD	imagerel $unwind$ccexec_translation_unit
$pdata$gen_type DD imagerel $LN3
	DD	imagerel $LN3+78
	DD	imagerel $unwind$gen_type
$pdata$gen_vectype DD imagerel $LN3
	DD	imagerel $LN3+64
	DD	imagerel $unwind$gen_vectype
$pdata$gen_ptrtype DD imagerel $LN3
	DD	imagerel $LN3+48
	DD	imagerel $unwind$gen_ptrtype
$pdata$gen_vartype DD imagerel $LN3
	DD	imagerel $LN3+78
	DD	imagerel $unwind$gen_vartype
$pdata$gen_fixtype DD imagerel $LN3
	DD	imagerel $LN3+61
	DD	imagerel $unwind$gen_fixtype
$pdata$gen_typename_ex DD imagerel $LN9
	DD	imagerel $LN9+277
	DD	imagerel $unwind$gen_typename_ex
$pdata$gen_typename DD imagerel $LN3
	DD	imagerel $LN3+44
	DD	imagerel $unwind$gen_typename
$pdata$emit_typename DD imagerel $LN3
	DD	imagerel $LN3+49
	DD	imagerel $unwind$emit_typename
$pdata$emit_modifier DD imagerel $LN6
	DD	imagerel $LN6+90
	DD	imagerel $unwind$emit_modifier
$pdata$emit_vardecl_ex DD imagerel $LN19
	DD	imagerel $LN19+213
	DD	imagerel $unwind$emit_vardecl_ex
$pdata$emit_vardecl DD imagerel $LN3
	DD	imagerel $LN3+48
	DD	imagerel $unwind$emit_vardecl
$pdata$emit_fundecl DD imagerel $LN9
	DD	imagerel $LN9+232
	DD	imagerel $unwind$emit_fundecl
$pdata$genmake DD imagerel $LN6
	DD	imagerel $LN6+276
	DD	imagerel $unwind$genmake
$pdata$emit_vecoprari DD imagerel $LN8
	DD	imagerel $LN8+412
	DD	imagerel $unwind$emit_vecoprari
$pdata$emit_vectype DD imagerel $LN7
	DD	imagerel $LN7+462
	DD	imagerel $unwind$emit_vectype
$pdata$emit_type DD imagerel $LN7
	DD	imagerel $LN7+182
	DD	imagerel $unwind$emit_type
$pdata$main DD	imagerel $LN8
	DD	imagerel $LN8+547
	DD	imagerel $unwind$main
pdata	ENDS
;	COMDAT __xmm@80000000000000008000000000000000
CONST	SEGMENT
__xmm@80000000000000008000000000000000 DB 00H, 00H, 00H, 00H, 00H, 00H, 00H
	DB	080H, 00H, 00H, 00H, 00H, 00H, 00H, 00H, 080H
CONST	ENDS
;	COMDAT __real@4090000000000000
CONST	SEGMENT
__real@4090000000000000 DQ 04090000000000000r	; 1024
CONST	ENDS
;	COMDAT __real@408f400000000000
CONST	SEGMENT
__real@408f400000000000 DQ 0408f400000000000r	; 1000
CONST	ENDS
;	COMDAT __real@3ff0000000000000
CONST	SEGMENT
__real@3ff0000000000000 DQ 03ff0000000000000r	; 1
CONST	ENDS
;	COMDAT ?ts@?2??main@@9@4QBUkttcc_type@@B
CONST	SEGMENT
?ts@?2??main@@9@4QBUkttcc_type@@B DD 02H		; `main'::`3'::ts
	DD	03H
	DD	040H
	DD	020H
	ORG $+16
	DD	02H
	DD	00H
	DD	040H
	DD	08H
	ORG $+16
	DD	02H
	DD	01H
	DD	040H
	DD	08H
	ORG $+16
	DD	02H
	DD	02H
	DD	08H
	DD	08H
	ORG $+16
CONST	ENDS
;	COMDAT ?hexu@?1??stbsp_vsprintfcb@@9@4PADA
_DATA	SEGMENT
?hexu@?1??stbsp_vsprintfcb@@9@4PADA DB '0123456789ABCDEFXP', 00H ; `stbsp_vsprintfcb'::`2'::hexu
_DATA	ENDS
;	COMDAT ?hex@?1??stbsp_vsprintfcb@@9@4PADA
_DATA	SEGMENT
?hex@?1??stbsp_vsprintfcb@@9@4PADA DB '0123456789abcdefxp', 00H ; `stbsp_vsprintfcb'::`2'::hex
_DATA	ENDS
_DATA	SEGMENT
stbsp__period DB 02eH
stbsp__comma DB	02cH
	ORG $+14
stbsp__digitpair DW 00H
	DB	'00010203040506070809101112131415161718192021222324252627'
	DB	'2829303132333435363738394041424344454647484950515253545556575'
	DB	'8596061626364656667686970717273747576777879808182838485868788'
	DB	'8990919293949596979899', 00H
	ORG $+1
	ORG $+4
cctree_s DQ	FLAT:$SG46946
	DQ	FLAT:$SG46947
	DQ	FLAT:$SG46948
	DQ	FLAT:$SG46949
	DQ	FLAT:$SG46950
	DQ	FLAT:$SG46951
	DQ	FLAT:$SG46952
	DQ	FLAT:$SG46953
	DQ	FLAT:$SG46954
	DQ	FLAT:$SG46955
	DQ	FLAT:$SG46956
	DQ	FLAT:$SG46957
	DQ	FLAT:$SG46958
	DQ	FLAT:$SG46959
	DQ	FLAT:$SG46960
	DQ	FLAT:$SG46961
	DQ	FLAT:$SG46962
	DQ	FLAT:$SG46963
	DQ	FLAT:$SG46964
	DQ	FLAT:$SG46965
	DQ	FLAT:$SG46966
	DQ	FLAT:$SG46967
	DQ	FLAT:$SG46968
	DQ	FLAT:$SG46969
	DQ	FLAT:$SG46970
	DQ	FLAT:$SG46971
_DATA	ENDS
voltbl	SEGMENT
_volmd	DD	0ffffffffH
	DDSymXIndex: 	FLAT:stbsp_vsnprintf
	DD	024H
	DD	0117H
_volmd	DD	0ffffffffH
	DDSymXIndex: 	FLAT:stbsp_vsprintfcb
	DD	025H
	DD	02f34H
	DD	02f36H
	DD	036f8H
voltbl	ENDS
xdata	SEGMENT
$unwind$cctrace_ DD 011701H
	DD	0a217H
$unwind$ccmalloc_ DD 011801H
	DD	06218H
$unwind$ccrealloc_ DD 011801H
	DD	08218H
$unwind$ccfree_ DD 011801H
	DD	04218H
$unwind$ccrealfile DD 010901H
	DD	02209H
$unwind$ccclosefile DD 010901H
	DD	04209H
$unwind$ccopenfile DD 010901H
	DD	0a209H
$unwind$ccpullfile DD 011201H
	DD	0a212H
$unwind$ccpushfile DD 011701H
	DD	08217H
$unwind$ccfilesize DD 010901H
	DD	04209H
$unwind$ccclocktick DD 010401H
	DD	06204H
$unwind$ccclocksecs DD 010901H
	DD	06209H
$unwind$stbsp_vsprintf DD 011301H
	DD	06213H
$unwind$stbsp_vsnprintf DD 022c19H
	DD	04d011aH
	DD	imagerel __GSHandlerCheck
	DD	0250H
$unwind$stbsp_sprintf DD 011801H
	DD	08218H
$unwind$stbsp_snprintf DD 011701H
	DD	06217H
$unwind$stbsp_vsprintfcb DD 022d19H
	DD	097011bH
	DD	imagerel __GSHandlerCheck
	DD	04a0H
$unwind$stbsp__real_to_str DD 021b01H
	DD	017011bH
$unwind$stbsp__real_to_parts DD 011401H
	DD	04214H
$unwind$stbsp__strlen_limited DD 010d01H
	DD	0220dH
$unwind$stbsp__clamp_callback DD 011301H
	DD	06213H
$unwind$stbsp__count_clamp_callback DD 011301H
	DD	02213H
$unwind$stbsp__raise_to_power10 DD 021c01H
	DD	035011cH
$unwind$ccout DD 010901H
	DD	04209H
$unwind$ccformatvex DD 011701H
	DD	04217H
$unwind$ccformatv DD 010e01H
	DD	0420eH
$unwind$ccformatex DD 011701H
	DD	06217H
$unwind$ccformat DD 011801H
	DD	06218H
$unwind$ccdlb_tblget DD 011701H
	DD	08217H
$unwind$ccdlb_tblput DD 011701H
	DD	0a217H
$unwind$ccdlb_tblset DD 011701H
	DD	0a217H
$unwind$ccdlb_arradd_ DD 011201H
	DD	0a212H
$unwind$ccdlb_arradd DD 011701H
	DD	08217H
$unwind$ccdlb_stradd DD 011701H
	DD	06217H
$unwind$cchsh_abc DD 010d01H
	DD	0220dH
$unwind$ccdlb_tblini DD 010d01H
	DD	0820dH
$unwind$ccdlb_tblcat DD 011701H
	DD	06217H
$unwind$ccdlb_tblent_ DD 011201H
	DD	08212H
$unwind$ccstr_vcatf DD 011301H
	DD	06213H
$unwind$ccstr_catf DD 011801H
	DD	06218H
$unwind$ccdlb_test DD 020701H
	DD	01b0107H
$unwind$cctree_del DD 010901H
	DD	04209H
$unwind$cctree_new DD 011201H
	DD	06212H
$unwind$cctree_clone DD 030b01H
	DD	07007620bH
	DD	06006H
$unwind$cctree_name DD 010901H
	DD	02209H
$unwind$cctreee_pointer_modifier DD 010901H
	DD	06209H
$unwind$cctreee_array_modifier DD 010e01H
	DD	0620eH
$unwind$cctreee_function_modifier DD 010e01H
	DD	0620eH
$unwind$cctreee_struct_specifier DD 010e01H
	DD	0620eH
$unwind$cctree_translation_unit DD 010401H
	DD	06204H
$unwind$cctree_group DD 011201H
	DD	06212H
$unwind$cctree_call DD 011701H
	DD	06217H
$unwind$cctree_index DD 011701H
	DD	06217H
$unwind$cctree_block DD 011201H
	DD	06212H
$unwind$cctree_while DD 011701H
	DD	06217H
$unwind$cctree_label DD 011701H
	DD	06217H
$unwind$cctree_goto DD 011201H
	DD	06212H
$unwind$cctree_return DD 011201H
	DD	06212H
$unwind$cctree_decl_name DD 011701H
	DD	06217H
$unwind$cctree_decl DD 011701H
	DD	06217H
$unwind$cctree_litide DD 011201H
	DD	06212H
$unwind$cctree_litint DD 011201H
	DD	06212H
$unwind$cctree_litflo DD 011201H
	DD	06212H
$unwind$cctree_unary DD 011701H
	DD	06217H
$unwind$cctree_binary DD 011701H
	DD	06217H
$unwind$cctree_ternary DD 011701H
	DD	06217H
$unwind$cctree_solve_decl DD 010901H
	DD	06209H
$unwind$cctree_solve_statement DD 010901H
	DD	06209H
$unwind$cctree_include_invokable DD 010e01H
	DD	0620eH
$unwind$cctree_resolve_symbol DD 010901H
	DD	0c209H
$unwind$cctree_mingle DD 010e01H
	DD	0c20eH
$unwind$cctree_solve_binary DD 011201H
	DD	04212H
$unwind$cctree_solve_rvalue DD 010901H
	DD	0a209H
$unwind$cctree_solve_lvalue DD 010901H
	DD	0a209H
$unwind$cctree_solve_call DD 010901H
	DD	0a209H
$unwind$cctree_solve_index DD 010901H
	DD	0a209H
$unwind$cctree_solve_block DD 010901H
	DD	06209H
$unwind$cctree_solve_decl_name DD 010901H
	DD	0e209H
$unwind$cctree_solve_translation_unit DD 010901H
	DD	06209H
$unwind$ccedict DD 010d01H
	DD	0620dH
$unwind$ccedict_local DD 010e01H
	DD	0620eH
$unwind$ccedict_param DD 010e01H
	DD	0620eH
$unwind$ccedict_store DD 010e01H
	DD	0620eH
$unwind$ccedict_fetch DD 010e01H
	DD	0620eH
$unwind$ccedict_arith DD 011201H
	DD	06212H
$unwind$ccedict_enter DD 010901H
	DD	06209H
$unwind$ccedict_jump DD 010901H
	DD	06209H
$unwind$ccedict_fjump DD 010e01H
	DD	0620eH
$unwind$ccedict_call DD 010e01H
	DD	0620eH
$unwind$ccedict_return DD 010901H
	DD	06209H
$unwind$ccedict_address DD 010e01H
	DD	0620eH
$unwind$ccvalue DD 010901H
	DD	06209H
$unwind$cctype DD 010d01H
	DD	0620dH
$unwind$ccblock DD 010901H
	DD	06209H
$unwind$ccprocd DD 010901H
	DD	06209H
$unwind$ccemit_global DD 010e01H
	DD	0620eH
$unwind$ccemit_include_global DD 011301H
	DD	06213H
$unwind$ccemit_global_procd DD 011301H
	DD	0a213H
$unwind$ccvalue_retarget DD 031001H
	DD	0700c8210H
	DD	0600bH
$unwind$ccblock_label DD 031501H
	DD	070114215H
	DD	06010H
$unwind$ccblock_add DD 010901H
	DD	06209H
$unwind$ccblock_add_edict DD 010e01H
	DD	0620eH
$unwind$ccprocd_local DD 010e01H
	DD	0620eH
$unwind$ccblock_store DD 011301H
	DD	04213H
$unwind$ccblock_fetch DD 011301H
	DD	04213H
$unwind$ccblock_address DD 011301H
	DD	04213H
$unwind$ccblock_arith DD 011701H
	DD	04217H
$unwind$ccblock_enter DD 010e01H
	DD	0420eH
$unwind$ccblock_return DD 010e01H
	DD	0420eH
$unwind$ccblock_invoke DD 011301H
	DD	04213H
$unwind$ccblock_jump DD 031001H
	DD	0700c8210H
	DD	0600bH
$unwind$ccblock_fjump DD 031501H
	DD	070118215H
	DD	06010H
$unwind$ccexec_rvalue DD 031501H
	DD	070114215H
	DD	06010H
$unwind$ccexec_lvalue DD 031501H
	DD	070114215H
	DD	06010H
$unwind$cclex_hashfunc DD 010d01H
	DD	0220dH
$unwind$cclex_hash DD 011701H
	DD	0e217H
$unwind$cclex_hashonly DD 011701H
	DD	08217H
$unwind$cclex_hash_init DD 010901H
	DD	04209H
$unwind$cclex_init DD 030b01H
	DD	07007620bH
	DD	06006H
$unwind$cclex_idenlen DD 010901H
	DD	02209H
$unwind$cclex_token DD 031001H
	DD	0700c2210H
	DD	0600bH
$unwind$cclex_next_token_internal DD 010901H
	DD	0a209H
$unwind$cclex_next_token DD 010901H
	DD	06209H
$unwind$cclex_identifier DD 010e01H
	DD	0820eH
$unwind$cclex_readstr DD 010e01H
	DD	0820eH
$unwind$ccread_init DD 010901H
	DD	04209H
$unwind$ccread_uninit DD 010901H
	DD	06209H
$unwind$ccread_all_tokens DD 010901H
	DD	06209H
$unwind$ccreader_move DD 011301H
	DD	06213H
$unwind$ccread_include DD 010e01H
	DD	0820eH
$unwind$ccpeep DD 010901H
	DD	04209H
$unwind$ccsee DD 010d01H
	DD	0620dH
$unwind$ccsee_end DD 010901H
	DD	04209H
$unwind$ccgobble DD 010901H
	DD	06209H
$unwind$cceat DD 010d01H
	DD	0420dH
$unwind$kttc__peek_alignment_specifier DD 010901H
	DD	06209H
$unwind$kttc__peek_type_qualifier DD 010901H
	DD	06209H
$unwind$ccsee_typespec DD 010901H
	DD	06209H
$unwind$kttc__peek_storage_class DD 010901H
	DD	06209H
$unwind$kttc__peek_func_specifier DD 010901H
	DD	06209H
$unwind$ccread_arglist_expr DD 031501H
	DD	070116215H
	DD	06010H
$unwind$ccread_expression DD 011301H
	DD	08213H
$unwind$ccread_cast_expr DD 011301H
	DD	08213H
$unwind$ccread_litide DD 011301H
	DD	06213H
$unwind$ccread_primary DD 011301H
	DD	0a213H
$unwind$ccread_postfix DD 011301H
	DD	0c213H
$unwind$ccread_unary_expr DD 041801H
	DD	0110118H
	DD	060107011H
$unwind$ccread_multiplicative_expr DD 011301H
	DD	0a213H
$unwind$ccread_additive_expr DD 011301H
	DD	0a213H
$unwind$ccread_shift_expr DD 011301H
	DD	0a213H
$unwind$ccread_relational_expr DD 011301H
	DD	0a213H
$unwind$ccread_equality_expr DD 011301H
	DD	0a213H
$unwind$ccread_bitwise_and_expr DD 011301H
	DD	0a213H
$unwind$ccread_bitwise_xor_expr DD 011301H
	DD	0a213H
$unwind$ccread_bitwise_or_expr DD 011301H
	DD	0a213H
$unwind$ccread_logical_and_expr DD 011301H
	DD	0a213H
$unwind$ccread_logical_or_expr DD 011301H
	DD	0a213H
$unwind$ccread_conditional_expr DD 011301H
	DD	0a213H
$unwind$ccread_assignment_expr DD 011301H
	DD	0a213H
$unwind$ccread_constant_expression DD 011301H
	DD	04213H
$unwind$ccread_param_type_list DD 011301H
	DD	06213H
$unwind$ccread_initializer DD 011301H
	DD	04213H
$unwind$ccread_decl_name DD 011801H
	DD	06218H
$unwind$ccread_declaration_specifiers DD 011301H
	DD	06213H
$unwind$ccread_specifier_qualifier_list DD 011301H
	DD	06213H
$unwind$ccread_direct_decl_name_modifier DD 011801H
	DD	0a218H
$unwind$ccread_direct_decl_name DD 031a01H
	DD	07016c21aH
	DD	06015H
$unwind$ccread_decl_name_modifier_maybe DD 011801H
	DD	04218H
$unwind$ccread_init_decl_name DD 011801H
	DD	08218H
$unwind$ccread_struct_decl_name DD 011801H
	DD	08218H
$unwind$ccread_init_decl_name_list DD 011801H
	DD	06218H
$unwind$ccread_struct_decl_name_list DD 011801H
	DD	06218H
$unwind$ccread_init_decl DD 011301H
	DD	08213H
$unwind$ccread_struct_decl DD 011301H
	DD	08213H
$unwind$ccread_struct_or_union_specifier DD 011301H
	DD	0a213H
$unwind$ccread_type_specifier DD 011301H
	DD	06213H
$unwind$ccread_storage_class_specifier DD 011301H
	DD	06213H
$unwind$ccread_type_qualifier DD 011301H
	DD	06213H
$unwind$ccread_function_specifier DD 011301H
	DD	06213H
$unwind$ccread_alignment_specifier DD 011301H
	DD	06213H
$unwind$ccread_param_decl DD 011301H
	DD	08213H
$unwind$ccread_param_decl_list DD 011301H
	DD	06213H
$unwind$ccread_block DD 011301H
	DD	08213H
$unwind$ccread_statement_list DD 011301H
	DD	06213H
$unwind$ccread_statement DD 021601H
	DD	0110116H
$unwind$ccread_block_or_single_stmt DD 011301H
	DD	06213H
$unwind$ccread_external_declaration DD 011301H
	DD	0a213H
$unwind$ccread_translation_unit DD 010901H
	DD	06209H
$unwind$ccemit_lvalue DD 011801H
	DD	08218H
$unwind$ccemit_rvalue DD 011801H
	DD	0a218H
$unwind$cctree_to_type DD 011801H
	DD	06218H
$unwind$ccemit_include_local DD 011801H
	DD	0a218H
$unwind$ccemit_constant DD 011301H
	DD	06213H
$unwind$ccemit_const_i32 DD 010e01H
	DD	0620eH
$unwind$ccemit_resolve DD 011301H
	DD	06213H
$unwind$ccemit_invoke_easy DD 011801H
	DD	0c218H
$unwind$ccemit_tree DD 041d01H
	DD	041011dH
	DD	060157016H
$unwind$ccemit_treelist DD 011801H
	DD	06218H
$unwind$ccemit_decl_name DD 011801H
	DD	08218H
$unwind$ccemit_decl DD 011801H
	DD	06218H
$unwind$ccemit_param DD 011801H
	DD	08218H
$unwind$ccemit_function DD 011301H
	DD	08213H
$unwind$ccemit_external_decl DD 010e01H
	DD	0820eH
$unwind$ccemit_translation_unit DD 010e01H
	DD	0620eH
$unwind$ccemit_init DD 010901H
	DD	04209H
$unwind$ccexec_sizeof DD 041301H
	DD	0130113H
	DD	0600b700cH
$unwind$ccstack_mingle DD 010e01H
	DD	0620eH
$unwind$ccstack_yield DD 031501H
	DD	070118215H
	DD	06010H
$unwind$ccstack_yield_rvalue DD 041801H
	DD	0150118H
	DD	060107011H
$unwind$ccstack_yield_lvalue DD 031501H
	DD	07011e215H
	DD	06010H
$unwind$ccstack_local_alloc DD 031001H
	DD	0700ce210H
	DD	0600bH
$unwind$ccexec_edict_arith DD 041c01H
	DD	041011cH
	DD	060147015H
$unwind$ccexec_invoke DD 041d01H
	DD	01b011dH
	DD	060157016H
$unwind$ccexec_edict DD 041801H
	DD	0ab0118H
	DD	060107011H
$unwind$ccexec_init DD 010901H
	DD	04209H
$unwind$fib DD	010801H
	DD	06208H
$unwind$ccexec_translation_unit DD 041301H
	DD	0170113H
	DD	0600b700cH
$unwind$gen_type DD 010801H
	DD	06208H
$unwind$gen_vectype DD 010d01H
	DD	0620dH
$unwind$gen_ptrtype DD 010901H
	DD	06209H
$unwind$gen_vartype DD 011101H
	DD	06211H
$unwind$gen_fixtype DD 010c01H
	DD	0620cH
$unwind$gen_typename_ex DD 011301H
	DD	08213H
$unwind$gen_typename DD 010901H
	DD	04209H
$unwind$emit_typename DD 010e01H
	DD	0420eH
$unwind$emit_modifier DD 010d01H
	DD	0420dH
$unwind$emit_vardecl_ex DD 011801H
	DD	04218H
$unwind$emit_vardecl DD 011301H
	DD	04213H
$unwind$emit_fundecl DD 011801H
	DD	06218H
$unwind$genmake DD 010e01H
	DD	0820eH
$unwind$emit_vecoprari DD 011301H
	DD	08213H
$unwind$emit_vectype DD 010e01H
	DD	0620eH
$unwind$emit_type DD 010e01H
	DD	0620eH
$unwind$main DD	021001H
	DD	01d0110H
xdata	ENDS
;	COMDAT xdata
xdata	SEGMENT
$unwind$printf DD 011801H
	DD	06218H
xdata	ENDS
;	COMDAT xdata
xdata	SEGMENT
$unwind$_vfprintf_l DD 011801H
	DD	06218H
xdata	ENDS
; Function compile flags: /Odtp
_TEXT	SEGMENT
i$1 = 48
tv154 = 52
out$2 = 56
file$3 = 64
exec$ = 72
tv130 = 80
emit$ = 88
read$ = 112
argc$ = 240
argv$ = 248
main	PROC
; File W:\cpp\void\ktt-c\test.c
; Line 5
$LN8:
	mov	QWORD PTR [rsp+16], rdx
	mov	DWORD PTR [rsp+8], ecx
	sub	rsp, 232				; 000000e8H
; Line 6
	mov	rax, QWORD PTR argv$[rsp]
	add	rax, 8
	mov	QWORD PTR argv$[rsp], rax
; Line 7
	mov	eax, DWORD PTR argc$[rsp]
	dec	eax
	mov	DWORD PTR argc$[rsp], eax
; Line 9
	lea	rax, OFFSET FLAT:$SG50187
	mov	QWORD PTR [rsp+40], rax
	lea	rax, OFFSET FLAT:$SG50188
	mov	QWORD PTR [rsp+32], rax
	lea	r9, OFFSET FLAT:$SG50189
	mov	r8d, 9
	lea	rdx, OFFSET FLAT:$SG50190
	mov	ecx, 51					; 00000033H
	call	cctrace_
; Line 10
	lea	rax, OFFSET FLAT:$SG50191
	mov	QWORD PTR [rsp+40], rax
	lea	rax, OFFSET FLAT:$SG50192
	mov	QWORD PTR [rsp+32], rax
	lea	r9, OFFSET FLAT:$SG50193
	mov	r8d, 10
	lea	rdx, OFFSET FLAT:$SG50194
	mov	ecx, 52					; 00000034H
	call	cctrace_
; Line 11
	lea	rax, OFFSET FLAT:$SG50195
	mov	QWORD PTR [rsp+40], rax
	lea	rax, OFFSET FLAT:$SG50196
	mov	QWORD PTR [rsp+32], rax
	lea	r9, OFFSET FLAT:$SG50197
	mov	r8d, 11
	lea	rdx, OFFSET FLAT:$SG50198
	mov	ecx, 53					; 00000035H
	call	cctrace_
; Line 13
	call	ccdlb_test
; Line 16
	lea	rcx, QWORD PTR read$[rsp]
	call	ccread_init
; Line 17
	lea	rdx, OFFSET FLAT:$SG50199
	lea	rcx, QWORD PTR read$[rsp]
	call	ccread_include
; Line 20
	lea	rcx, QWORD PTR emit$[rsp]
	call	ccemit_init
; Line 21
	lea	rcx, QWORD PTR read$[rsp]
	call	ccread_translation_unit
	mov	rdx, rax
	lea	rcx, QWORD PTR emit$[rsp]
	call	ccemit_translation_unit
; Line 24
	lea	rcx, QWORD PTR exec$[rsp]
	call	ccexec_init
; Line 25
	lea	rdx, QWORD PTR emit$[rsp]
	lea	rcx, QWORD PTR exec$[rsp]
	call	ccexec_translation_unit
; Line 27
	lea	rcx, QWORD PTR read$[rsp]
	call	ccread_uninit
; Line 32
	mov	QWORD PTR out$2[rsp], 0
; Line 34
	lea	rcx, OFFSET FLAT:$SG50201
	call	strlen
	mov	QWORD PTR tv130[rsp], rax
	lea	rcx, OFFSET FLAT:$SG50202
	call	strlen
	inc	eax
	lea	r9, OFFSET FLAT:$SG50200
	mov	rcx, QWORD PTR tv130[rsp]
	mov	r8d, ecx
	mov	edx, eax
	lea	rcx, QWORD PTR out$2[rsp]
	call	ccdlb_stradd
; Line 67
	mov	DWORD PTR i$1[rsp], 0
	jmp	SHORT $LN4@main
$LN2@main:
	mov	eax, DWORD PTR i$1[rsp]
	inc	eax
	mov	DWORD PTR i$1[rsp], eax
$LN4@main:
	movsxd	rax, DWORD PTR i$1[rsp]
	cmp	rax, 4
	jae	SHORT $LN3@main
; Line 68
	movsxd	rax, DWORD PTR i$1[rsp]
	imul	rax, rax, 32				; 00000020H
	lea	rcx, OFFSET FLAT:?ts@?2??main@@9@4QBUkttcc_type@@B
	add	rcx, rax
	mov	rax, rcx
	mov	rdx, rax
	lea	rcx, QWORD PTR out$2[rsp]
	call	emit_type
; Line 69
	jmp	SHORT $LN2@main
$LN3@main:
; Line 71
	lea	rcx, OFFSET FLAT:$SG50203
	call	ccopenfile
	mov	QWORD PTR file$3[rsp], rax
; Line 72
	cmp	QWORD PTR out$2[rsp], 0
	je	SHORT $LN6@main
	mov	eax, 4
	imul	rax, rax, -1
	mov	rcx, QWORD PTR out$2[rsp]
	mov	eax, DWORD PTR [rcx+rax]
	mov	DWORD PTR tv154[rsp], eax
	jmp	SHORT $LN7@main
$LN6@main:
	mov	DWORD PTR tv154[rsp], 0
$LN7@main:
	mov	r9, QWORD PTR out$2[rsp]
	mov	r8d, DWORD PTR tv154[rsp]
	xor	edx, edx
	mov	rcx, QWORD PTR file$3[rsp]
	call	ccpushfile
; Line 73
	mov	rcx, QWORD PTR file$3[rsp]
	call	ccclosefile
; Line 76
	xor	eax, eax
	add	rsp, 232				; 000000e8H
	ret	0
main	ENDP
_TEXT	ENDS
; Function compile flags: /Odtp
_TEXT	SEGMENT
i$1 = 32
fix$2 = 40
out$ = 64
t$ = 72
emit_type PROC
; File W:\cpp\void\ktt-c\ccemit-c.c
; Line 324
$LN7:
	mov	QWORD PTR [rsp+16], rdx
	mov	QWORD PTR [rsp+8], rcx
	sub	rsp, 56					; 00000038H
; Line 325
	mov	rax, QWORD PTR t$[rsp]
	cmp	DWORD PTR [rax], 2
	jne	$LN5@emit_type
; Line 327
	mov	rax, QWORD PTR t$[rsp]
	mov	eax, DWORD PTR [rax+12]
	mov	DWORD PTR i$1[rsp], eax
	jmp	SHORT $LN4@emit_type
$LN2@emit_type:
	mov	eax, DWORD PTR i$1[rsp]
	shl	eax, 1
	mov	DWORD PTR i$1[rsp], eax
$LN4@emit_type:
	mov	rax, QWORD PTR t$[rsp]
	mov	eax, DWORD PTR [rax+8]
	cmp	DWORD PTR i$1[rsp], eax
	jg	SHORT $LN3@emit_type
; Line 329
	mov	edx, DWORD PTR i$1[rsp]
	mov	rax, QWORD PTR t$[rsp]
	mov	ecx, DWORD PTR [rax+4]
	call	gen_fixtype
	mov	QWORD PTR fix$2[rsp], rax
; Line 331
	mov	edx, 2
	mov	rcx, QWORD PTR fix$2[rsp]
	call	gen_vectype
	mov	rdx, rax
	mov	rcx, QWORD PTR out$[rsp]
	call	emit_vectype
; Line 332
	mov	edx, 3
	mov	rcx, QWORD PTR fix$2[rsp]
	call	gen_vectype
	mov	rdx, rax
	mov	rcx, QWORD PTR out$[rsp]
	call	emit_vectype
; Line 333
	mov	edx, 4
	mov	rcx, QWORD PTR fix$2[rsp]
	call	gen_vectype
	mov	rdx, rax
	mov	rcx, QWORD PTR out$[rsp]
	call	emit_vectype
; Line 334
	jmp	$LN2@emit_type
$LN3@emit_type:
$LN5@emit_type:
; Line 337
	add	rsp, 56					; 00000038H
	ret	0
emit_type ENDP
_TEXT	ENDS
; Function compile flags: /Odtp
_TEXT	SEGMENT
i$1 = 32
out$ = 64
t$ = 72
emit_vectype PROC
; File W:\cpp\void\ktt-c\ccemit-c.c
; Line 291
$LN7:
	mov	QWORD PTR [rsp+16], rdx
	mov	QWORD PTR [rsp+8], rcx
	sub	rsp, 56					; 00000038H
; Line 292
	mov	rax, QWORD PTR t$[rsp]
	cmp	DWORD PTR [rax], 4
	jne	$LN5@emit_vecty
; Line 293
	lea	rdx, OFFSET FLAT:$SG50138
	mov	rcx, QWORD PTR out$[rsp]
	call	ccstr_catf
; Line 294
	mov	rdx, QWORD PTR t$[rsp]
	mov	rcx, QWORD PTR out$[rsp]
	call	emit_typename
; Line 295
	lea	rdx, OFFSET FLAT:$SG50139
	mov	rcx, QWORD PTR out$[rsp]
	call	ccstr_catf
; Line 296
	lea	rdx, OFFSET FLAT:$SG50140
	mov	rcx, QWORD PTR out$[rsp]
	call	ccstr_catf
; Line 297
	mov	DWORD PTR i$1[rsp], 0
	jmp	SHORT $LN4@emit_vecty
$LN2@emit_vecty:
	mov	eax, DWORD PTR i$1[rsp]
	inc	eax
	mov	DWORD PTR i$1[rsp], eax
$LN4@emit_vecty:
	mov	rax, QWORD PTR t$[rsp]
	mov	eax, DWORD PTR [rax+20]
	cmp	DWORD PTR i$1[rsp], eax
	jge	SHORT $LN3@emit_vecty
; Line 298
	lea	rdx, OFFSET FLAT:$SG50141
	mov	rcx, QWORD PTR out$[rsp]
	call	ccstr_catf
; Line 299
	movsxd	rax, DWORD PTR i$1[rsp]
	lea	rcx, OFFSET FLAT:fn
	movzx	r8d, BYTE PTR [rcx+rax]
	mov	rax, QWORD PTR t$[rsp]
	mov	rdx, QWORD PTR [rax+24]
	mov	rcx, QWORD PTR out$[rsp]
	call	emit_vardecl
; Line 300
	lea	rdx, OFFSET FLAT:$SG50142
	mov	rcx, QWORD PTR out$[rsp]
	call	ccstr_catf
; Line 301
	jmp	SHORT $LN2@emit_vecty
$LN3@emit_vecty:
; Line 302
	lea	rdx, OFFSET FLAT:$SG50143
	mov	rcx, QWORD PTR out$[rsp]
	call	ccstr_catf
; Line 303
	lea	rdx, OFFSET FLAT:$SG50144
	mov	rcx, QWORD PTR out$[rsp]
	call	ccstr_catf
; Line 304
	mov	rdx, QWORD PTR t$[rsp]
	mov	rcx, QWORD PTR out$[rsp]
	call	emit_typename
; Line 305
	lea	rdx, OFFSET FLAT:$SG50145
	mov	rcx, QWORD PTR out$[rsp]
	call	ccstr_catf
$LN5@emit_vecty:
; Line 308
	mov	rdx, QWORD PTR t$[rsp]
	mov	rcx, QWORD PTR out$[rsp]
	call	genmake
; Line 309
	lea	r8, OFFSET FLAT:$SG50146
	mov	rdx, QWORD PTR t$[rsp]
	mov	rcx, QWORD PTR out$[rsp]
	call	emit_vecoprari
	lea	r8, OFFSET FLAT:$SG50147
	mov	rdx, QWORD PTR t$[rsp]
	mov	rcx, QWORD PTR out$[rsp]
	call	emit_vecoprari
; Line 310
	lea	r8, OFFSET FLAT:$SG50148
	mov	rdx, QWORD PTR t$[rsp]
	mov	rcx, QWORD PTR out$[rsp]
	call	emit_vecoprari
	lea	r8, OFFSET FLAT:$SG50149
	mov	rdx, QWORD PTR t$[rsp]
	mov	rcx, QWORD PTR out$[rsp]
	call	emit_vecoprari
; Line 311
	lea	r8, OFFSET FLAT:$SG50150
	mov	rdx, QWORD PTR t$[rsp]
	mov	rcx, QWORD PTR out$[rsp]
	call	emit_vecoprari
	lea	r8, OFFSET FLAT:$SG50151
	mov	rdx, QWORD PTR t$[rsp]
	mov	rcx, QWORD PTR out$[rsp]
	call	emit_vecoprari
; Line 312
	lea	r8, OFFSET FLAT:$SG50152
	mov	rdx, QWORD PTR t$[rsp]
	mov	rcx, QWORD PTR out$[rsp]
	call	emit_vecoprari
	lea	r8, OFFSET FLAT:$SG50153
	mov	rdx, QWORD PTR t$[rsp]
	mov	rcx, QWORD PTR out$[rsp]
	call	emit_vecoprari
; Line 321
	add	rsp, 56					; 00000038H
	ret	0
emit_vectype ENDP
_TEXT	ENDS
; Function compile flags: /Odtp
_TEXT	SEGMENT
i$1 = 48
out$ = 80
t$ = 88
opr$ = 96
emit_vecoprari PROC
; File W:\cpp\void\ktt-c\ccemit-c.c
; Line 202
$LN8:
	mov	QWORD PTR [rsp+24], r8
	mov	QWORD PTR [rsp+16], rdx
	mov	QWORD PTR [rsp+8], rcx
	sub	rsp, 72					; 00000048H
; Line 203
	mov	rcx, QWORD PTR t$[rsp]
	call	gen_typename
	mov	r9, QWORD PTR opr$[rsp]
	mov	r8, rax
	lea	rdx, OFFSET FLAT:$SG50119
	mov	rcx, QWORD PTR out$[rsp]
	call	ccstr_catf
; Line 205
	mov	rcx, QWORD PTR opr$[rsp]
	call	strlen
	cmp	rax, 2
	jne	SHORT $LN5@emit_vecop
	mov	eax, 1
	imul	rax, rax, 1
	mov	rcx, QWORD PTR opr$[rsp]
	movsx	eax, BYTE PTR [rcx+rax]
	cmp	eax, 61					; 0000003dH
	jne	SHORT $LN5@emit_vecop
; Line 207
	mov	r9b, 97					; 00000061H
	mov	r8d, 6
	mov	rdx, QWORD PTR t$[rsp]
	mov	rcx, QWORD PTR out$[rsp]
	call	emit_vardecl_ex
; Line 208
	jmp	SHORT $LN6@emit_vecop
$LN5@emit_vecop:
; Line 210
	mov	r8b, 97					; 00000061H
	mov	rdx, QWORD PTR t$[rsp]
	mov	rcx, QWORD PTR out$[rsp]
	call	emit_vardecl
$LN6@emit_vecop:
; Line 213
	lea	rdx, OFFSET FLAT:$SG50122
	mov	rcx, QWORD PTR out$[rsp]
	call	ccstr_catf
; Line 214
	mov	r8b, 98					; 00000062H
	mov	rdx, QWORD PTR t$[rsp]
	mov	rcx, QWORD PTR out$[rsp]
	call	emit_vardecl
; Line 216
	lea	rdx, OFFSET FLAT:$SG50123
	mov	rcx, QWORD PTR out$[rsp]
	call	ccstr_catf
; Line 218
	lea	rdx, OFFSET FLAT:$SG50124
	mov	rcx, QWORD PTR out$[rsp]
	call	ccstr_catf
; Line 219
	mov	r8b, 114				; 00000072H
	mov	rdx, QWORD PTR t$[rsp]
	mov	rcx, QWORD PTR out$[rsp]
	call	emit_vardecl
; Line 220
	lea	rdx, OFFSET FLAT:$SG50125
	mov	rcx, QWORD PTR out$[rsp]
	call	ccstr_catf
; Line 222
	mov	DWORD PTR i$1[rsp], 0
	jmp	SHORT $LN4@emit_vecop
$LN2@emit_vecop:
	mov	eax, DWORD PTR i$1[rsp]
	inc	eax
	mov	DWORD PTR i$1[rsp], eax
$LN4@emit_vecop:
	mov	rax, QWORD PTR t$[rsp]
	mov	eax, DWORD PTR [rax+20]
	cmp	DWORD PTR i$1[rsp], eax
	jge	SHORT $LN3@emit_vecop
; Line 223
	movsxd	rax, DWORD PTR i$1[rsp]
	lea	rcx, OFFSET FLAT:fn
	movsx	eax, BYTE PTR [rcx+rax]
	mov	ecx, 1
	imul	rcx, rcx, 0
	mov	rdx, QWORD PTR opr$[rsp]
	movsx	ecx, BYTE PTR [rdx+rcx]
	movsxd	rdx, DWORD PTR i$1[rsp]
	lea	r8, OFFSET FLAT:fn
	movsx	edx, BYTE PTR [r8+rdx]
	movsxd	r8, DWORD PTR i$1[rsp]
	lea	r9, OFFSET FLAT:fn
	movsx	r8d, BYTE PTR [r9+r8]
	mov	DWORD PTR [rsp+40], eax
	mov	DWORD PTR [rsp+32], ecx
	mov	r9d, edx
	lea	rdx, OFFSET FLAT:$SG50126
	mov	rcx, QWORD PTR out$[rsp]
	call	ccstr_catf
; Line 224
	jmp	SHORT $LN2@emit_vecop
$LN3@emit_vecop:
; Line 225
	lea	rdx, OFFSET FLAT:$SG50127
	mov	rcx, QWORD PTR out$[rsp]
	call	ccstr_catf
; Line 226
	lea	rdx, OFFSET FLAT:$SG50128
	mov	rcx, QWORD PTR out$[rsp]
	call	ccstr_catf
; Line 227
	add	rsp, 72					; 00000048H
	ret	0
emit_vecoprari ENDP
_TEXT	ENDS
; Function compile flags: /Odtp
_TEXT	SEGMENT
i$1 = 48
out$ = 80
t$ = 88
genmake	PROC
; File W:\cpp\void\ktt-c\ccemit-c.c
; Line 183
$LN6:
	mov	QWORD PTR [rsp+16], rdx
	mov	QWORD PTR [rsp+8], rcx
	sub	rsp, 72					; 00000048H
; Line 184
	mov	rcx, QWORD PTR t$[rsp]
	call	gen_typename
	mov	rdx, rax
	lea	rcx, OFFSET FLAT:$SG50103
	call	ccformat
	mov	QWORD PTR [rsp+32], rax
	mov	r9, QWORD PTR t$[rsp]
	mov	rax, QWORD PTR t$[rsp]
	mov	r8d, DWORD PTR [rax+20]
	mov	rax, QWORD PTR t$[rsp]
	mov	rdx, QWORD PTR [rax+24]
	mov	rcx, QWORD PTR out$[rsp]
	call	emit_fundecl
; Line 187
	lea	rdx, OFFSET FLAT:$SG50104
	mov	rcx, QWORD PTR out$[rsp]
	call	ccstr_catf
; Line 188
	lea	rdx, OFFSET FLAT:$SG50105
	mov	rcx, QWORD PTR out$[rsp]
	call	ccstr_catf
; Line 190
	mov	r8b, 114				; 00000072H
	mov	rdx, QWORD PTR t$[rsp]
	mov	rcx, QWORD PTR out$[rsp]
	call	emit_vardecl
; Line 191
	lea	rdx, OFFSET FLAT:$SG50106
	mov	rcx, QWORD PTR out$[rsp]
	call	ccstr_catf
; Line 193
	mov	DWORD PTR i$1[rsp], 0
	jmp	SHORT $LN4@genmake
$LN2@genmake:
	mov	eax, DWORD PTR i$1[rsp]
	inc	eax
	mov	DWORD PTR i$1[rsp], eax
$LN4@genmake:
	mov	rax, QWORD PTR t$[rsp]
	mov	eax, DWORD PTR [rax+20]
	cmp	DWORD PTR i$1[rsp], eax
	jge	SHORT $LN3@genmake
; Line 194
	movsxd	rax, DWORD PTR i$1[rsp]
	lea	rcx, OFFSET FLAT:fn
	movsx	eax, BYTE PTR [rcx+rax]
	movsxd	rcx, DWORD PTR i$1[rsp]
	lea	rdx, OFFSET FLAT:fn
	movsx	ecx, BYTE PTR [rdx+rcx]
	mov	r9d, eax
	mov	r8d, ecx
	lea	rdx, OFFSET FLAT:$SG50107
	mov	rcx, QWORD PTR out$[rsp]
	call	ccstr_catf
; Line 195
	jmp	SHORT $LN2@genmake
$LN3@genmake:
; Line 197
	lea	rdx, OFFSET FLAT:$SG50108
	mov	rcx, QWORD PTR out$[rsp]
	call	ccstr_catf
; Line 198
	lea	rdx, OFFSET FLAT:$SG50109
	mov	rcx, QWORD PTR out$[rsp]
	call	ccstr_catf
; Line 199
	add	rsp, 72					; 00000048H
	ret	0
genmake	ENDP
_TEXT	ENDS
; Function compile flags: /Odtp
_TEXT	SEGMENT
i$1 = 32
out$ = 64
t$ = 72
l$ = 80
r$ = 88
n$ = 96
emit_fundecl PROC
; File W:\cpp\void\ktt-c\ccemit-c.c
; Line 163
$LN9:
	mov	QWORD PTR [rsp+32], r9
	mov	DWORD PTR [rsp+24], r8d
	mov	QWORD PTR [rsp+16], rdx
	mov	QWORD PTR [rsp+8], rcx
	sub	rsp, 56					; 00000038H
; Line 164
	lea	rdx, OFFSET FLAT:$SG50086
	mov	rcx, QWORD PTR out$[rsp]
	call	ccstr_catf
; Line 165
	cmp	QWORD PTR r$[rsp], 0
	je	SHORT $LN5@emit_funde
; Line 166
	mov	rdx, QWORD PTR r$[rsp]
	mov	rcx, QWORD PTR out$[rsp]
	call	emit_typename
; Line 167
	jmp	SHORT $LN6@emit_funde
$LN5@emit_funde:
; Line 168
	lea	rdx, OFFSET FLAT:$SG50089
	mov	rcx, QWORD PTR out$[rsp]
	call	ccstr_catf
$LN6@emit_funde:
; Line 170
	mov	r8, QWORD PTR n$[rsp]
	lea	rdx, OFFSET FLAT:$SG50090
	mov	rcx, QWORD PTR out$[rsp]
	call	ccstr_catf
; Line 172
	lea	rdx, OFFSET FLAT:$SG50091
	mov	rcx, QWORD PTR out$[rsp]
	call	ccstr_catf
; Line 173
	mov	DWORD PTR i$1[rsp], 0
	jmp	SHORT $LN4@emit_funde
$LN2@emit_funde:
	mov	eax, DWORD PTR i$1[rsp]
	inc	eax
	mov	DWORD PTR i$1[rsp], eax
$LN4@emit_funde:
	mov	eax, DWORD PTR l$[rsp]
	cmp	DWORD PTR i$1[rsp], eax
	jge	SHORT $LN3@emit_funde
; Line 174
	cmp	DWORD PTR i$1[rsp], 0
	je	SHORT $LN7@emit_funde
	lea	rdx, OFFSET FLAT:$SG50093
	mov	rcx, QWORD PTR out$[rsp]
	call	ccstr_catf
$LN7@emit_funde:
; Line 175
	movsxd	rax, DWORD PTR i$1[rsp]
	lea	rcx, OFFSET FLAT:fn
	movzx	r8d, BYTE PTR [rcx+rax]
	mov	rdx, QWORD PTR t$[rsp]
	mov	rcx, QWORD PTR out$[rsp]
	call	emit_vardecl
; Line 176
	jmp	SHORT $LN2@emit_funde
$LN3@emit_funde:
; Line 177
	lea	rdx, OFFSET FLAT:$SG50094
	mov	rcx, QWORD PTR out$[rsp]
	call	ccstr_catf
; Line 179
	add	rsp, 56					; 00000038H
	ret	0
emit_fundecl ENDP
_TEXT	ENDS
; Function compile flags: /Odtp
_TEXT	SEGMENT
out$ = 48
t$ = 56
name$ = 64
emit_vardecl PROC
; File W:\cpp\void\ktt-c\ccemit-c.c
; Line 158
$LN3:
	mov	BYTE PTR [rsp+24], r8b
	mov	QWORD PTR [rsp+16], rdx
	mov	QWORD PTR [rsp+8], rcx
	sub	rsp, 40					; 00000028H
; Line 159
	movzx	r9d, BYTE PTR name$[rsp]
	xor	r8d, r8d
	mov	rdx, QWORD PTR t$[rsp]
	mov	rcx, QWORD PTR out$[rsp]
	call	emit_vardecl_ex
; Line 160
	add	rsp, 40					; 00000028H
	ret	0
emit_vardecl ENDP
_TEXT	ENDS
; Function compile flags: /Odtp
_TEXT	SEGMENT
out$ = 48
t$ = 56
override_modifier$ = 64
name$ = 72
emit_vardecl_ex PROC
; File W:\cpp\void\ktt-c\ccemit-c.c
; Line 126
$LN19:
	mov	BYTE PTR [rsp+32], r9b
	mov	DWORD PTR [rsp+24], r8d
	mov	QWORD PTR [rsp+16], rdx
	mov	QWORD PTR [rsp+8], rcx
	sub	rsp, 40					; 00000028H
; Line 127
	mov	rcx, QWORD PTR t$[rsp]
	call	gen_typename
	mov	r8, rax
	lea	rdx, OFFSET FLAT:$SG50058
	mov	rcx, QWORD PTR out$[rsp]
	call	ccstr_catf
; Line 129
	cmp	DWORD PTR override_modifier$[rsp], 5
	je	SHORT $LN10@emit_varde
	cmp	DWORD PTR override_modifier$[rsp], 6
	jne	SHORT $LN8@emit_varde
$LN10@emit_varde:
; Line 132
	mov	edx, DWORD PTR override_modifier$[rsp]
	mov	rcx, QWORD PTR out$[rsp]
	call	emit_modifier
; Line 133
	jmp	SHORT $LN9@emit_varde
$LN8@emit_varde:
$LN2@emit_varde:
; Line 135
	mov	rax, QWORD PTR t$[rsp]
	cmp	DWORD PTR [rax], 5
	je	SHORT $LN13@emit_varde
	mov	rax, QWORD PTR t$[rsp]
	cmp	DWORD PTR [rax], 6
	jne	SHORT $LN11@emit_varde
$LN13@emit_varde:
; Line 138
	mov	rax, QWORD PTR t$[rsp]
	mov	edx, DWORD PTR [rax]
	mov	rcx, QWORD PTR out$[rsp]
	call	emit_modifier
; Line 139
	jmp	SHORT $LN12@emit_varde
$LN11@emit_varde:
	jmp	SHORT $LN3@emit_varde
$LN12@emit_varde:
; Line 140
	jmp	SHORT $LN2@emit_varde
$LN3@emit_varde:
$LN9@emit_varde:
; Line 142
	movsx	eax, BYTE PTR name$[rsp]
	mov	r8d, eax
	lea	rdx, OFFSET FLAT:$SG50065
	mov	rcx, QWORD PTR out$[rsp]
	call	ccstr_catf
; Line 144
	cmp	DWORD PTR override_modifier$[rsp], 7
	jne	SHORT $LN14@emit_varde
; Line 146
	mov	edx, DWORD PTR override_modifier$[rsp]
	mov	rcx, QWORD PTR out$[rsp]
	call	emit_modifier
; Line 147
	jmp	SHORT $LN15@emit_varde
$LN14@emit_varde:
$LN5@emit_varde:
; Line 150
	mov	rax, QWORD PTR t$[rsp]
	cmp	DWORD PTR [rax], 7
	jne	SHORT $LN16@emit_varde
; Line 152
	mov	rax, QWORD PTR t$[rsp]
	mov	edx, DWORD PTR [rax]
	mov	rcx, QWORD PTR out$[rsp]
	call	emit_modifier
; Line 153
	jmp	SHORT $LN17@emit_varde
$LN16@emit_varde:
	jmp	SHORT $LN6@emit_varde
$LN17@emit_varde:
; Line 154
	jmp	SHORT $LN5@emit_varde
$LN6@emit_varde:
$LN15@emit_varde:
; Line 155
	add	rsp, 40					; 00000028H
	ret	0
emit_vardecl_ex ENDP
_TEXT	ENDS
; Function compile flags: /Odtp
_TEXT	SEGMENT
out$ = 48
modifier$ = 56
emit_modifier PROC
; File W:\cpp\void\ktt-c\ccemit-c.c
; Line 119
$LN6:
	mov	DWORD PTR [rsp+16], edx
	mov	QWORD PTR [rsp+8], rcx
	sub	rsp, 40					; 00000028H
; Line 120
	cmp	DWORD PTR modifier$[rsp], 5
	jne	SHORT $LN2@emit_modif
	lea	rdx, OFFSET FLAT:$SG50041
	mov	rcx, QWORD PTR out$[rsp]
	call	ccstr_catf
$LN2@emit_modif:
; Line 121
	cmp	DWORD PTR modifier$[rsp], 6
	jne	SHORT $LN3@emit_modif
	lea	rdx, OFFSET FLAT:$SG50043
	mov	rcx, QWORD PTR out$[rsp]
	call	ccstr_catf
$LN3@emit_modif:
; Line 122
	cmp	DWORD PTR modifier$[rsp], 7
	jne	SHORT $LN4@emit_modif
	lea	rdx, OFFSET FLAT:$SG50045
	mov	rcx, QWORD PTR out$[rsp]
	call	ccstr_catf
$LN4@emit_modif:
; Line 123
	add	rsp, 40					; 00000028H
	ret	0
emit_modifier ENDP
_TEXT	ENDS
; Function compile flags: /Odtp
_TEXT	SEGMENT
out$ = 48
t$ = 56
emit_typename PROC
; File W:\cpp\void\ktt-c\ccemit-c.c
; Line 114
$LN3:
	mov	QWORD PTR [rsp+16], rdx
	mov	QWORD PTR [rsp+8], rcx
	sub	rsp, 40					; 00000028H
; Line 115
	mov	rcx, QWORD PTR t$[rsp]
	call	gen_typename
	mov	r8, rax
	lea	rdx, OFFSET FLAT:$SG50035
	mov	rcx, QWORD PTR out$[rsp]
	call	ccstr_catf
; Line 116
	add	rsp, 40					; 00000028H
	ret	0
emit_typename ENDP
_TEXT	ENDS
; Function compile flags: /Odtp
_TEXT	SEGMENT
t$ = 48
gen_typename PROC
; File W:\cpp\void\ktt-c\ccemit-c.c
; Line 107
$LN3:
	mov	QWORD PTR [rsp+8], rcx
	sub	rsp, 40					; 00000028H
; Line 109
	mov	r8d, 32					; 00000020H
	lea	rdx, OFFSET FLAT:?buf@?1??gen_typename@@9@4PADA
	mov	rcx, QWORD PTR t$[rsp]
	call	gen_typename_ex
; Line 110
	lea	rax, OFFSET FLAT:?buf@?1??gen_typename@@9@4PADA
; Line 111
	add	rsp, 40					; 00000028H
	ret	0
gen_typename ENDP
_TEXT	ENDS
; Function compile flags: /Odtp
_TEXT	SEGMENT
p$1 = 48
t$ = 80
buf$ = 88
len$ = 96
gen_typename_ex PROC
; File W:\cpp\void\ktt-c\ccemit-c.c
; Line 87
$LN9:
	mov	DWORD PTR [rsp+24], r8d
	mov	QWORD PTR [rsp+16], rdx
	mov	QWORD PTR [rsp+8], rcx
	sub	rsp, 72					; 00000048H
; Line 88
	mov	rax, QWORD PTR t$[rsp]
	cmp	DWORD PTR [rax], 3
	jne	SHORT $LN2@gen_typena
; Line 90
	mov	rax, QWORD PTR t$[rsp]
	movsxd	rax, DWORD PTR [rax+4]
	lea	rcx, OFFSET FLAT:pf
	movsx	eax, BYTE PTR [rcx+rax]
	mov	rcx, QWORD PTR t$[rsp]
	mov	ecx, DWORD PTR [rcx+16]
	mov	DWORD PTR [rsp+32], ecx
	mov	r9d, eax
	lea	r8, OFFSET FLAT:$SG50019
	mov	edx, DWORD PTR len$[rsp]
	mov	rcx, QWORD PTR buf$[rsp]
	call	ccformatex
	jmp	$LN1@gen_typena
; Line 91
	jmp	$LN3@gen_typena
$LN2@gen_typena:
; Line 92
	mov	rax, QWORD PTR t$[rsp]
	cmp	DWORD PTR [rax], 1
	jne	SHORT $LN4@gen_typena
; Line 94
	mov	rax, QWORD PTR t$[rsp]
	movsxd	rax, DWORD PTR [rax+4]
	lea	rcx, OFFSET FLAT:pf
	movsx	eax, BYTE PTR [rcx+rax]
	mov	rcx, QWORD PTR t$[rsp]
	mov	ecx, DWORD PTR [rcx+12]
	mov	DWORD PTR [rsp+40], ecx
	mov	rcx, QWORD PTR t$[rsp]
	mov	ecx, DWORD PTR [rcx+8]
	mov	DWORD PTR [rsp+32], ecx
	mov	r9d, eax
	lea	r8, OFFSET FLAT:$SG50022
	mov	edx, DWORD PTR len$[rsp]
	mov	rcx, QWORD PTR buf$[rsp]
	call	ccformatex
	jmp	SHORT $LN1@gen_typena
; Line 95
	jmp	SHORT $LN5@gen_typena
$LN4@gen_typena:
; Line 96
	mov	rax, QWORD PTR t$[rsp]
	cmp	DWORD PTR [rax], 4
	jne	SHORT $LN6@gen_typena
; Line 98
	mov	r8d, DWORD PTR len$[rsp]
	mov	rdx, QWORD PTR buf$[rsp]
	mov	rax, QWORD PTR t$[rsp]
	mov	rcx, QWORD PTR [rax+24]
	call	gen_typename_ex
	mov	DWORD PTR p$1[rsp], eax
; Line 99
	mov	eax, DWORD PTR p$1[rsp]
	mov	ecx, DWORD PTR len$[rsp]
	sub	ecx, eax
	mov	eax, ecx
	movsxd	rcx, DWORD PTR p$1[rsp]
	mov	rdx, QWORD PTR buf$[rsp]
	add	rdx, rcx
	mov	rcx, rdx
	mov	rdx, QWORD PTR t$[rsp]
	mov	r9d, DWORD PTR [rdx+20]
	lea	r8, OFFSET FLAT:$SG50025
	mov	edx, eax
	call	ccformatex
	jmp	SHORT $LN1@gen_typena
; Line 100
	jmp	SHORT $LN7@gen_typena
$LN6@gen_typena:
; Line 102
	xor	eax, eax
$LN7@gen_typena:
$LN5@gen_typena:
$LN3@gen_typena:
$LN1@gen_typena:
; Line 104
	add	rsp, 72					; 00000048H
	ret	0
gen_typename_ex ENDP
_TEXT	ENDS
; Function compile flags: /Odtp
_TEXT	SEGMENT
type$ = 32
d$ = 64
b$ = 72
gen_fixtype PROC
; File W:\cpp\void\ktt-c\ccemit-c.c
; Line 72
$LN3:
	mov	DWORD PTR [rsp+16], edx
	mov	DWORD PTR [rsp+8], ecx
	sub	rsp, 56					; 00000038H
; Line 73
	mov	ecx, 3
	call	gen_type
	mov	QWORD PTR type$[rsp], rax
; Line 75
	mov	rax, QWORD PTR type$[rsp]
	mov	ecx, DWORD PTR d$[rsp]
	mov	DWORD PTR [rax+4], ecx
; Line 76
	mov	rax, QWORD PTR type$[rsp]
	mov	ecx, DWORD PTR b$[rsp]
	mov	DWORD PTR [rax+16], ecx
; Line 78
	mov	rax, QWORD PTR type$[rsp]
; Line 79
	add	rsp, 56					; 00000038H
	ret	0
gen_fixtype ENDP
_TEXT	ENDS
; Function compile flags: /Odtp
_TEXT	SEGMENT
type$ = 32
d$ = 64
i$ = 72
a$ = 80
gen_vartype PROC
; File W:\cpp\void\ktt-c\ccemit-c.c
; Line 61
$LN3:
	mov	DWORD PTR [rsp+24], r8d
	mov	DWORD PTR [rsp+16], edx
	mov	DWORD PTR [rsp+8], ecx
	sub	rsp, 56					; 00000038H
; Line 62
	mov	ecx, 2
	call	gen_type
	mov	QWORD PTR type$[rsp], rax
; Line 64
	mov	rax, QWORD PTR type$[rsp]
	mov	ecx, DWORD PTR d$[rsp]
	mov	DWORD PTR [rax+4], ecx
; Line 65
	mov	rax, QWORD PTR type$[rsp]
	mov	ecx, DWORD PTR i$[rsp]
	mov	DWORD PTR [rax+12], ecx
; Line 66
	mov	rax, QWORD PTR type$[rsp]
	mov	ecx, DWORD PTR a$[rsp]
	mov	DWORD PTR [rax+8], ecx
; Line 68
	mov	rax, QWORD PTR type$[rsp]
; Line 69
	add	rsp, 56					; 00000038H
	ret	0
gen_vartype ENDP
_TEXT	ENDS
; Function compile flags: /Odtp
_TEXT	SEGMENT
type$ = 32
t$ = 64
gen_ptrtype PROC
; File W:\cpp\void\ktt-c\ccemit-c.c
; Line 52
$LN3:
	mov	QWORD PTR [rsp+8], rcx
	sub	rsp, 56					; 00000038H
; Line 53
	mov	ecx, 5
	call	gen_type
	mov	QWORD PTR type$[rsp], rax
; Line 55
	mov	rax, QWORD PTR type$[rsp]
	mov	rcx, QWORD PTR t$[rsp]
	mov	QWORD PTR [rax+24], rcx
; Line 57
	mov	rax, QWORD PTR type$[rsp]
; Line 58
	add	rsp, 56					; 00000038H
	ret	0
gen_ptrtype ENDP
_TEXT	ENDS
; Function compile flags: /Odtp
_TEXT	SEGMENT
type$ = 32
t$ = 64
length$ = 72
gen_vectype PROC
; File W:\cpp\void\ktt-c\ccemit-c.c
; Line 42
$LN3:
	mov	DWORD PTR [rsp+16], edx
	mov	QWORD PTR [rsp+8], rcx
	sub	rsp, 56					; 00000038H
; Line 43
	mov	ecx, 4
	call	gen_type
	mov	QWORD PTR type$[rsp], rax
; Line 45
	mov	rax, QWORD PTR type$[rsp]
	mov	rcx, QWORD PTR t$[rsp]
	mov	QWORD PTR [rax+24], rcx
; Line 46
	mov	rax, QWORD PTR type$[rsp]
	mov	ecx, DWORD PTR length$[rsp]
	mov	DWORD PTR [rax+20], ecx
; Line 48
	mov	rax, QWORD PTR type$[rsp]
; Line 49
	add	rsp, 56					; 00000038H
	ret	0
gen_vectype ENDP
_TEXT	ENDS
; Function compile flags: /Odtp
_TEXT	SEGMENT
type$ = 32
k$ = 64
gen_type PROC
; File W:\cpp\void\ktt-c\ccemit-c.c
; Line 32
$LN3:
	mov	DWORD PTR [rsp+8], ecx
	sub	rsp, 56					; 00000038H
; Line 33
	mov	r9d, 33					; 00000021H
	lea	r8, OFFSET FLAT:$SG49981
	lea	rdx, OFFSET FLAT:$SG49982
	mov	ecx, 32					; 00000020H
	call	ccmalloc_
	mov	QWORD PTR type$[rsp], rax
; Line 35
	mov	rax, QWORD PTR type$[rsp]
	mov	ecx, DWORD PTR k$[rsp]
	mov	DWORD PTR [rax], ecx
; Line 36
	mov	rax, QWORD PTR type$[rsp]
	mov	rcx, QWORD PTR type$[rsp]
	mov	QWORD PTR [rax+24], rcx
; Line 38
	mov	rax, QWORD PTR type$[rsp]
; Line 39
	add	rsp, 56					; 00000038H
	ret	0
gen_type ENDP
_TEXT	ENDS
; Function compile flags: /Odtp
_TEXT	SEGMENT
args$ = 48
c$ = 56
cc_cs$ = 64
cc_ce$ = 72
c_cs$ = 80
c_ce$ = 88
tv91 = 96
$T1 = 104
ret$ = 128
$T2 = 152
exec$ = 208
emit$ = 216
ccexec_translation_unit PROC
; File W:\cpp\void\ktt-c\ccexec.c
; Line 423
	mov	QWORD PTR [rsp+16], rdx
	mov	QWORD PTR [rsp+8], rcx
	push	rsi
	push	rdi
	sub	rsp, 184				; 000000b8H
; Line 424
	mov	rax, QWORD PTR exec$[rsp]
	mov	rcx, QWORD PTR emit$[rsp]
	mov	QWORD PTR [rax], rcx
; Line 426
	mov	QWORD PTR args$[rsp], 0
; Line 427
	lea	r8, OFFSET FLAT:$SG49939
	mov	edx, 22
	lea	rcx, QWORD PTR $T2[rsp]
	call	ccexec_rvalue
	lea	rcx, QWORD PTR $T1[rsp]
	mov	rdi, rcx
	mov	rsi, rax
	mov	ecx, 24
	rep movsb
	mov	r9d, 1
	mov	r8d, 1
	mov	edx, 24
	lea	rcx, QWORD PTR args$[rsp]
	call	ccdlb_arradd
	mov	eax, eax
	imul	rax, rax, 24
	mov	rcx, QWORD PTR args$[rsp]
	lea	rdx, QWORD PTR $T1[rsp]
	lea	rdi, QWORD PTR [rcx+rax]
	mov	rsi, rdx
	mov	ecx, 24
	rep movsb
; Line 429
	call	ccclocktick
	mov	QWORD PTR cc_cs$[rsp], rax
; Line 432
	mov	r9, QWORD PTR args$[rsp]
	lea	r8, QWORD PTR ret$[rsp]
	mov	rax, QWORD PTR emit$[rsp]
	mov	rdx, QWORD PTR [rax+16]
	mov	rcx, QWORD PTR exec$[rsp]
	call	ccexec_invoke
; Line 434
	call	ccclocktick
	mov	QWORD PTR cc_ce$[rsp], rax
; Line 436
	call	ccclocktick
	mov	QWORD PTR c_cs$[rsp], rax
; Line 437
	mov	rax, QWORD PTR args$[rsp]
	mov	ecx, DWORD PTR [rax+16]
	call	fib
	mov	DWORD PTR c$[rsp], eax
; Line 438
	call	ccclocktick
	mov	QWORD PTR c_ce$[rsp], rax
; Line 440
	mov	rax, QWORD PTR cc_cs$[rsp]
	mov	rcx, QWORD PTR cc_ce$[rsp]
	sub	rcx, rax
	mov	rax, rcx
	mov	rcx, rax
	call	ccclocksecs
	movsd	QWORD PTR tv91[rsp], xmm0
	mov	rax, QWORD PTR c_cs$[rsp]
	mov	rcx, QWORD PTR c_ce$[rsp]
	sub	rcx, rax
	mov	rax, rcx
	mov	rcx, rax
	call	ccclocksecs
	movsd	xmm1, QWORD PTR tv91[rsp]
	movsd	QWORD PTR [rsp+32], xmm1
	mov	r9d, DWORD PTR ret$[rsp+16]
	movaps	xmm2, xmm0
	movq	r8, xmm2
	mov	edx, DWORD PTR c$[rsp]
	lea	rcx, OFFSET FLAT:$SG49940
	call	printf
; Line 442
	mov	eax, 1
; Line 443
	add	rsp, 184				; 000000b8H
	pop	rdi
	pop	rsi
	ret	0
ccexec_translation_unit ENDP
_TEXT	ENDS
; Function compile flags: /Odtp
_TEXT	SEGMENT
r$1 = 32
l$2 = 36
x$ = 64
fib	PROC
; File W:\cpp\void\ktt-c\ccexec.c
; Line 413
$LN4:
	mov	DWORD PTR [rsp+8], ecx
	sub	rsp, 56					; 00000038H
	cmp	DWORD PTR x$[rsp], 2
	jl	SHORT $LN2@fib
; Line 414
	mov	eax, DWORD PTR x$[rsp]
	sub	eax, 2
	mov	ecx, eax
	call	fib
	mov	DWORD PTR l$2[rsp], eax
; Line 415
	mov	eax, DWORD PTR x$[rsp]
	dec	eax
	mov	ecx, eax
	call	fib
	mov	DWORD PTR r$1[rsp], eax
; Line 416
	mov	eax, DWORD PTR r$1[rsp]
	mov	ecx, DWORD PTR l$2[rsp]
	add	ecx, eax
	mov	eax, ecx
	jmp	SHORT $LN1@fib
$LN2@fib:
; Line 418
	mov	eax, DWORD PTR x$[rsp]
$LN1@fib:
; Line 419
	add	rsp, 56					; 00000038H
	ret	0
fib	ENDP
_TEXT	ENDS
; Function compile flags: /Odtp
_TEXT	SEGMENT
exec$ = 48
ccexec_init PROC
; File W:\cpp\void\ktt-c\ccexec.c
; Line 407
	mov	QWORD PTR [rsp+8], rcx
	sub	rsp, 40					; 00000028H
	mov	r8d, 8
	xor	edx, edx
	mov	rcx, QWORD PTR exec$[rsp]
	call	memset
; Line 408
	mov	eax, 1
; Line 409
	add	rsp, 40					; 00000028H
	ret	0
ccexec_init ENDP
_TEXT	ENDS
; Function compile flags: /Odtp
_TEXT	SEGMENT
edict$ = 32
tv85 = 40
tv392 = 44
list$1 = 48
rval$2 = 56
memory$3 = 64
memory$4 = 72
saved$5 = 80
lvalue$6 = 88
rvalue$7 = 96
rvalue$8 = 104
tv428 = 112
saved$9 = 120
lvalue$10 = 128
saved$11 = 136
saved$12 = 144
saved$13 = 152
ret$14 = 160
rval$15 = 168
rval$16 = 192
$T17 = 216
$T18 = 240
$T19 = 264
lval$20 = 288
rval$21 = 312
$T22 = 336
$T23 = 360
$T24 = 384
lval$25 = 408
$T26 = 432
$T27 = 456
$T28 = 480
lval$29 = 504
$T30 = 528
rval$31 = 552
$T32 = 576
rval$33 = 600
$T34 = 624
$T35 = 648
rval$36 = 672
lval$37 = 696
$T38 = 720
$T39 = 752
$T40 = 784
$T41 = 808
$T42 = 832
$T43 = 856
rval$44 = 880
$T45 = 904
$T46 = 928
$T47 = 952
$T48 = 976
$T49 = 1000
$T50 = 1024
$T51 = 1048
$T52 = 1072
$T53 = 1096
$T54 = 1120
$T55 = 1144
$T56 = 1168
$T57 = 1192
$T58 = 1216
$T59 = 1240
$T60 = 1264
$T61 = 1288
$T62 = 1312
$T63 = 1336
exec$ = 1392
stack$ = 1400
value$ = 1408
ccexec_edict PROC
; File W:\cpp\void\ktt-c\ccexec.c
; Line 159
	mov	QWORD PTR [rsp+24], r8
	mov	QWORD PTR [rsp+16], rdx
	mov	QWORD PTR [rsp+8], rcx
	push	rsi
	push	rdi
	sub	rsp, 1368				; 00000558H
; Line 160
	mov	eax, OFFSET FLAT:_Init_thread_epoch
	mov	eax, eax
	mov	ecx, DWORD PTR _tls_index
	mov	rdx, QWORD PTR gs:88
	mov	rcx, QWORD PTR [rdx+rcx*8]
	mov	eax, DWORD PTR [rax+rcx]
	cmp	DWORD PTR ?$TSS0@?1??ccexec_edict@@9@4HA, eax
	jle	SHORT $LN2@ccexec_edi
	lea	rcx, OFFSET FLAT:?$TSS0@?1??ccexec_edict@@9@4HA
	call	_Init_thread_header
	cmp	DWORD PTR ?$TSS0@?1??ccexec_edict@@9@4HA, -1
	jne	SHORT $LN2@ccexec_edi
	lea	r8, OFFSET FLAT:$SG49835
	xor	edx, edx
	lea	rcx, QWORD PTR $T45[rsp]
	call	ccexec_rvalue
	lea	rcx, QWORD PTR $T17[rsp]
	mov	rdi, rcx
	mov	rsi, rax
	mov	ecx, 24
	rep movsb
	lea	rax, OFFSET FLAT:?zro@?1??ccexec_edict@@9@4Uccexec_value_t@@A
	lea	rcx, QWORD PTR $T17[rsp]
	mov	rdi, rax
	mov	rsi, rcx
	mov	ecx, 24
	rep movsb
	lea	rcx, OFFSET FLAT:?$TSS0@?1??ccexec_edict@@9@4HA
	call	_Init_thread_footer
$LN2@ccexec_edi:
; Line 162
	cmp	QWORD PTR stack$[rsp], 0
	jne	SHORT $LN32@ccexec_edi
	int	3
$LN32@ccexec_edi:
; Line 164
	cmp	QWORD PTR value$[rsp], 0
	jne	SHORT $LN34@ccexec_edi
	int	3
$LN34@ccexec_edi:
; Line 165
	mov	rax, QWORD PTR value$[rsp]
	cmp	DWORD PTR [rax], 5
	je	SHORT $LN36@ccexec_edi
	int	3
$LN36@ccexec_edi:
; Line 167
	mov	rax, QWORD PTR value$[rsp]
	mov	rax, QWORD PTR [rax+48]
	mov	QWORD PTR edict$[rsp], rax
; Line 169
	mov	rax, QWORD PTR edict$[rsp]
	mov	eax, DWORD PTR [rax]
	mov	DWORD PTR tv85[rsp], eax
	cmp	DWORD PTR tv85[rsp], 13
	ja	$LN30@ccexec_edi
	movsxd	rax, DWORD PTR tv85[rsp]
	lea	rcx, OFFSET FLAT:__ImageBase
	mov	eax, DWORD PTR $LN90@ccexec_edi[rcx+rax*4]
	add	rax, rcx
	jmp	rax
$LN8@ccexec_edi:
; Line 173
	mov	r8, QWORD PTR value$[rsp]
	mov	rdx, QWORD PTR stack$[rsp]
	lea	rcx, QWORD PTR $T46[rsp]
	call	ccstack_yield
	lea	rcx, QWORD PTR $T47[rsp]
	mov	rdi, rcx
	mov	rsi, rax
	mov	ecx, 24
	rep movsb
; Line 174
	jmp	$LN3@ccexec_edi
$LN9@ccexec_edi:
; Line 177
	mov	rdx, QWORD PTR value$[rsp]
	mov	rcx, QWORD PTR stack$[rsp]
	call	ccstack_local_alloc
; Line 178
	jmp	$LN3@ccexec_edi
$LN10@ccexec_edi:
; Line 181
	mov	rax, QWORD PTR edict$[rsp]
	mov	rax, QWORD PTR [rax+32]
	mov	QWORD PTR lvalue$6[rsp], rax
; Line 182
	mov	rax, QWORD PTR edict$[rsp]
	mov	rax, QWORD PTR [rax+40]
	mov	QWORD PTR rvalue$7[rsp], rax
; Line 184
	cmp	QWORD PTR lvalue$6[rsp], 0
	jne	SHORT $LN38@ccexec_edi
	int	3
$LN38@ccexec_edi:
; Line 185
	cmp	QWORD PTR rvalue$7[rsp], 0
	jne	SHORT $LN40@ccexec_edi
	int	3
$LN40@ccexec_edi:
; Line 188
	mov	r8, QWORD PTR lvalue$6[rsp]
	mov	rdx, QWORD PTR stack$[rsp]
	lea	rcx, QWORD PTR $T48[rsp]
	call	ccstack_yield_lvalue
	lea	rcx, QWORD PTR $T18[rsp]
	mov	rdi, rcx
	mov	rsi, rax
	mov	ecx, 24
	rep movsb
	lea	rax, QWORD PTR lval$20[rsp]
	lea	rcx, QWORD PTR $T18[rsp]
	mov	rdi, rax
	mov	rsi, rcx
	mov	ecx, 24
	rep movsb
; Line 189
	mov	r8, QWORD PTR rvalue$7[rsp]
	mov	rdx, QWORD PTR stack$[rsp]
	lea	rcx, QWORD PTR $T49[rsp]
	call	ccstack_yield_rvalue
	lea	rcx, QWORD PTR $T19[rsp]
	mov	rdi, rcx
	mov	rsi, rax
	mov	ecx, 24
	rep movsb
	lea	rax, QWORD PTR rval$21[rsp]
	lea	rcx, QWORD PTR $T19[rsp]
	mov	rdi, rax
	mov	rsi, rcx
	mov	ecx, 24
	rep movsb
; Line 191
	mov	rax, QWORD PTR lval$20[rsp+16]
	mov	QWORD PTR memory$3[rsp], rax
; Line 192
	mov	rax, QWORD PTR memory$3[rsp]
	mov	rcx, QWORD PTR rval$21[rsp+16]
	lea	rax, QWORD PTR [rax+rcx*8]
	mov	QWORD PTR memory$3[rsp], rax
; Line 194
	mov	rdx, QWORD PTR value$[rsp]
	mov	rcx, QWORD PTR stack$[rsp]
	call	ccstack_mingle
	mov	QWORD PTR saved$9[rsp], rax
; Line 195
	lea	r8, OFFSET FLAT:$SG49839
	mov	rdx, QWORD PTR memory$3[rsp]
	lea	rcx, QWORD PTR $T50[rsp]
	call	ccexec_lvalue
	lea	rcx, QWORD PTR $T22[rsp]
	mov	rdi, rcx
	mov	rsi, rax
	mov	ecx, 24
	rep movsb
	lea	rax, QWORD PTR $T22[rsp]
	mov	rdi, QWORD PTR saved$9[rsp]
	mov	rsi, rax
	mov	ecx, 24
	rep movsb
; Line 196
	jmp	$LN3@ccexec_edi
$LN11@ccexec_edi:
; Line 200
	mov	rax, QWORD PTR edict$[rsp]
	mov	rax, QWORD PTR [rax+64]
	mov	QWORD PTR lvalue$10[rsp], rax
; Line 201
	mov	rax, QWORD PTR edict$[rsp]
	mov	rax, QWORD PTR [rax+72]
	mov	QWORD PTR rvalue$8[rsp], rax
; Line 204
	mov	r8, QWORD PTR lvalue$10[rsp]
	mov	rdx, QWORD PTR stack$[rsp]
	lea	rcx, QWORD PTR $T51[rsp]
	call	ccstack_yield_lvalue
	lea	rcx, QWORD PTR $T23[rsp]
	mov	rdi, rcx
	mov	rsi, rax
	mov	ecx, 24
	rep movsb
	lea	rax, QWORD PTR lval$25[rsp]
	lea	rcx, QWORD PTR $T23[rsp]
	mov	rdi, rax
	mov	rsi, rcx
	mov	ecx, 24
	rep movsb
; Line 206
	cmp	QWORD PTR rvalue$8[rsp], 0
	je	SHORT $LN12@ccexec_edi
; Line 207
	mov	r8, QWORD PTR rvalue$8[rsp]
	mov	rdx, QWORD PTR stack$[rsp]
	lea	rcx, QWORD PTR $T52[rsp]
	call	ccstack_yield_rvalue
	lea	rcx, QWORD PTR $T24[rsp]
	mov	rdi, rcx
	mov	rsi, rax
	mov	ecx, 24
	rep movsb
	lea	rax, QWORD PTR rval$16[rsp]
	lea	rcx, QWORD PTR $T24[rsp]
	mov	rdi, rax
	mov	rsi, rcx
	mov	ecx, 24
	rep movsb
	jmp	SHORT $LN13@ccexec_edi
$LN12@ccexec_edi:
; Line 209
	lea	rax, QWORD PTR rval$16[rsp]
	lea	rcx, OFFSET FLAT:?zro@?1??ccexec_edict@@9@4Uccexec_value_t@@A
	mov	rdi, rax
	mov	rsi, rcx
	mov	ecx, 24
	rep movsb
$LN13@ccexec_edi:
; Line 211
	mov	rax, QWORD PTR lval$25[rsp+16]
	mov	QWORD PTR memory$4[rsp], rax
; Line 212
	mov	rax, QWORD PTR memory$4[rsp]
	mov	rcx, QWORD PTR rval$16[rsp+16]
	lea	rax, QWORD PTR [rax+rcx*8]
	mov	QWORD PTR memory$4[rsp], rax
; Line 214
	mov	rdx, QWORD PTR value$[rsp]
	mov	rcx, QWORD PTR stack$[rsp]
	call	ccstack_mingle
	mov	QWORD PTR saved$11[rsp], rax
; Line 215
	lea	r8, OFFSET FLAT:$SG49843
	mov	rax, QWORD PTR memory$4[rsp]
	mov	rdx, QWORD PTR [rax]
	lea	rcx, QWORD PTR $T53[rsp]
	call	ccexec_rvalue
	lea	rcx, QWORD PTR $T26[rsp]
	mov	rdi, rcx
	mov	rsi, rax
	mov	ecx, 24
	rep movsb
	lea	rax, QWORD PTR $T26[rsp]
	mov	rdi, QWORD PTR saved$11[rsp]
	mov	rsi, rax
	mov	ecx, 24
	rep movsb
; Line 216
	jmp	$LN3@ccexec_edi
$LN14@ccexec_edi:
; Line 220
	mov	rax, QWORD PTR edict$[rsp]
	cmp	QWORD PTR [rax+48], 0
	jne	SHORT $LN42@ccexec_edi
	int	3
$LN42@ccexec_edi:
	mov	rax, QWORD PTR edict$[rsp]
	mov	r8, QWORD PTR [rax+48]
	mov	rdx, QWORD PTR stack$[rsp]
	lea	rcx, QWORD PTR $T54[rsp]
	call	ccstack_yield_lvalue
	lea	rcx, QWORD PTR $T27[rsp]
	mov	rdi, rcx
	mov	rsi, rax
	mov	ecx, 24
	rep movsb
	lea	rax, QWORD PTR lval$29[rsp]
	lea	rcx, QWORD PTR $T27[rsp]
	mov	rdi, rax
	mov	rsi, rcx
	mov	ecx, 24
	rep movsb
; Line 221
	mov	rax, QWORD PTR edict$[rsp]
	cmp	QWORD PTR [rax+56], 0
	jne	SHORT $LN44@ccexec_edi
	int	3
$LN44@ccexec_edi:
	mov	rax, QWORD PTR edict$[rsp]
	mov	r8, QWORD PTR [rax+56]
	mov	rdx, QWORD PTR stack$[rsp]
	lea	rcx, QWORD PTR $T55[rsp]
	call	ccstack_yield_rvalue
	lea	rcx, QWORD PTR $T28[rsp]
	mov	rdi, rcx
	mov	rsi, rax
	mov	ecx, 24
	rep movsb
	lea	rax, QWORD PTR rval$15[rsp]
	lea	rcx, QWORD PTR $T28[rsp]
	mov	rdi, rax
	mov	rsi, rcx
	mov	ecx, 24
	rep movsb
; Line 224
	mov	rax, QWORD PTR lval$29[rsp+16]
	mov	rcx, QWORD PTR rval$15[rsp+16]
	mov	QWORD PTR [rax], rcx
; Line 226
	mov	rdx, QWORD PTR value$[rsp]
	mov	rcx, QWORD PTR stack$[rsp]
	call	ccstack_mingle
	mov	QWORD PTR saved$5[rsp], rax
; Line 227
	mov	rax, QWORD PTR saved$5[rsp]
	mov	DWORD PTR [rax+8], 1
; Line 228
	mov	rax, QWORD PTR saved$5[rsp]
	mov	rcx, QWORD PTR rval$15[rsp+16]
	mov	QWORD PTR [rax+16], rcx
; Line 229
	mov	rax, QWORD PTR saved$5[rsp]
	mov	rcx, QWORD PTR rval$15[rsp]
	mov	QWORD PTR [rax], rcx
; Line 230
	jmp	$LN3@ccexec_edi
$LN15@ccexec_edi:
; Line 234
	mov	rax, QWORD PTR edict$[rsp]
	cmp	QWORD PTR [rax+104], 0
	jne	SHORT $LN46@ccexec_edi
	int	3
$LN46@ccexec_edi:
; Line 235
	mov	rax, QWORD PTR edict$[rsp]
	cmp	DWORD PTR [rax+112], 0
	jne	SHORT $LN48@ccexec_edi
	int	3
$LN48@ccexec_edi:
; Line 236
	mov	rax, QWORD PTR edict$[rsp]
	cmp	DWORD PTR [rax+112], 0
	jne	SHORT $LN50@ccexec_edi
	int	3
$LN50@ccexec_edi:
; Line 238
	mov	rax, QWORD PTR stack$[rsp]
	mov	rcx, QWORD PTR edict$[rsp]
	mov	rcx, QWORD PTR [rcx+104]
	mov	QWORD PTR [rax+8], rcx
; Line 239
	mov	rax, QWORD PTR stack$[rsp]
	mov	rcx, QWORD PTR edict$[rsp]
	mov	ecx, DWORD PTR [rcx+112]
	mov	DWORD PTR [rax+16], ecx
; Line 240
	jmp	$LN3@ccexec_edi
$LN16@ccexec_edi:
; Line 244
	mov	rax, QWORD PTR edict$[rsp]
	cmp	QWORD PTR [rax+104], 0
	jne	SHORT $LN52@ccexec_edi
	int	3
$LN52@ccexec_edi:
; Line 245
	mov	rax, QWORD PTR edict$[rsp]
	cmp	DWORD PTR [rax+112], 0
	jne	SHORT $LN54@ccexec_edi
	int	3
$LN54@ccexec_edi:
; Line 246
	mov	rax, QWORD PTR edict$[rsp]
	cmp	QWORD PTR [rax+120], 0
	jne	SHORT $LN56@ccexec_edi
	int	3
$LN56@ccexec_edi:
; Line 249
	mov	rax, QWORD PTR edict$[rsp]
	cmp	QWORD PTR [rax+120], 0
	jne	SHORT $LN58@ccexec_edi
	int	3
$LN58@ccexec_edi:
	mov	rax, QWORD PTR edict$[rsp]
	mov	r8, QWORD PTR [rax+120]
	mov	rdx, QWORD PTR stack$[rsp]
	lea	rcx, QWORD PTR $T56[rsp]
	call	ccstack_yield_rvalue
	lea	rcx, QWORD PTR $T30[rsp]
	mov	rdi, rcx
	mov	rsi, rax
	mov	ecx, 24
	rep movsb
	lea	rax, QWORD PTR rval$31[rsp]
	lea	rcx, QWORD PTR $T30[rsp]
	mov	rdi, rax
	mov	rsi, rcx
	mov	ecx, 24
	rep movsb
; Line 250
	cmp	DWORD PTR rval$31[rsp+16], 0
	jne	SHORT $LN17@ccexec_edi
; Line 251
	mov	rax, QWORD PTR stack$[rsp]
	mov	rcx, QWORD PTR edict$[rsp]
	mov	rcx, QWORD PTR [rcx+104]
	mov	QWORD PTR [rax+8], rcx
; Line 252
	mov	rax, QWORD PTR stack$[rsp]
	mov	rcx, QWORD PTR edict$[rsp]
	mov	ecx, DWORD PTR [rcx+112]
	mov	DWORD PTR [rax+16], ecx
$LN17@ccexec_edi:
; Line 254
	jmp	$LN3@ccexec_edi
$LN18@ccexec_edi:
; Line 258
	mov	rax, QWORD PTR edict$[rsp]
	cmp	QWORD PTR [rax+104], 0
	jne	SHORT $LN60@ccexec_edi
	int	3
$LN60@ccexec_edi:
; Line 259
	mov	rax, QWORD PTR edict$[rsp]
	cmp	DWORD PTR [rax+112], 0
	jne	SHORT $LN62@ccexec_edi
	int	3
$LN62@ccexec_edi:
; Line 260
	mov	rax, QWORD PTR edict$[rsp]
	cmp	QWORD PTR [rax+120], 0
	jne	SHORT $LN64@ccexec_edi
	int	3
$LN64@ccexec_edi:
; Line 263
	mov	rax, QWORD PTR edict$[rsp]
	cmp	QWORD PTR [rax+120], 0
	jne	SHORT $LN66@ccexec_edi
	int	3
$LN66@ccexec_edi:
	mov	rax, QWORD PTR edict$[rsp]
	mov	r8, QWORD PTR [rax+120]
	mov	rdx, QWORD PTR stack$[rsp]
	lea	rcx, QWORD PTR $T57[rsp]
	call	ccstack_yield_rvalue
	lea	rcx, QWORD PTR $T32[rsp]
	mov	rdi, rcx
	mov	rsi, rax
	mov	ecx, 24
	rep movsb
	lea	rax, QWORD PTR rval$33[rsp]
	lea	rcx, QWORD PTR $T32[rsp]
	mov	rdi, rax
	mov	rsi, rcx
	mov	ecx, 24
	rep movsb
; Line 264
	cmp	DWORD PTR rval$33[rsp+16], 0
	je	SHORT $LN19@ccexec_edi
; Line 265
	mov	rax, QWORD PTR stack$[rsp]
	mov	rcx, QWORD PTR edict$[rsp]
	mov	rcx, QWORD PTR [rcx+104]
	mov	QWORD PTR [rax+8], rcx
; Line 266
	mov	rax, QWORD PTR stack$[rsp]
	mov	rcx, QWORD PTR edict$[rsp]
	mov	ecx, DWORD PTR [rcx+112]
	mov	DWORD PTR [rax+16], ecx
$LN19@ccexec_edi:
; Line 268
	jmp	$LN3@ccexec_edi
$LN20@ccexec_edi:
; Line 272
	mov	rax, QWORD PTR edict$[rsp]
	cmp	DWORD PTR [rax+160], 0
	jne	SHORT $LN68@ccexec_edi
	int	3
$LN68@ccexec_edi:
; Line 273
	mov	rax, QWORD PTR edict$[rsp]
	cmp	QWORD PTR [rax+168], 0
	jne	SHORT $LN70@ccexec_edi
	int	3
$LN70@ccexec_edi:
; Line 274
	mov	rax, QWORD PTR edict$[rsp]
	cmp	QWORD PTR [rax+176], 0
	jne	SHORT $LN72@ccexec_edi
	int	3
$LN72@ccexec_edi:
; Line 277
	mov	rax, QWORD PTR edict$[rsp]
	mov	r8, QWORD PTR [rax+168]
	mov	rdx, QWORD PTR stack$[rsp]
	lea	rcx, QWORD PTR $T58[rsp]
	call	ccstack_yield_rvalue
	lea	rcx, QWORD PTR $T34[rsp]
	mov	rdi, rcx
	mov	rsi, rax
	mov	ecx, 24
	rep movsb
	lea	rax, QWORD PTR lval$37[rsp]
	lea	rcx, QWORD PTR $T34[rsp]
	mov	rdi, rax
	mov	rsi, rcx
	mov	ecx, 24
	rep movsb
; Line 278
	mov	rax, QWORD PTR edict$[rsp]
	mov	r8, QWORD PTR [rax+176]
	mov	rdx, QWORD PTR stack$[rsp]
	lea	rcx, QWORD PTR $T59[rsp]
	call	ccstack_yield_rvalue
	lea	rcx, QWORD PTR $T35[rsp]
	mov	rdi, rcx
	mov	rsi, rax
	mov	ecx, 24
	rep movsb
	lea	rax, QWORD PTR rval$36[rsp]
	lea	rcx, QWORD PTR $T35[rsp]
	mov	rdi, rax
	mov	rsi, rcx
	mov	ecx, 24
	rep movsb
; Line 280
	mov	rdx, QWORD PTR value$[rsp]
	mov	rcx, QWORD PTR stack$[rsp]
	call	ccstack_mingle
	mov	QWORD PTR saved$12[rsp], rax
; Line 281
	lea	rax, QWORD PTR $T38[rsp]
	lea	rcx, QWORD PTR rval$36[rsp]
	mov	rdi, rax
	mov	rsi, rcx
	mov	ecx, 24
	rep movsb
	lea	rax, QWORD PTR $T39[rsp]
	lea	rcx, QWORD PTR lval$37[rsp]
	mov	rdi, rax
	mov	rsi, rcx
	mov	ecx, 24
	rep movsb
	lea	r9, QWORD PTR $T38[rsp]
	lea	r8, QWORD PTR $T39[rsp]
	mov	rax, QWORD PTR edict$[rsp]
	mov	edx, DWORD PTR [rax+160]
	lea	rcx, QWORD PTR $T60[rsp]
	call	ccexec_edict_arith
	lea	rcx, QWORD PTR $T40[rsp]
	mov	rdi, rcx
	mov	rsi, rax
	mov	ecx, 24
	rep movsb
	lea	rax, QWORD PTR $T40[rsp]
	mov	rdi, QWORD PTR saved$12[rsp]
	mov	rsi, rax
	mov	ecx, 24
	rep movsb
; Line 282
	jmp	$LN3@ccexec_edi
$LN21@ccexec_edi:
; Line 286
	mov	rdx, QWORD PTR value$[rsp]
	mov	rcx, QWORD PTR stack$[rsp]
	call	ccstack_mingle
	mov	QWORD PTR saved$13[rsp], rax
; Line 287
	mov	rax, QWORD PTR edict$[rsp]
	mov	r8, QWORD PTR [rax+96]
	mov	rdx, QWORD PTR stack$[rsp]
	lea	rcx, QWORD PTR $T61[rsp]
	call	ccstack_yield_rvalue
	lea	rcx, QWORD PTR $T41[rsp]
	mov	rdi, rcx
	mov	rsi, rax
	mov	ecx, 24
	rep movsb
	lea	rax, QWORD PTR $T41[rsp]
	mov	rdi, QWORD PTR saved$13[rsp]
	mov	rsi, rax
	mov	ecx, 24
	rep movsb
; Line 288
	xor	eax, eax
	jmp	$LN1@ccexec_edi
$LN22@ccexec_edi:
; Line 293
	mov	rax, QWORD PTR edict$[rsp]
	cmp	QWORD PTR [rax+80], 0
	jne	SHORT $LN74@ccexec_edi
	int	3
$LN74@ccexec_edi:
; Line 296
	mov	QWORD PTR rval$2[rsp], 0
; Line 297
	mov	QWORD PTR list$1[rsp], 0
; Line 298
	mov	rax, QWORD PTR edict$[rsp]
	mov	rax, QWORD PTR [rax+88]
	mov	QWORD PTR list$1[rsp], rax
	jmp	SHORT $LN7@ccexec_edi
$LN5@ccexec_edi:
	mov	rax, QWORD PTR list$1[rsp]
	add	rax, 8
	mov	QWORD PTR list$1[rsp], rax
$LN7@ccexec_edi:
	mov	rax, QWORD PTR edict$[rsp]
	cmp	QWORD PTR [rax+88], 0
	je	SHORT $LN76@ccexec_edi
	mov	eax, 4
	imul	rax, rax, -1
	mov	rcx, QWORD PTR edict$[rsp]
	mov	rcx, QWORD PTR [rcx+88]
	mov	eax, DWORD PTR [rax+rcx]
	mov	DWORD PTR tv392[rsp], eax
	jmp	SHORT $LN77@ccexec_edi
$LN76@ccexec_edi:
	mov	DWORD PTR tv392[rsp], 0
$LN77@ccexec_edi:
	mov	eax, DWORD PTR tv392[rsp]
	xor	edx, edx
	mov	ecx, 8
	div	rcx
	mov	rcx, QWORD PTR edict$[rsp]
	mov	rcx, QWORD PTR [rcx+88]
	lea	rax, QWORD PTR [rcx+rax*8]
	cmp	QWORD PTR list$1[rsp], rax
	jae	SHORT $LN6@ccexec_edi
; Line 299
	mov	rax, QWORD PTR list$1[rsp]
	mov	r8, QWORD PTR [rax]
	mov	rdx, QWORD PTR stack$[rsp]
	lea	rcx, QWORD PTR $T62[rsp]
	call	ccstack_yield_rvalue
	lea	rcx, QWORD PTR $T42[rsp]
	mov	rdi, rcx
	mov	rsi, rax
	mov	ecx, 24
	rep movsb
	mov	r9d, 1
	mov	r8d, 1
	mov	edx, 24
	lea	rcx, QWORD PTR rval$2[rsp]
	call	ccdlb_arradd
	mov	eax, eax
	imul	rax, rax, 24
	mov	rcx, QWORD PTR rval$2[rsp]
	lea	rdx, QWORD PTR $T42[rsp]
	lea	rdi, QWORD PTR [rcx+rax]
	mov	rsi, rdx
	mov	ecx, 24
	rep movsb
	jmp	$LN5@ccexec_edi
$LN6@ccexec_edi:
; Line 302
	mov	rdx, QWORD PTR value$[rsp]
	mov	rcx, QWORD PTR stack$[rsp]
	call	ccstack_mingle
	mov	QWORD PTR ret$14[rsp], rax
; Line 303
	mov	r9, QWORD PTR rval$2[rsp]
	mov	r8, QWORD PTR ret$14[rsp]
	mov	rax, QWORD PTR edict$[rsp]
	mov	rdx, QWORD PTR [rax+80]
	mov	rcx, QWORD PTR exec$[rsp]
	call	ccexec_invoke
	test	eax, eax
	jne	SHORT $LN23@ccexec_edi
; Line 305
	lea	rax, OFFSET FLAT:$SG49854
	test	rax, rax
	je	SHORT $LN78@ccexec_edi
	int	3
$LN78@ccexec_edi:
$LN23@ccexec_edi:
; Line 308
	cmp	QWORD PTR rval$2[rsp], 0
	je	SHORT $LN80@ccexec_edi
	mov	rax, QWORD PTR rval$2[rsp]
	sub	rax, 24
	mov	QWORD PTR tv428[rsp], rax
	jmp	SHORT $LN81@ccexec_edi
$LN80@ccexec_edi:
	mov	QWORD PTR tv428[rsp], 0
$LN81@ccexec_edi:
	mov	r9d, 308				; 00000134H
	lea	r8, OFFSET FLAT:$SG49855
	lea	rdx, OFFSET FLAT:$SG49856
	mov	rcx, QWORD PTR tv428[rsp]
	call	ccfree_
; Line 309
	jmp	$LN3@ccexec_edi
$LN24@ccexec_edi:
; Line 315
	mov	rax, QWORD PTR edict$[rsp]
	cmp	QWORD PTR [rax+128], 0
	jne	SHORT $LN82@ccexec_edi
	int	3
$LN82@ccexec_edi:
; Line 317
	mov	rax, QWORD PTR edict$[rsp]
	mov	rdx, QWORD PTR [rax+128]
	mov	rcx, QWORD PTR stack$[rsp]
	call	ccexec_enter
; Line 318
	jmp	$LN3@ccexec_edi
$LN25@ccexec_edi:
; Line 320
	lea	rax, OFFSET FLAT:$SG49859
	test	rax, rax
	je	SHORT $LN84@ccexec_edi
	int	3
$LN84@ccexec_edi:
; Line 323
	mov	rax, QWORD PTR edict$[rsp]
	cmp	QWORD PTR [rax+136], 0
	jne	SHORT $LN86@ccexec_edi
	int	3
$LN86@ccexec_edi:
	mov	rax, QWORD PTR edict$[rsp]
	mov	r8, QWORD PTR [rax+136]
	mov	rdx, QWORD PTR stack$[rsp]
	lea	rcx, QWORD PTR $T63[rsp]
	call	ccstack_yield_rvalue
	lea	rcx, QWORD PTR $T43[rsp]
	mov	rdi, rcx
	mov	rsi, rax
	mov	ecx, 24
	rep movsb
	lea	rax, QWORD PTR rval$44[rsp]
	lea	rcx, QWORD PTR $T43[rsp]
	mov	rdi, rax
	mov	rsi, rcx
	mov	ecx, 24
	rep movsb
; Line 326
	cmp	DWORD PTR rval$44[rsp+16], 0
	je	SHORT $LN26@ccexec_edi
; Line 327
	mov	rax, QWORD PTR edict$[rsp]
	cmp	QWORD PTR [rax+144], 0
	je	SHORT $LN28@ccexec_edi
	mov	rax, QWORD PTR edict$[rsp]
	mov	rdx, QWORD PTR [rax+144]
	mov	rcx, QWORD PTR stack$[rsp]
	call	ccexec_enter
$LN28@ccexec_edi:
; Line 328
	jmp	SHORT $LN27@ccexec_edi
$LN26@ccexec_edi:
; Line 330
	mov	rax, QWORD PTR edict$[rsp]
	cmp	QWORD PTR [rax+152], 0
	je	SHORT $LN29@ccexec_edi
	mov	rax, QWORD PTR edict$[rsp]
	mov	rdx, QWORD PTR [rax+152]
	mov	rcx, QWORD PTR stack$[rsp]
	call	ccexec_enter
$LN29@ccexec_edi:
$LN27@ccexec_edi:
; Line 332
	jmp	SHORT $LN3@ccexec_edi
$LN30@ccexec_edi:
; Line 333
	lea	rax, OFFSET FLAT:$SG49865
	test	rax, rax
	je	SHORT $LN88@ccexec_edi
	int	3
$LN88@ccexec_edi:
$LN3@ccexec_edi:
; Line 335
	mov	eax, 1
$LN1@ccexec_edi:
; Line 336
	add	rsp, 1368				; 00000558H
	pop	rdi
	pop	rsi
	ret	0
	npad	2
$LN90@ccexec_edi:
	DD	$LN9@ccexec_edi
	DD	$LN8@ccexec_edi
	DD	$LN10@ccexec_edi
	DD	$LN14@ccexec_edi
	DD	$LN11@ccexec_edi
	DD	$LN20@ccexec_edi
	DD	$LN15@ccexec_edi
	DD	$LN18@ccexec_edi
	DD	$LN16@ccexec_edi
	DD	$LN30@ccexec_edi
	DD	$LN25@ccexec_edi
	DD	$LN24@ccexec_edi
	DD	$LN22@ccexec_edi
	DD	$LN21@ccexec_edi
ccexec_edict ENDP
_TEXT	ENDS
; Function compile flags: /Odtp
_TEXT	SEGMENT
type$ = 32
tv75 = 40
tv81 = 44
tv93 = 48
tv150 = 52
lval$ = 56
int_value$1 = 64
it$2 = 72
stack$ = 80
tv177 = 112
tv77 = 120
local$3 = 128
rval$4 = 136
tv144 = 144
edict$5 = 152
$T6 = 160
$T7 = 184
_e$ = 240
_p$ = 248
_r$ = 256
_i$ = 264
ccexec_invoke PROC
; File W:\cpp\void\ktt-c\ccexec.c
; Line 363
	mov	QWORD PTR [rsp+32], r9
	mov	QWORD PTR [rsp+24], r8
	mov	QWORD PTR [rsp+16], rdx
	mov	QWORD PTR [rsp+8], rcx
	push	rsi
	push	rdi
	sub	rsp, 216				; 000000d8H
; Line 365
	lea	rax, QWORD PTR stack$[rsp]
	mov	rdi, rax
	xor	eax, eax
	mov	ecx, 32					; 00000020H
	rep stosb
; Line 367
	mov	rax, QWORD PTR _p$[rsp]
	mov	rax, QWORD PTR [rax+8]
	mov	rax, QWORD PTR [rax+48]
	mov	QWORD PTR type$[rsp], rax
; Line 369
	mov	rax, QWORD PTR type$[rsp]
	cmp	QWORD PTR [rax+32], 0
	je	SHORT $LN10@ccexec_inv
	mov	eax, 4
	imul	rax, rax, -1
	mov	rcx, QWORD PTR type$[rsp]
	mov	rcx, QWORD PTR [rcx+32]
	mov	eax, DWORD PTR [rax+rcx]
	mov	DWORD PTR tv75[rsp], eax
	jmp	SHORT $LN11@ccexec_inv
$LN10@ccexec_inv:
	mov	DWORD PTR tv75[rsp], 0
$LN11@ccexec_inv:
	cmp	QWORD PTR _i$[rsp], 0
	je	SHORT $LN12@ccexec_inv
	mov	eax, 4
	imul	rax, rax, -1
	mov	rcx, QWORD PTR _i$[rsp]
	mov	eax, DWORD PTR [rcx+rax]
	mov	DWORD PTR tv81[rsp], eax
	jmp	SHORT $LN13@ccexec_inv
$LN12@ccexec_inv:
	mov	DWORD PTR tv81[rsp], 0
$LN13@ccexec_inv:
	mov	eax, DWORD PTR tv75[rsp]
	xor	edx, edx
	mov	ecx, 8
	div	rcx
	mov	QWORD PTR tv77[rsp], rax
	mov	ecx, DWORD PTR tv81[rsp]
	xor	edx, edx
	mov	eax, ecx
	mov	ecx, 24
	div	rcx
	mov	rcx, QWORD PTR tv77[rsp]
	cmp	rcx, rax
	je	SHORT $LN14@ccexec_inv
	int	3
$LN14@ccexec_inv:
; Line 372
	mov	rax, QWORD PTR type$[rsp]
	mov	rax, QWORD PTR [rax+32]
	mov	QWORD PTR lval$[rsp], rax
	jmp	SHORT $LN4@ccexec_inv
$LN2@ccexec_inv:
	mov	rax, QWORD PTR lval$[rsp]
	add	rax, 8
	mov	QWORD PTR lval$[rsp], rax
$LN4@ccexec_inv:
	mov	rax, QWORD PTR type$[rsp]
	cmp	QWORD PTR [rax+32], 0
	je	SHORT $LN16@ccexec_inv
	mov	eax, 4
	imul	rax, rax, -1
	mov	rcx, QWORD PTR type$[rsp]
	mov	rcx, QWORD PTR [rcx+32]
	mov	eax, DWORD PTR [rax+rcx]
	mov	DWORD PTR tv93[rsp], eax
	jmp	SHORT $LN17@ccexec_inv
$LN16@ccexec_inv:
	mov	DWORD PTR tv93[rsp], 0
$LN17@ccexec_inv:
	mov	eax, DWORD PTR tv93[rsp]
	xor	edx, edx
	mov	ecx, 8
	div	rcx
	mov	rcx, QWORD PTR type$[rsp]
	mov	rcx, QWORD PTR [rcx+32]
	lea	rax, QWORD PTR [rcx+rax*8]
	cmp	QWORD PTR lval$[rsp], rax
	jae	SHORT $LN3@ccexec_inv
; Line 374
	mov	rax, QWORD PTR lval$[rsp]
	mov	rdx, QWORD PTR [rax]
	mov	rcx, QWORD PTR _p$[rsp]
	call	ccprocd_local
	mov	QWORD PTR local$3[rsp], rax
; Line 375
	mov	rdx, QWORD PTR local$3[rsp]
	lea	rcx, QWORD PTR stack$[rsp]
	call	ccstack_local_alloc
	mov	QWORD PTR rval$4[rsp], rax
; Line 377
	mov	rax, QWORD PTR _i$[rsp]
	mov	eax, DWORD PTR [rax+16]
	mov	DWORD PTR int_value$1[rsp], eax
; Line 378
	mov	rax, QWORD PTR rval$4[rsp]
	mov	rax, QWORD PTR [rax+16]
	mov	ecx, DWORD PTR int_value$1[rsp]
	mov	DWORD PTR [rax], ecx
; Line 379
	mov	rax, QWORD PTR _i$[rsp]
	add	rax, 24
	mov	QWORD PTR _i$[rsp], rax
; Line 380
	jmp	$LN2@ccexec_inv
$LN3@ccexec_inv:
; Line 382
	mov	rax, QWORD PTR _p$[rsp]
	mov	rdx, QWORD PTR [rax+32]
	lea	rcx, QWORD PTR stack$[rsp]
	call	ccexec_enter
$LN5@ccexec_inv:
; Line 384
	mov	rax, QWORD PTR stack$[rsp+8]
	cmp	QWORD PTR [rax+8], 0
	je	SHORT $LN18@ccexec_inv
	mov	eax, 4
	imul	rax, rax, -1
	mov	rcx, QWORD PTR stack$[rsp+8]
	mov	rcx, QWORD PTR [rcx+8]
	mov	eax, DWORD PTR [rax+rcx]
	mov	DWORD PTR tv150[rsp], eax
	jmp	SHORT $LN19@ccexec_inv
$LN18@ccexec_inv:
	mov	DWORD PTR tv150[rsp], 0
$LN19@ccexec_inv:
	movsxd	rax, DWORD PTR stack$[rsp+16]
	mov	QWORD PTR tv144[rsp], rax
	mov	ecx, DWORD PTR tv150[rsp]
	xor	edx, edx
	mov	eax, ecx
	mov	ecx, 8
	div	rcx
	mov	rcx, QWORD PTR tv144[rsp]
	cmp	rcx, rax
	jae	$LN6@ccexec_inv
; Line 386
	movsxd	rax, DWORD PTR stack$[rsp+16]
	mov	rcx, QWORD PTR stack$[rsp+8]
	mov	rcx, QWORD PTR [rcx+8]
	lea	rax, QWORD PTR [rcx+rax*8]
	mov	QWORD PTR it$2[rsp], rax
; Line 387
	mov	eax, DWORD PTR stack$[rsp+16]
	inc	eax
	mov	DWORD PTR stack$[rsp+16], eax
; Line 389
	mov	rax, QWORD PTR it$2[rsp]
	mov	r8, QWORD PTR [rax]
	lea	rdx, QWORD PTR stack$[rsp]
	mov	rcx, QWORD PTR _e$[rsp]
	call	ccexec_edict
	test	eax, eax
	jne	SHORT $LN7@ccexec_inv
; Line 392
	mov	rax, QWORD PTR it$2[rsp]
	mov	rax, QWORD PTR [rax]
	mov	rax, QWORD PTR [rax+48]
	mov	QWORD PTR edict$5[rsp], rax
; Line 394
	mov	rax, QWORD PTR edict$5[rsp]
	cmp	DWORD PTR [rax], 13
	jne	SHORT $LN8@ccexec_inv
; Line 395
	mov	rax, QWORD PTR it$2[rsp]
	mov	r8, QWORD PTR [rax]
	lea	rdx, QWORD PTR stack$[rsp]
	lea	rcx, QWORD PTR $T7[rsp]
	call	ccstack_yield
	lea	rcx, QWORD PTR $T6[rsp]
	mov	rdi, rcx
	mov	rsi, rax
	mov	ecx, 24
	rep movsb
	lea	rax, QWORD PTR $T6[rsp]
	mov	rdi, QWORD PTR _r$[rsp]
	mov	rsi, rax
	mov	ecx, 24
	rep movsb
$LN8@ccexec_inv:
; Line 396
	mov	eax, 1
	jmp	SHORT $LN1@ccexec_inv
$LN7@ccexec_inv:
; Line 398
	jmp	$LN5@ccexec_inv
$LN6@ccexec_inv:
; Line 400
	cmp	QWORD PTR stack$[rsp+24], 0
	je	SHORT $LN20@ccexec_inv
	mov	rax, QWORD PTR stack$[rsp+24]
	sub	rax, 24
	mov	QWORD PTR tv177[rsp], rax
	jmp	SHORT $LN21@ccexec_inv
$LN20@ccexec_inv:
	mov	QWORD PTR tv177[rsp], 0
$LN21@ccexec_inv:
	mov	r9d, 400				; 00000190H
	lea	r8, OFFSET FLAT:$SG49913
	lea	rdx, OFFSET FLAT:$SG49914
	mov	rcx, QWORD PTR tv177[rsp]
	call	ccfree_
; Line 402
	xor	eax, eax
$LN1@ccexec_inv:
; Line 403
	add	rsp, 216				; 000000d8H
	pop	rdi
	pop	rsi
	ret	0
ccexec_invoke ENDP
_TEXT	ENDS
; Function compile flags: /Odtp
_TEXT	SEGMENT
tv64 = 32
tv70 = 40
tv79 = 48
tv88 = 56
tv129 = 64
$T1 = 72
$T2 = 96
$T3 = 120
$T4 = 144
$T5 = 168
$T6 = 192
$T7 = 216
$T8 = 240
$T9 = 264
$T10 = 288
$T11 = 312
$T12 = 336
$T13 = 360
$T14 = 384
$T15 = 408
$T16 = 432
$T17 = 456
$T18 = 480
__$ReturnAddress$ = 544
opr$ = 552
lval$ = 560
rval$ = 568
ccexec_edict_arith PROC
; File W:\cpp\void\ktt-c\ccexec.c
; Line 129
	mov	QWORD PTR [rsp+32], r9
	mov	QWORD PTR [rsp+24], r8
	mov	DWORD PTR [rsp+16], edx
	mov	QWORD PTR [rsp+8], rcx
	push	rsi
	push	rdi
	sub	rsp, 520				; 00000208H
; Line 130
	mov	eax, DWORD PTR opr$[rsp]
	mov	DWORD PTR tv64[rsp], eax
	mov	eax, DWORD PTR tv64[rsp]
	sub	eax, 92					; 0000005cH
	mov	DWORD PTR tv64[rsp], eax
	cmp	DWORD PTR tv64[rsp], 26
	ja	$LN12@ccexec_edi
	movsxd	rax, DWORD PTR tv64[rsp]
	lea	rcx, OFFSET FLAT:__ImageBase
	movzx	eax, BYTE PTR $LN24@ccexec_edi[rcx+rax]
	mov	eax, DWORD PTR $LN25@ccexec_edi[rcx+rax*4]
	add	rax, rcx
	jmp	rax
$LN4@ccexec_edi:
; Line 132
	mov	rax, QWORD PTR lval$[rsp]
	mov	rcx, QWORD PTR rval$[rsp]
	mov	rcx, QWORD PTR [rcx+16]
	cmp	QWORD PTR [rax+16], rcx
	jle	SHORT $LN14@ccexec_edi
	mov	QWORD PTR tv70[rsp], 1
	jmp	SHORT $LN15@ccexec_edi
$LN14@ccexec_edi:
	mov	QWORD PTR tv70[rsp], 0
$LN15@ccexec_edi:
	lea	r8, OFFSET FLAT:$SG49740
	mov	rdx, QWORD PTR tv70[rsp]
	lea	rcx, QWORD PTR $T10[rsp]
	call	ccexec_rvalue
	lea	rcx, QWORD PTR $T1[rsp]
	mov	rdi, rcx
	mov	rsi, rax
	mov	ecx, 24
	rep movsb
	lea	rax, QWORD PTR $T1[rsp]
	mov	rdi, QWORD PTR __$ReturnAddress$[rsp]
	mov	rsi, rax
	mov	ecx, 24
	rep movsb
	mov	rax, QWORD PTR __$ReturnAddress$[rsp]
	jmp	$LN1@ccexec_edi
$LN5@ccexec_edi:
; Line 134
	mov	rax, QWORD PTR lval$[rsp]
	mov	rcx, QWORD PTR rval$[rsp]
	mov	rcx, QWORD PTR [rcx+16]
	cmp	QWORD PTR [rax+16], rcx
	jl	SHORT $LN16@ccexec_edi
	mov	QWORD PTR tv79[rsp], 1
	jmp	SHORT $LN17@ccexec_edi
$LN16@ccexec_edi:
	mov	QWORD PTR tv79[rsp], 0
$LN17@ccexec_edi:
	lea	r8, OFFSET FLAT:$SG49742
	mov	rdx, QWORD PTR tv79[rsp]
	lea	rcx, QWORD PTR $T11[rsp]
	call	ccexec_rvalue
	lea	rcx, QWORD PTR $T2[rsp]
	mov	rdi, rcx
	mov	rsi, rax
	mov	ecx, 24
	rep movsb
	lea	rax, QWORD PTR $T2[rsp]
	mov	rdi, QWORD PTR __$ReturnAddress$[rsp]
	mov	rsi, rax
	mov	ecx, 24
	rep movsb
	mov	rax, QWORD PTR __$ReturnAddress$[rsp]
	jmp	$LN1@ccexec_edi
$LN6@ccexec_edi:
; Line 136
	mov	rax, QWORD PTR lval$[rsp]
	mov	rcx, QWORD PTR rval$[rsp]
	mov	rcx, QWORD PTR [rcx+16]
	cmp	QWORD PTR [rax+16], rcx
	jge	SHORT $LN18@ccexec_edi
	mov	QWORD PTR tv88[rsp], 1
	jmp	SHORT $LN19@ccexec_edi
$LN18@ccexec_edi:
	mov	QWORD PTR tv88[rsp], 0
$LN19@ccexec_edi:
	lea	r8, OFFSET FLAT:$SG49744
	mov	rdx, QWORD PTR tv88[rsp]
	lea	rcx, QWORD PTR $T12[rsp]
	call	ccexec_rvalue
	lea	rcx, QWORD PTR $T3[rsp]
	mov	rdi, rcx
	mov	rsi, rax
	mov	ecx, 24
	rep movsb
	lea	rax, QWORD PTR $T3[rsp]
	mov	rdi, QWORD PTR __$ReturnAddress$[rsp]
	mov	rsi, rax
	mov	ecx, 24
	rep movsb
	mov	rax, QWORD PTR __$ReturnAddress$[rsp]
	jmp	$LN1@ccexec_edi
$LN7@ccexec_edi:
; Line 138
	mov	rax, QWORD PTR lval$[rsp]
	mov	rcx, QWORD PTR rval$[rsp]
	mov	rcx, QWORD PTR [rcx+16]
	cmp	QWORD PTR [rax+16], rcx
	jg	SHORT $LN20@ccexec_edi
	mov	QWORD PTR tv129[rsp], 1
	jmp	SHORT $LN21@ccexec_edi
$LN20@ccexec_edi:
	mov	QWORD PTR tv129[rsp], 0
$LN21@ccexec_edi:
	lea	r8, OFFSET FLAT:$SG49746
	mov	rdx, QWORD PTR tv129[rsp]
	lea	rcx, QWORD PTR $T13[rsp]
	call	ccexec_rvalue
	lea	rcx, QWORD PTR $T4[rsp]
	mov	rdi, rcx
	mov	rsi, rax
	mov	ecx, 24
	rep movsb
	lea	rax, QWORD PTR $T4[rsp]
	mov	rdi, QWORD PTR __$ReturnAddress$[rsp]
	mov	rsi, rax
	mov	ecx, 24
	rep movsb
	mov	rax, QWORD PTR __$ReturnAddress$[rsp]
	jmp	$LN1@ccexec_edi
$LN8@ccexec_edi:
; Line 140
	mov	rax, QWORD PTR lval$[rsp]
	mov	rcx, QWORD PTR rval$[rsp]
	mov	rax, QWORD PTR [rax+16]
	imul	rax, QWORD PTR [rcx+16]
	lea	r8, OFFSET FLAT:$SG49748
	mov	rdx, rax
	lea	rcx, QWORD PTR $T14[rsp]
	call	ccexec_rvalue
	lea	rcx, QWORD PTR $T5[rsp]
	mov	rdi, rcx
	mov	rsi, rax
	mov	ecx, 24
	rep movsb
	lea	rax, QWORD PTR $T5[rsp]
	mov	rdi, QWORD PTR __$ReturnAddress$[rsp]
	mov	rsi, rax
	mov	ecx, 24
	rep movsb
	mov	rax, QWORD PTR __$ReturnAddress$[rsp]
	jmp	$LN1@ccexec_edi
$LN9@ccexec_edi:
; Line 142
	mov	rax, QWORD PTR lval$[rsp]
	mov	rax, QWORD PTR [rax+16]
	cdq
	mov	rcx, QWORD PTR rval$[rsp]
	idiv	QWORD PTR [rcx+16]
	lea	r8, OFFSET FLAT:$SG49750
	mov	rdx, rax
	lea	rcx, QWORD PTR $T15[rsp]
	call	ccexec_rvalue
	lea	rcx, QWORD PTR $T6[rsp]
	mov	rdi, rcx
	mov	rsi, rax
	mov	ecx, 24
	rep movsb
	lea	rax, QWORD PTR $T6[rsp]
	mov	rdi, QWORD PTR __$ReturnAddress$[rsp]
	mov	rsi, rax
	mov	ecx, 24
	rep movsb
	mov	rax, QWORD PTR __$ReturnAddress$[rsp]
	jmp	$LN1@ccexec_edi
$LN10@ccexec_edi:
; Line 144
	mov	rax, QWORD PTR lval$[rsp]
	mov	rcx, QWORD PTR rval$[rsp]
	mov	rcx, QWORD PTR [rcx+16]
	mov	rax, QWORD PTR [rax+16]
	sub	rax, rcx
	lea	r8, OFFSET FLAT:$SG49752
	mov	rdx, rax
	lea	rcx, QWORD PTR $T16[rsp]
	call	ccexec_rvalue
	lea	rcx, QWORD PTR $T7[rsp]
	mov	rdi, rcx
	mov	rsi, rax
	mov	ecx, 24
	rep movsb
	lea	rax, QWORD PTR $T7[rsp]
	mov	rdi, QWORD PTR __$ReturnAddress$[rsp]
	mov	rsi, rax
	mov	ecx, 24
	rep movsb
	mov	rax, QWORD PTR __$ReturnAddress$[rsp]
	jmp	$LN1@ccexec_edi
$LN11@ccexec_edi:
; Line 146
	mov	rax, QWORD PTR lval$[rsp]
	mov	rax, QWORD PTR [rax+16]
	mov	rcx, QWORD PTR rval$[rsp]
	add	rax, QWORD PTR [rcx+16]
	lea	r8, OFFSET FLAT:$SG49754
	mov	rdx, rax
	lea	rcx, QWORD PTR $T17[rsp]
	call	ccexec_rvalue
	lea	rcx, QWORD PTR $T8[rsp]
	mov	rdi, rcx
	mov	rsi, rax
	mov	ecx, 24
	rep movsb
	lea	rax, QWORD PTR $T8[rsp]
	mov	rdi, QWORD PTR __$ReturnAddress$[rsp]
	mov	rsi, rax
	mov	ecx, 24
	rep movsb
	mov	rax, QWORD PTR __$ReturnAddress$[rsp]
	jmp	SHORT $LN1@ccexec_edi
$LN12@ccexec_edi:
; Line 147
	lea	rax, OFFSET FLAT:$SG49756
	test	rax, rax
	je	SHORT $LN22@ccexec_edi
	int	3
$LN22@ccexec_edi:
; Line 149
	lea	r8, OFFSET FLAT:$SG49757
	xor	edx, edx
	lea	rcx, QWORD PTR $T18[rsp]
	call	ccexec_rvalue
	lea	rcx, QWORD PTR $T9[rsp]
	mov	rdi, rcx
	mov	rsi, rax
	mov	ecx, 24
	rep movsb
	lea	rax, QWORD PTR $T9[rsp]
	mov	rdi, QWORD PTR __$ReturnAddress$[rsp]
	mov	rsi, rax
	mov	ecx, 24
	rep movsb
	mov	rax, QWORD PTR __$ReturnAddress$[rsp]
$LN1@ccexec_edi:
; Line 150
	add	rsp, 520				; 00000208H
	pop	rdi
	pop	rsi
	ret	0
	npad	2
$LN25@ccexec_edi:
	DD	$LN8@ccexec_edi
	DD	$LN9@ccexec_edi
	DD	$LN11@ccexec_edi
	DD	$LN10@ccexec_edi
	DD	$LN4@ccexec_edi
	DD	$LN6@ccexec_edi
	DD	$LN5@ccexec_edi
	DD	$LN7@ccexec_edi
	DD	$LN12@ccexec_edi
$LN24@ccexec_edi:
	DB	0
	DB	1
	DB	8
	DB	2
	DB	3
	DB	8
	DB	8
	DB	4
	DB	5
	DB	8
	DB	8
	DB	8
	DB	8
	DB	8
	DB	8
	DB	8
	DB	8
	DB	8
	DB	8
	DB	8
	DB	8
	DB	8
	DB	8
	DB	8
	DB	8
	DB	6
	DB	7
ccexec_edict_arith ENDP
_TEXT	ENDS
; Function compile flags: /Odtp
_TEXT	SEGMENT
stack$ = 8
block$ = 16
ccexec_enter PROC
; File W:\cpp\void\ktt-c\ccexec.c
; Line 121
	mov	QWORD PTR [rsp+16], rdx
	mov	QWORD PTR [rsp+8], rcx
; Line 122
	mov	rax, QWORD PTR stack$[rsp]
	mov	rcx, QWORD PTR block$[rsp]
	mov	QWORD PTR [rax+8], rcx
; Line 123
	mov	rax, QWORD PTR stack$[rsp]
	mov	DWORD PTR [rax+16], 0
; Line 124
	ret	0
ccexec_enter ENDP
_TEXT	ENDS
; Function compile flags: /Odtp
_TEXT	SEGMENT
size$ = 32
edict$ = 40
memory$ = 48
result$ = 56
$T1 = 64
$T2 = 88
stack$ = 144
value$ = 152
ccstack_local_alloc PROC
; File W:\cpp\void\ktt-c\ccexec.c
; Line 90
	mov	QWORD PTR [rsp+16], rdx
	mov	QWORD PTR [rsp+8], rcx
	push	rsi
	push	rdi
	sub	rsp, 120				; 00000078H
; Line 92
	cmp	QWORD PTR value$[rsp], 0
	jne	SHORT $LN3@ccstack_lo
	int	3
$LN3@ccstack_lo:
; Line 93
	mov	rax, QWORD PTR value$[rsp]
	cmp	DWORD PTR [rax], 5
	je	SHORT $LN5@ccstack_lo
	int	3
$LN5@ccstack_lo:
; Line 99
	mov	rax, QWORD PTR value$[rsp]
	mov	rax, QWORD PTR [rax+48]
	mov	QWORD PTR edict$[rsp], rax
; Line 100
	cmp	QWORD PTR edict$[rsp], 0
	jne	SHORT $LN7@ccstack_lo
	int	3
$LN7@ccstack_lo:
; Line 101
	mov	rax, QWORD PTR edict$[rsp]
	cmp	DWORD PTR [rax], 0
	je	SHORT $LN9@ccstack_lo
	mov	rax, QWORD PTR edict$[rsp]
	cmp	DWORD PTR [rax], 1
	je	SHORT $LN9@ccstack_lo
	int	3
$LN9@ccstack_lo:
; Line 105
	mov	rax, QWORD PTR edict$[rsp]
	mov	rdx, QWORD PTR [rax+16]
	mov	rcx, QWORD PTR stack$[rsp]
	call	ccexec_sizeof
	mov	DWORD PTR size$[rsp], eax
; Line 106
	cmp	DWORD PTR size$[rsp], 8
	jae	SHORT $LN11@ccstack_lo
	int	3
$LN11@ccstack_lo:
; Line 108
	mov	eax, DWORD PTR size$[rsp]
	mov	r9d, 108				; 0000006cH
	lea	r8, OFFSET FLAT:$SG49707
	lea	rdx, OFFSET FLAT:$SG49708
	mov	ecx, eax
	call	ccmalloc_
	mov	QWORD PTR memory$[rsp], rax
; Line 109
	mov	eax, DWORD PTR size$[rsp]
	mov	r8d, eax
	xor	edx, edx
	mov	rcx, QWORD PTR memory$[rsp]
	call	memset
; Line 112
	mov	rdx, QWORD PTR value$[rsp]
	mov	rcx, QWORD PTR stack$[rsp]
	call	ccstack_mingle
	mov	QWORD PTR result$[rsp], rax
; Line 113
	lea	r8, OFFSET FLAT:$SG49709
	mov	rdx, QWORD PTR memory$[rsp]
	lea	rcx, QWORD PTR $T2[rsp]
	call	ccexec_lvalue
	lea	rcx, QWORD PTR $T1[rsp]
	mov	rdi, rcx
	mov	rsi, rax
	mov	ecx, 24
	rep movsb
	lea	rax, QWORD PTR $T1[rsp]
	mov	rdi, QWORD PTR result$[rsp]
	mov	rsi, rax
	mov	ecx, 24
	rep movsb
; Line 116
	mov	rax, QWORD PTR result$[rsp]
; Line 117
	add	rsp, 120				; 00000078H
	pop	rdi
	pop	rsi
	ret	0
ccstack_local_alloc ENDP
_TEXT	ENDS
; Function compile flags: /Odtp
_TEXT	SEGMENT
tv72 = 32
result$ = 40
$T1 = 64
$T2 = 88
__$ReturnAddress$ = 144
stack$ = 152
couple$ = 160
ccstack_yield_lvalue PROC
; File W:\cpp\void\ktt-c\ccexec.c
; Line 69
	mov	QWORD PTR [rsp+24], r8
	mov	QWORD PTR [rsp+16], rdx
	mov	QWORD PTR [rsp+8], rcx
	push	rsi
	push	rdi
	sub	rsp, 120				; 00000078H
; Line 70
	lea	rax, QWORD PTR result$[rsp]
	mov	rdi, rax
	xor	eax, eax
	mov	ecx, 24
	rep stosb
; Line 72
	mov	rax, QWORD PTR couple$[rsp]
	cmp	DWORD PTR [rax], 5
	jne	SHORT $LN4@ccstack_yi
; Line 73
	mov	rax, QWORD PTR couple$[rsp]
	mov	rax, QWORD PTR [rax+48]
	mov	eax, DWORD PTR [rax]
	mov	DWORD PTR tv72[rsp], eax
	cmp	DWORD PTR tv72[rsp], 0
	je	SHORT $LN5@ccstack_yi
	cmp	DWORD PTR tv72[rsp], 1
	je	SHORT $LN6@ccstack_yi
	cmp	DWORD PTR tv72[rsp], 2
	je	SHORT $LN7@ccstack_yi
	jmp	SHORT $LN2@ccstack_yi
$LN5@ccstack_yi:
$LN6@ccstack_yi:
$LN7@ccstack_yi:
; Line 77
	mov	r8, QWORD PTR couple$[rsp]
	mov	rdx, QWORD PTR stack$[rsp]
	lea	rcx, QWORD PTR $T2[rsp]
	call	ccstack_yield
	lea	rcx, QWORD PTR $T1[rsp]
	mov	rdi, rcx
	mov	rsi, rax
	mov	ecx, 24
	rep movsb
	lea	rax, QWORD PTR result$[rsp]
	lea	rcx, QWORD PTR $T1[rsp]
	mov	rdi, rax
	mov	rsi, rcx
	mov	ecx, 24
	rep movsb
$LN2@ccstack_yi:
$LN4@ccstack_yi:
; Line 82
	cmp	DWORD PTR result$[rsp+8], 2
	je	SHORT $LN9@ccstack_yi
	int	3
$LN9@ccstack_yi:
; Line 83
	lea	rax, QWORD PTR result$[rsp]
	mov	rdi, QWORD PTR __$ReturnAddress$[rsp]
	mov	rsi, rax
	mov	ecx, 24
	rep movsb
	mov	rax, QWORD PTR __$ReturnAddress$[rsp]
; Line 84
	add	rsp, 120				; 00000078H
	pop	rdi
	pop	rsi
	ret	0
ccstack_yield_lvalue ENDP
_TEXT	ENDS
; Function compile flags: /Odtp
_TEXT	SEGMENT
tv72 = 32
tv69 = 36
result$ = 40
$T1 = 64
$T2 = 88
$T3 = 112
$T4 = 136
__$ReturnAddress$ = 192
stack$ = 200
couple$ = 208
ccstack_yield_rvalue PROC
; File W:\cpp\void\ktt-c\ccexec.c
; Line 43
	mov	QWORD PTR [rsp+24], r8
	mov	QWORD PTR [rsp+16], rdx
	mov	QWORD PTR [rsp+8], rcx
	push	rsi
	push	rdi
	sub	rsp, 168				; 000000a8H
; Line 44
	lea	rax, QWORD PTR result$[rsp]
	mov	rdi, rax
	xor	eax, eax
	mov	ecx, 24
	rep stosb
; Line 46
	mov	rax, QWORD PTR couple$[rsp]
	mov	eax, DWORD PTR [rax]
	mov	DWORD PTR tv69[rsp], eax
	cmp	DWORD PTR tv69[rsp], 2
	je	SHORT $LN10@ccstack_yi
	cmp	DWORD PTR tv69[rsp], 5
	je	SHORT $LN6@ccstack_yi
	jmp	$LN2@ccstack_yi
$LN6@ccstack_yi:
; Line 48
	mov	rax, QWORD PTR couple$[rsp]
	mov	rax, QWORD PTR [rax+48]
	mov	eax, DWORD PTR [rax]
	mov	DWORD PTR tv72[rsp], eax
	cmp	DWORD PTR tv72[rsp], 4
	je	SHORT $LN7@ccstack_yi
	cmp	DWORD PTR tv72[rsp], 5
	je	SHORT $LN8@ccstack_yi
	cmp	DWORD PTR tv72[rsp], 12
	je	SHORT $LN9@ccstack_yi
	jmp	SHORT $LN4@ccstack_yi
$LN7@ccstack_yi:
$LN8@ccstack_yi:
$LN9@ccstack_yi:
; Line 52
	mov	r8, QWORD PTR couple$[rsp]
	mov	rdx, QWORD PTR stack$[rsp]
	lea	rcx, QWORD PTR $T3[rsp]
	call	ccstack_yield
	lea	rcx, QWORD PTR $T1[rsp]
	mov	rdi, rcx
	mov	rsi, rax
	mov	ecx, 24
	rep movsb
	lea	rax, QWORD PTR result$[rsp]
	lea	rcx, QWORD PTR $T1[rsp]
	mov	rdi, rax
	mov	rsi, rcx
	mov	ecx, 24
	rep movsb
$LN4@ccstack_yi:
; Line 55
	jmp	SHORT $LN2@ccstack_yi
$LN10@ccstack_yi:
; Line 57
	lea	r8, OFFSET FLAT:$SG49685
	mov	rax, QWORD PTR couple$[rsp]
	mov	rdx, QWORD PTR [rax+72]
	lea	rcx, QWORD PTR $T4[rsp]
	call	ccexec_rvalue
	lea	rcx, QWORD PTR $T2[rsp]
	mov	rdi, rcx
	mov	rsi, rax
	mov	ecx, 24
	rep movsb
	lea	rax, QWORD PTR result$[rsp]
	lea	rcx, QWORD PTR $T2[rsp]
	mov	rdi, rax
	mov	rsi, rcx
	mov	ecx, 24
	rep movsb
$LN2@ccstack_yi:
; Line 62
	cmp	DWORD PTR result$[rsp+8], 1
	je	SHORT $LN12@ccstack_yi
	int	3
$LN12@ccstack_yi:
; Line 64
	lea	rax, QWORD PTR result$[rsp]
	mov	rdi, QWORD PTR __$ReturnAddress$[rsp]
	mov	rsi, rax
	mov	ecx, 24
	rep movsb
	mov	rax, QWORD PTR __$ReturnAddress$[rsp]
; Line 65
	add	rsp, 168				; 000000a8H
	pop	rdi
	pop	rsi
	ret	0
ccstack_yield_rvalue ENDP
_TEXT	ENDS
; Function compile flags: /Odtp
_TEXT	SEGMENT
result$ = 48
__$ReturnAddress$ = 96
stack$ = 104
value$ = 112
ccstack_yield PROC
; File W:\cpp\void\ktt-c\ccexec.c
; Line 26
	mov	QWORD PTR [rsp+24], r8
	mov	QWORD PTR [rsp+16], rdx
	mov	QWORD PTR [rsp+8], rcx
	push	rsi
	push	rdi
	sub	rsp, 72					; 00000048H
; Line 27
	cmp	QWORD PTR value$[rsp], 0
	jne	SHORT $LN4@ccstack_yi
	int	3
$LN4@ccstack_yi:
; Line 29
	mov	rax, QWORD PTR stack$[rsp]
	add	rax, 24
	mov	r9, QWORD PTR value$[rsp]
	mov	r8d, -8
	mov	edx, 24
	mov	rcx, rax
	call	ccdlb_tblget
	mov	eax, eax
	imul	rax, rax, 24
	mov	rcx, QWORD PTR stack$[rsp]
	add	rax, QWORD PTR [rcx+24]
	mov	QWORD PTR result$[rsp], rax
; Line 30
	mov	eax, OFFSET FLAT:ccerr
	mov	eax, eax
	mov	ecx, DWORD PTR _tls_index
	mov	rdx, QWORD PTR gs:88
	mov	rcx, QWORD PTR [rdx+rcx*8]
	cmp	DWORD PTR [rax+rcx], 0
	je	SHORT $LN6@ccstack_yi
	int	3
$LN6@ccstack_yi:
; Line 32
	mov	rax, QWORD PTR result$[rsp]
	cmp	DWORD PTR [rax+8], 0
	jne	SHORT $LN2@ccstack_yi
; Line 33
	lea	rax, OFFSET FLAT:$SG49664
	mov	QWORD PTR [rsp+40], rax
	lea	rax, OFFSET FLAT:$SG49665
	mov	QWORD PTR [rsp+32], rax
	lea	r9, OFFSET FLAT:$SG49666
	mov	r8d, 33					; 00000021H
	lea	rdx, OFFSET FLAT:$SG49667
	mov	ecx, 49					; 00000031H
	call	cctrace_
	int	3
$LN2@ccstack_yi:
; Line 35
	mov	rax, QWORD PTR result$[rsp]
	cmp	DWORD PTR [rax+8], 0
	jne	SHORT $LN8@ccstack_yi
	int	3
$LN8@ccstack_yi:
; Line 37
	mov	rdi, QWORD PTR __$ReturnAddress$[rsp]
	mov	rsi, QWORD PTR result$[rsp]
	mov	ecx, 24
	rep movsb
	mov	rax, QWORD PTR __$ReturnAddress$[rsp]
; Line 38
	add	rsp, 72					; 00000048H
	pop	rdi
	pop	rsi
	ret	0
ccstack_yield ENDP
_TEXT	ENDS
; Function compile flags: /Odtp
_TEXT	SEGMENT
result$ = 32
stack$ = 64
value$ = 72
ccstack_mingle PROC
; File W:\cpp\void\ktt-c\ccexec.c
; Line 14
	mov	QWORD PTR [rsp+16], rdx
	mov	QWORD PTR [rsp+8], rcx
	sub	rsp, 56					; 00000038H
; Line 15
	cmp	QWORD PTR value$[rsp], 0
	jne	SHORT $LN3@ccstack_mi
	int	3
$LN3@ccstack_mi:
; Line 17
	mov	rax, QWORD PTR stack$[rsp]
	add	rax, 24
	mov	r9, QWORD PTR value$[rsp]
	mov	r8d, -8
	mov	edx, 24
	mov	rcx, rax
	call	ccdlb_tblset
	mov	eax, eax
	imul	rax, rax, 24
	mov	rcx, QWORD PTR stack$[rsp]
	add	rax, QWORD PTR [rcx+24]
	mov	QWORD PTR result$[rsp], rax
; Line 20
	mov	rax, QWORD PTR result$[rsp]
; Line 21
	add	rsp, 56					; 00000038H
	ret	0
ccstack_mingle ENDP
_TEXT	ENDS
; Function compile flags: /Odtp
_TEXT	SEGMENT
size$1 = 64
$T2 = 72
rval$3 = 96
$T4 = 120
_s$ = 176
_t$ = 184
ccexec_sizeof PROC
; File W:\cpp\void\ktt-c\ccexec.c
; Line 340
	mov	QWORD PTR [rsp+16], rdx
	mov	QWORD PTR [rsp+8], rcx
	push	rsi
	push	rdi
	sub	rsp, 152				; 00000098H
; Line 341
	mov	rax, QWORD PTR _t$[rsp]
	cmp	DWORD PTR [rax+8], 1
	jne	$LN2@ccexec_siz
; Line 344
	mov	rax, QWORD PTR _t$[rsp]
	mov	r8, QWORD PTR [rax+24]
	mov	rdx, QWORD PTR _s$[rsp]
	lea	rcx, QWORD PTR $T4[rsp]
	call	ccstack_yield_rvalue
	lea	rcx, QWORD PTR $T2[rsp]
	mov	rdi, rcx
	mov	rsi, rax
	mov	ecx, 24
	rep movsb
	lea	rax, QWORD PTR rval$3[rsp]
	lea	rcx, QWORD PTR $T2[rsp]
	mov	rdi, rax
	mov	rsi, rcx
	mov	ecx, 24
	rep movsb
; Line 346
	mov	rax, QWORD PTR _t$[rsp]
	mov	rdx, QWORD PTR [rax+16]
	mov	rcx, QWORD PTR _s$[rsp]
	call	ccexec_sizeof
	mov	DWORD PTR size$1[rsp], eax
; Line 347
	mov	eax, DWORD PTR size$1[rsp]
	imul	eax, DWORD PTR rval$3[rsp+16]
	mov	DWORD PTR size$1[rsp], eax
; Line 349
	mov	eax, DWORD PTR size$1[rsp]
	mov	DWORD PTR [rsp+48], eax
	lea	rax, OFFSET FLAT:$SG49876
	mov	QWORD PTR [rsp+40], rax
	lea	rax, OFFSET FLAT:$SG49877
	mov	QWORD PTR [rsp+32], rax
	lea	r9, OFFSET FLAT:$SG49878
	mov	r8d, 349				; 0000015dH
	lea	rdx, OFFSET FLAT:$SG49879
	mov	ecx, 50					; 00000032H
	call	cctrace_
; Line 351
	mov	eax, DWORD PTR size$1[rsp]
	jmp	SHORT $LN1@ccexec_siz
; Line 352
	jmp	SHORT $LN3@ccexec_siz
$LN2@ccexec_siz:
; Line 353
	mov	rax, QWORD PTR _t$[rsp]
	cmp	DWORD PTR [rax+8], 0
	jne	SHORT $LN4@ccexec_siz
; Line 354
	mov	eax, 8
	jmp	SHORT $LN1@ccexec_siz
$LN4@ccexec_siz:
$LN3@ccexec_siz:
; Line 356
	lea	rax, OFFSET FLAT:$SG49881
	test	rax, rax
	je	SHORT $LN6@ccexec_siz
	int	3
$LN6@ccexec_siz:
; Line 357
	xor	eax, eax
$LN1@ccexec_siz:
; Line 358
	add	rsp, 152				; 00000098H
	pop	rdi
	pop	rsi
	ret	0
ccexec_sizeof ENDP
_TEXT	ENDS
; Function compile flags: /Odtp
_TEXT	SEGMENT
emit$ = 48
ccemit_init PROC
; File W:\cpp\void\ktt-c\ccemit.c
; Line 368
	mov	QWORD PTR [rsp+8], rcx
	sub	rsp, 40					; 00000028H
	mov	r8d, 24
	xor	edx, edx
	mov	rcx, QWORD PTR emit$[rsp]
	call	memset
; Line 369
	add	rsp, 40					; 00000028H
	ret	0
ccemit_init ENDP
_TEXT	ENDS
; Function compile flags: /Odtp
_TEXT	SEGMENT
tv73 = 32
decl$ = 40
emit$ = 64
tree$ = 72
ccemit_translation_unit PROC
; File W:\cpp\void\ktt-c\ccemit.c
; Line 359
	mov	QWORD PTR [rsp+16], rdx
	mov	QWORD PTR [rsp+8], rcx
	sub	rsp, 56					; 00000038H
; Line 360
	mov	rcx, QWORD PTR tree$[rsp]
	call	cctree_solve_translation_unit
; Line 363
	mov	rax, QWORD PTR tree$[rsp]
	mov	rax, QWORD PTR [rax+32]
	mov	QWORD PTR decl$[rsp], rax
	jmp	SHORT $LN4@ccemit_tra
$LN2@ccemit_tra:
	mov	rax, QWORD PTR decl$[rsp]
	add	rax, 8
	mov	QWORD PTR decl$[rsp], rax
$LN4@ccemit_tra:
	mov	rax, QWORD PTR tree$[rsp]
	cmp	QWORD PTR [rax+32], 0
	je	SHORT $LN6@ccemit_tra
	mov	eax, 4
	imul	rax, rax, -1
	mov	rcx, QWORD PTR tree$[rsp]
	mov	rcx, QWORD PTR [rcx+32]
	mov	eax, DWORD PTR [rax+rcx]
	mov	DWORD PTR tv73[rsp], eax
	jmp	SHORT $LN7@ccemit_tra
$LN6@ccemit_tra:
	mov	DWORD PTR tv73[rsp], 0
$LN7@ccemit_tra:
	mov	eax, DWORD PTR tv73[rsp]
	xor	edx, edx
	mov	ecx, 8
	div	rcx
	mov	rcx, QWORD PTR tree$[rsp]
	mov	rcx, QWORD PTR [rcx+32]
	lea	rax, QWORD PTR [rcx+rax*8]
	cmp	QWORD PTR decl$[rsp], rax
	jae	SHORT $LN3@ccemit_tra
	mov	rax, QWORD PTR decl$[rsp]
	mov	rdx, QWORD PTR [rax]
	mov	rcx, QWORD PTR emit$[rsp]
	call	ccemit_external_decl
	jmp	SHORT $LN2@ccemit_tra
$LN3@ccemit_tra:
; Line 364
	add	rsp, 56					; 00000038H
	ret	0
ccemit_translation_unit ENDP
_TEXT	ENDS
; Function compile flags: /Odtp
_TEXT	SEGMENT
tv72 = 32
decl$ = 40
decl_$ = 48
p$1 = 56
emit$ = 80
tree$ = 88
ccemit_external_decl PROC
; File W:\cpp\void\ktt-c\ccemit.c
; Line 335
	mov	QWORD PTR [rsp+16], rdx
	mov	QWORD PTR [rsp+8], rcx
	sub	rsp, 72					; 00000048H
; Line 338
	mov	rax, QWORD PTR tree$[rsp]
	mov	rax, QWORD PTR [rax+32]
	mov	QWORD PTR decl_$[rsp], rax
	jmp	SHORT $LN4@ccemit_ext
$LN2@ccemit_ext:
	mov	rax, QWORD PTR decl_$[rsp]
	add	rax, 8
	mov	QWORD PTR decl_$[rsp], rax
$LN4@ccemit_ext:
	mov	rax, QWORD PTR tree$[rsp]
	cmp	QWORD PTR [rax+32], 0
	je	SHORT $LN9@ccemit_ext
	mov	eax, 4
	imul	rax, rax, -1
	mov	rcx, QWORD PTR tree$[rsp]
	mov	rcx, QWORD PTR [rcx+32]
	mov	eax, DWORD PTR [rax+rcx]
	mov	DWORD PTR tv72[rsp], eax
	jmp	SHORT $LN10@ccemit_ext
$LN9@ccemit_ext:
	mov	DWORD PTR tv72[rsp], 0
$LN10@ccemit_ext:
	mov	eax, DWORD PTR tv72[rsp]
	xor	edx, edx
	mov	ecx, 8
	div	rcx
	mov	rcx, QWORD PTR tree$[rsp]
	mov	rcx, QWORD PTR [rcx+32]
	lea	rax, QWORD PTR [rcx+rax*8]
	cmp	QWORD PTR decl_$[rsp], rax
	jae	$LN3@ccemit_ext
; Line 339
	mov	rax, QWORD PTR decl_$[rsp]
	mov	rax, QWORD PTR [rax]
	mov	QWORD PTR decl$[rsp], rax
; Line 341
	mov	rax, QWORD PTR decl$[rsp]
	mov	rax, QWORD PTR [rax+48]
	cmp	DWORD PTR [rax], 3
	jne	SHORT $LN5@ccemit_ext
; Line 343
	mov	rax, QWORD PTR decl$[rsp]
	mov	r8, QWORD PTR [rax+24]
	mov	rdx, QWORD PTR decl$[rsp]
	mov	rcx, QWORD PTR emit$[rsp]
	call	ccemit_global_procd
	mov	QWORD PTR p$1[rsp], rax
; Line 344
	mov	r8, QWORD PTR decl$[rsp]
	mov	rdx, QWORD PTR p$1[rsp]
	mov	rcx, QWORD PTR emit$[rsp]
	call	ccemit_function
; Line 346
	lea	rdx, OFFSET FLAT:$SG49628
	mov	rax, QWORD PTR decl$[rsp]
	mov	rcx, QWORD PTR [rax+24]
	call	strcmp
	test	eax, eax
	jne	SHORT $LN7@ccemit_ext
; Line 347
	mov	rax, QWORD PTR emit$[rsp]
	mov	rcx, QWORD PTR p$1[rsp]
	mov	QWORD PTR [rax+16], rcx
$LN7@ccemit_ext:
; Line 349
	jmp	SHORT $LN6@ccemit_ext
$LN5@ccemit_ext:
; Line 352
	lea	rax, OFFSET FLAT:$SG49629
	test	rax, rax
	je	SHORT $LN11@ccemit_ext
	int	3
$LN11@ccemit_ext:
$LN6@ccemit_ext:
; Line 354
	jmp	$LN2@ccemit_ext
$LN3@ccemit_ext:
; Line 355
	add	rsp, 72					; 00000048H
	ret	0
ccemit_external_decl ENDP
_TEXT	ENDS
; Function compile flags: /Odtp
_TEXT	SEGMENT
tv89 = 32
tv144 = 36
list$ = 40
tv166 = 48
tv160 = 56
emit$ = 80
procd$ = 88
tree$ = 96
ccemit_function PROC
; File W:\cpp\void\ktt-c\ccemit.c
; Line 309
	mov	QWORD PTR [rsp+24], r8
	mov	QWORD PTR [rsp+16], rdx
	mov	QWORD PTR [rsp+8], rcx
	sub	rsp, 72					; 00000048H
; Line 310
	cmp	QWORD PTR tree$[rsp], 0
	jne	SHORT $LN9@ccemit_fun
	int	3
$LN9@ccemit_fun:
; Line 312
	mov	rax, QWORD PTR tree$[rsp]
	cmp	QWORD PTR [rax+48], 0
	jne	SHORT $LN11@ccemit_fun
	int	3
$LN11@ccemit_fun:
; Line 313
	mov	rax, QWORD PTR tree$[rsp]
	mov	rax, QWORD PTR [rax+48]
	cmp	DWORD PTR [rax], 3
	je	SHORT $LN13@ccemit_fun
	int	3
$LN13@ccemit_fun:
; Line 315
	mov	rax, QWORD PTR tree$[rsp]
	cmp	QWORD PTR [rax+88], 0
	jne	SHORT $LN15@ccemit_fun
	int	3
$LN15@ccemit_fun:
; Line 316
	mov	rax, QWORD PTR tree$[rsp]
	mov	rax, QWORD PTR [rax+88]
	cmp	DWORD PTR [rax], 10
	je	SHORT $LN17@ccemit_fun
	int	3
$LN17@ccemit_fun:
; Line 319
	mov	rax, QWORD PTR emit$[rsp]
	mov	rcx, QWORD PTR procd$[rsp]
	mov	rcx, QWORD PTR [rcx+40]
	mov	QWORD PTR [rax+8], rcx
; Line 323
	mov	rax, QWORD PTR tree$[rsp]
	mov	rax, QWORD PTR [rax+48]
	mov	rax, QWORD PTR [rax+32]
	mov	QWORD PTR list$[rsp], rax
	jmp	SHORT $LN4@ccemit_fun
$LN2@ccemit_fun:
	mov	rax, QWORD PTR list$[rsp]
	add	rax, 8
	mov	QWORD PTR list$[rsp], rax
$LN4@ccemit_fun:
	mov	rax, QWORD PTR tree$[rsp]
	mov	rax, QWORD PTR [rax+48]
	cmp	QWORD PTR [rax+32], 0
	je	SHORT $LN19@ccemit_fun
	mov	rax, QWORD PTR tree$[rsp]
	mov	rax, QWORD PTR [rax+48]
	mov	ecx, 4
	imul	rcx, rcx, -1
	mov	rax, QWORD PTR [rax+32]
	mov	eax, DWORD PTR [rcx+rax]
	mov	DWORD PTR tv89[rsp], eax
	jmp	SHORT $LN20@ccemit_fun
$LN19@ccemit_fun:
	mov	DWORD PTR tv89[rsp], 0
$LN20@ccemit_fun:
	mov	rax, QWORD PTR tree$[rsp]
	mov	rax, QWORD PTR [rax+48]
	mov	QWORD PTR tv166[rsp], rax
	mov	ecx, DWORD PTR tv89[rsp]
	xor	edx, edx
	mov	eax, ecx
	mov	ecx, 8
	div	rcx
	mov	rcx, QWORD PTR tv166[rsp]
	mov	rcx, QWORD PTR [rcx+32]
	lea	rax, QWORD PTR [rcx+rax*8]
	cmp	QWORD PTR list$[rsp], rax
	jae	SHORT $LN3@ccemit_fun
; Line 324
	mov	rax, QWORD PTR list$[rsp]
	mov	r9, QWORD PTR [rax]
	mov	rax, QWORD PTR emit$[rsp]
	mov	r8, QWORD PTR [rax+8]
	mov	rdx, QWORD PTR procd$[rsp]
	mov	rcx, QWORD PTR emit$[rsp]
	call	ccemit_param
	jmp	$LN2@ccemit_fun
$LN3@ccemit_fun:
; Line 326
	mov	rax, QWORD PTR tree$[rsp]
	mov	rax, QWORD PTR [rax+88]
	mov	rax, QWORD PTR [rax+32]
	mov	QWORD PTR list$[rsp], rax
	jmp	SHORT $LN7@ccemit_fun
$LN5@ccemit_fun:
	mov	rax, QWORD PTR list$[rsp]
	add	rax, 8
	mov	QWORD PTR list$[rsp], rax
$LN7@ccemit_fun:
	mov	rax, QWORD PTR tree$[rsp]
	mov	rax, QWORD PTR [rax+88]
	cmp	QWORD PTR [rax+32], 0
	je	SHORT $LN21@ccemit_fun
	mov	rax, QWORD PTR tree$[rsp]
	mov	rax, QWORD PTR [rax+88]
	mov	ecx, 4
	imul	rcx, rcx, -1
	mov	rax, QWORD PTR [rax+32]
	mov	eax, DWORD PTR [rcx+rax]
	mov	DWORD PTR tv144[rsp], eax
	jmp	SHORT $LN22@ccemit_fun
$LN21@ccemit_fun:
	mov	DWORD PTR tv144[rsp], 0
$LN22@ccemit_fun:
	mov	rax, QWORD PTR tree$[rsp]
	mov	rax, QWORD PTR [rax+88]
	mov	QWORD PTR tv160[rsp], rax
	mov	ecx, DWORD PTR tv144[rsp]
	xor	edx, edx
	mov	eax, ecx
	mov	ecx, 8
	div	rcx
	mov	rcx, QWORD PTR tv160[rsp]
	mov	rcx, QWORD PTR [rcx+32]
	lea	rax, QWORD PTR [rcx+rax*8]
	cmp	QWORD PTR list$[rsp], rax
	jae	SHORT $LN6@ccemit_fun
; Line 327
	mov	rax, QWORD PTR list$[rsp]
	mov	r9, QWORD PTR [rax]
	mov	rax, QWORD PTR emit$[rsp]
	mov	r8, QWORD PTR [rax+8]
	mov	rdx, QWORD PTR procd$[rsp]
	mov	rcx, QWORD PTR emit$[rsp]
	call	ccemit_tree
	jmp	$LN5@ccemit_fun
$LN6@ccemit_fun:
; Line 329
	mov	rax, QWORD PTR procd$[rsp]
	mov	rdx, QWORD PTR [rax+40]
	mov	rax, QWORD PTR procd$[rsp]
	mov	rcx, QWORD PTR [rax+32]
	call	ccblock_enter
; Line 330
	add	rsp, 72					; 00000048H
	ret	0
ccemit_function ENDP
_TEXT	ENDS
; Function compile flags: /Odtp
_TEXT	SEGMENT
lval$ = 48
emit$ = 80
func$ = 88
block$ = 96
tree$ = 104
ccemit_param PROC
; File W:\cpp\void\ktt-c\ccemit.c
; Line 209
	mov	QWORD PTR [rsp+32], r9
	mov	QWORD PTR [rsp+24], r8
	mov	QWORD PTR [rsp+16], rdx
	mov	QWORD PTR [rsp+8], rcx
	sub	rsp, 72					; 00000048H
	mov	DWORD PTR [rsp+32], 1
	mov	r9, QWORD PTR tree$[rsp]
	mov	r8, QWORD PTR block$[rsp]
	mov	rdx, QWORD PTR func$[rsp]
	mov	rcx, QWORD PTR emit$[rsp]
	call	ccemit_include_local
	mov	QWORD PTR lval$[rsp], rax
; Line 210
	mov	rax, QWORD PTR lval$[rsp]
; Line 211
	add	rsp, 72					; 00000048H
	ret	0
ccemit_param ENDP
_TEXT	ENDS
; Function compile flags: /Odtp
_TEXT	SEGMENT
tv72 = 32
list$ = 40
emit$ = 64
func$ = 72
block$ = 80
decl$ = 88
ccemit_decl PROC
; File W:\cpp\void\ktt-c\ccemit.c
; Line 203
	mov	QWORD PTR [rsp+32], r9
	mov	QWORD PTR [rsp+24], r8
	mov	QWORD PTR [rsp+16], rdx
	mov	QWORD PTR [rsp+8], rcx
	sub	rsp, 56					; 00000038H
; Line 204
	mov	rax, QWORD PTR decl$[rsp]
	mov	rax, QWORD PTR [rax+32]
	mov	QWORD PTR list$[rsp], rax
	jmp	SHORT $LN4@ccemit_dec
$LN2@ccemit_dec:
	mov	rax, QWORD PTR list$[rsp]
	add	rax, 8
	mov	QWORD PTR list$[rsp], rax
$LN4@ccemit_dec:
	mov	rax, QWORD PTR decl$[rsp]
	cmp	QWORD PTR [rax+32], 0
	je	SHORT $LN6@ccemit_dec
	mov	eax, 4
	imul	rax, rax, -1
	mov	rcx, QWORD PTR decl$[rsp]
	mov	rcx, QWORD PTR [rcx+32]
	mov	eax, DWORD PTR [rax+rcx]
	mov	DWORD PTR tv72[rsp], eax
	jmp	SHORT $LN7@ccemit_dec
$LN6@ccemit_dec:
	mov	DWORD PTR tv72[rsp], 0
$LN7@ccemit_dec:
	mov	eax, DWORD PTR tv72[rsp]
	xor	edx, edx
	mov	ecx, 8
	div	rcx
	mov	rcx, QWORD PTR decl$[rsp]
	mov	rcx, QWORD PTR [rcx+32]
	lea	rax, QWORD PTR [rcx+rax*8]
	cmp	QWORD PTR list$[rsp], rax
	jae	SHORT $LN3@ccemit_dec
	mov	rax, QWORD PTR list$[rsp]
	mov	r9, QWORD PTR [rax]
	mov	r8, QWORD PTR block$[rsp]
	mov	rdx, QWORD PTR func$[rsp]
	mov	rcx, QWORD PTR emit$[rsp]
	call	ccemit_decl_name
	jmp	SHORT $LN2@ccemit_dec
$LN3@ccemit_dec:
; Line 205
	add	rsp, 56					; 00000038H
	ret	0
ccemit_decl ENDP
_TEXT	ENDS
; Function compile flags: /Odtp
_TEXT	SEGMENT
lval$ = 48
rval$1 = 56
emit$ = 80
func$ = 88
block$ = 96
tree$ = 104
ccemit_decl_name PROC
; File W:\cpp\void\ktt-c\ccemit.c
; Line 192
	mov	QWORD PTR [rsp+32], r9
	mov	QWORD PTR [rsp+24], r8
	mov	QWORD PTR [rsp+16], rdx
	mov	QWORD PTR [rsp+8], rcx
	sub	rsp, 72					; 00000048H
	mov	DWORD PTR [rsp+32], 0
	mov	r9, QWORD PTR tree$[rsp]
	mov	r8, QWORD PTR block$[rsp]
	mov	rdx, QWORD PTR func$[rsp]
	mov	rcx, QWORD PTR emit$[rsp]
	call	ccemit_include_local
	mov	QWORD PTR lval$[rsp], rax
; Line 194
	mov	rax, QWORD PTR tree$[rsp]
	cmp	QWORD PTR [rax+64], 0
	je	SHORT $LN2@ccemit_dec
; Line 195
	mov	rax, QWORD PTR tree$[rsp]
	mov	r9, QWORD PTR [rax+64]
	mov	r8, QWORD PTR block$[rsp]
	mov	rdx, QWORD PTR func$[rsp]
	mov	rcx, QWORD PTR emit$[rsp]
	call	ccemit_rvalue
	mov	QWORD PTR rval$1[rsp], rax
; Line 196
	mov	r8, QWORD PTR rval$1[rsp]
	mov	rdx, QWORD PTR lval$[rsp]
	mov	rcx, QWORD PTR block$[rsp]
	call	ccblock_store
$LN2@ccemit_dec:
; Line 198
	mov	rax, QWORD PTR lval$[rsp]
; Line 199
	add	rsp, 72					; 00000048H
	ret	0
ccemit_decl_name ENDP
_TEXT	ENDS
; Function compile flags: /Odtp
_TEXT	SEGMENT
tv68 = 32
it$ = 40
emit$ = 64
func$ = 72
irset$ = 80
list$ = 88
ccemit_treelist PROC
; File W:\cpp\void\ktt-c\ccemit.c
; Line 185
	mov	QWORD PTR [rsp+32], r9
	mov	QWORD PTR [rsp+24], r8
	mov	QWORD PTR [rsp+16], rdx
	mov	QWORD PTR [rsp+8], rcx
	sub	rsp, 56					; 00000038H
; Line 187
	mov	rax, QWORD PTR list$[rsp]
	mov	QWORD PTR it$[rsp], rax
	jmp	SHORT $LN4@ccemit_tre
$LN2@ccemit_tre:
	mov	rax, QWORD PTR it$[rsp]
	add	rax, 8
	mov	QWORD PTR it$[rsp], rax
$LN4@ccemit_tre:
	cmp	QWORD PTR list$[rsp], 0
	je	SHORT $LN6@ccemit_tre
	mov	eax, 4
	imul	rax, rax, -1
	mov	rcx, QWORD PTR list$[rsp]
	mov	eax, DWORD PTR [rcx+rax]
	mov	DWORD PTR tv68[rsp], eax
	jmp	SHORT $LN7@ccemit_tre
$LN6@ccemit_tre:
	mov	DWORD PTR tv68[rsp], 0
$LN7@ccemit_tre:
	mov	eax, DWORD PTR tv68[rsp]
	xor	edx, edx
	mov	ecx, 8
	div	rcx
	mov	rcx, QWORD PTR list$[rsp]
	lea	rax, QWORD PTR [rcx+rax*8]
	cmp	QWORD PTR it$[rsp], rax
	jae	SHORT $LN3@ccemit_tre
	mov	rax, QWORD PTR it$[rsp]
	mov	r9, QWORD PTR [rax]
	mov	r8, QWORD PTR irset$[rsp]
	mov	rdx, QWORD PTR func$[rsp]
	mov	rcx, QWORD PTR emit$[rsp]
	call	ccemit_tree
	jmp	SHORT $LN2@ccemit_tre
$LN3@ccemit_tre:
; Line 188
	add	rsp, 56					; 00000038H
	ret	0
ccemit_treelist ENDP
_TEXT	ENDS
; Function compile flags: /Odtp
_TEXT	SEGMENT
lval$1 = 32
rval$2 = 40
rval$3 = 48
cvalue$4 = 56
j$5 = 64
v$6 = 72
c$7 = 80
l$8 = 88
$T9 = 96
$T10 = 128
$T11 = 160
$T12 = 192
$T13 = 224
$T14 = 248
$T15 = 272
p$16 = 304
$T17 = 336
$T18 = 368
$T19 = 400
$T20 = 432
$T21 = 456
$T22 = 480
emit$ = 544
func$ = 552
irset$ = 560
tree$ = 568
ccemit_tree PROC
; File W:\cpp\void\ktt-c\ccemit.c
; Line 216
	mov	QWORD PTR [rsp+32], r9
	mov	QWORD PTR [rsp+24], r8
	mov	QWORD PTR [rsp+16], rdx
	mov	QWORD PTR [rsp+8], rcx
	push	rsi
	push	rdi
	sub	rsp, 520				; 00000208H
; Line 217
	mov	rax, QWORD PTR tree$[rsp]
	cmp	DWORD PTR [rax], 16
	jne	SHORT $LN2@ccemit_tre
; Line 219
	mov	r9, QWORD PTR tree$[rsp]
	mov	r8, QWORD PTR irset$[rsp]
	mov	rdx, QWORD PTR func$[rsp]
	mov	rcx, QWORD PTR emit$[rsp]
	call	ccemit_decl
; Line 221
	xor	eax, eax
	jmp	$LN1@ccemit_tre
; Line 222
	jmp	$LN3@ccemit_tre
$LN2@ccemit_tre:
; Line 223
	mov	rax, QWORD PTR tree$[rsp]
	cmp	DWORD PTR [rax], 10
	jne	SHORT $LN4@ccemit_tre
; Line 225
	mov	rax, QWORD PTR tree$[rsp]
	mov	r9, QWORD PTR [rax+32]
	mov	r8, QWORD PTR irset$[rsp]
	mov	rdx, QWORD PTR func$[rsp]
	mov	rcx, QWORD PTR emit$[rsp]
	call	ccemit_treelist
; Line 226
	xor	eax, eax
	jmp	$LN1@ccemit_tre
; Line 227
	jmp	$LN5@ccemit_tre
$LN4@ccemit_tre:
; Line 228
	mov	rax, QWORD PTR tree$[rsp]
	cmp	DWORD PTR [rax], 11
	jne	SHORT $LN6@ccemit_tre
; Line 233
	jmp	$LN7@ccemit_tre
$LN6@ccemit_tre:
; Line 234
	mov	rax, QWORD PTR tree$[rsp]
	cmp	DWORD PTR [rax], 12
	jne	SHORT $LN8@ccemit_tre
; Line 236
	mov	rax, QWORD PTR tree$[rsp]
	mov	r9, QWORD PTR [rax+80]
	mov	r8, QWORD PTR irset$[rsp]
	mov	rdx, QWORD PTR func$[rsp]
	mov	rcx, QWORD PTR emit$[rsp]
	call	ccemit_rvalue
	mov	QWORD PTR rval$3[rsp], rax
; Line 238
	mov	rdx, QWORD PTR rval$3[rsp]
	mov	rcx, QWORD PTR irset$[rsp]
	call	ccblock_return
	jmp	$LN1@ccemit_tre
; Line 239
	jmp	$LN9@ccemit_tre
$LN8@ccemit_tre:
; Line 240
	mov	rax, QWORD PTR tree$[rsp]
	cmp	DWORD PTR [rax], 13
	jne	SHORT $LN10@ccemit_tre
; Line 243
	jmp	$LN11@ccemit_tre
$LN10@ccemit_tre:
; Line 244
	mov	rax, QWORD PTR tree$[rsp]
	cmp	DWORD PTR [rax], 21
	jne	SHORT $LN12@ccemit_tre
; Line 246
	mov	r9, QWORD PTR tree$[rsp]
	mov	r8, QWORD PTR irset$[rsp]
	mov	rdx, QWORD PTR func$[rsp]
	mov	rcx, QWORD PTR emit$[rsp]
	call	ccemit_invoke_easy
	jmp	$LN1@ccemit_tre
; Line 247
	jmp	$LN13@ccemit_tre
$LN12@ccemit_tre:
; Line 248
	mov	rax, QWORD PTR tree$[rsp]
	cmp	DWORD PTR [rax], 18
	jne	$LN14@ccemit_tre
; Line 251
	mov	rax, QWORD PTR tree$[rsp]
	mov	r9, QWORD PTR [rax+72]
	mov	r8, QWORD PTR irset$[rsp]
	mov	rdx, QWORD PTR func$[rsp]
	mov	rcx, QWORD PTR emit$[rsp]
	call	ccemit_lvalue
	mov	QWORD PTR lval$1[rsp], rax
; Line 252
	mov	rax, QWORD PTR tree$[rsp]
	mov	r9, QWORD PTR [rax+80]
	mov	r8, QWORD PTR irset$[rsp]
	mov	rdx, QWORD PTR func$[rsp]
	mov	rcx, QWORD PTR emit$[rsp]
	call	ccemit_rvalue
	mov	QWORD PTR rval$2[rsp], rax
; Line 254
	mov	rax, QWORD PTR tree$[rsp]
	cmp	DWORD PTR [rax+40], 109			; 0000006dH
	jne	SHORT $LN16@ccemit_tre
; Line 256
	mov	r8, QWORD PTR rval$2[rsp]
	mov	rdx, QWORD PTR lval$1[rsp]
	mov	rcx, QWORD PTR irset$[rsp]
	call	ccblock_store
	jmp	$LN1@ccemit_tre
; Line 257
	jmp	SHORT $LN17@ccemit_tre
$LN16@ccemit_tre:
; Line 261
	xor	r8d, r8d
	mov	rdx, QWORD PTR lval$1[rsp]
	mov	rcx, QWORD PTR irset$[rsp]
	call	ccblock_fetch
	mov	QWORD PTR lval$1[rsp], rax
; Line 263
	mov	r9, QWORD PTR rval$2[rsp]
	mov	r8, QWORD PTR lval$1[rsp]
	mov	rax, QWORD PTR tree$[rsp]
	mov	edx, DWORD PTR [rax+40]
	mov	rcx, QWORD PTR irset$[rsp]
	call	ccblock_arith
	jmp	$LN1@ccemit_tre
$LN17@ccemit_tre:
; Line 266
	jmp	$LN15@ccemit_tre
$LN14@ccemit_tre:
; Line 267
	mov	rax, QWORD PTR tree$[rsp]
	cmp	DWORD PTR [rax], 17
	jne	$LN18@ccemit_tre
; Line 268
	mov	rax, QWORD PTR tree$[rsp]
	mov	r9, QWORD PTR [rax+64]
	mov	r8, QWORD PTR irset$[rsp]
	mov	rdx, QWORD PTR func$[rsp]
	mov	rcx, QWORD PTR emit$[rsp]
	call	ccemit_tree
	mov	QWORD PTR cvalue$4[rsp], rax
; Line 271
	lea	rax, QWORD PTR $T9[rsp]
	mov	rdi, rax
	xor	eax, eax
	mov	ecx, 24
	rep stosb
	lea	rax, QWORD PTR $T10[rsp]
	lea	rcx, QWORD PTR $T9[rsp]
	mov	rdi, rax
	mov	rsi, rcx
	mov	ecx, 24
	rep movsb
	mov	r8, QWORD PTR cvalue$4[rsp]
	lea	rdx, QWORD PTR $T10[rsp]
	mov	rcx, QWORD PTR irset$[rsp]
	call	ccblock_fjump
	mov	QWORD PTR j$5[rsp], rax
; Line 273
	mov	rax, QWORD PTR tree$[rsp]
	cmp	QWORD PTR [rax+72], 0
	je	SHORT $LN20@ccemit_tre
	mov	rax, QWORD PTR tree$[rsp]
	mov	r9, QWORD PTR [rax+72]
	mov	r8, QWORD PTR irset$[rsp]
	mov	rdx, QWORD PTR func$[rsp]
	mov	rcx, QWORD PTR emit$[rsp]
	call	ccemit_tree
$LN20@ccemit_tre:
; Line 275
	lea	r8, OFFSET FLAT:$SG49594
	mov	rdx, QWORD PTR irset$[rsp]
	lea	rcx, QWORD PTR $T20[rsp]
	call	ccblock_label
	lea	rcx, QWORD PTR $T11[rsp]
	mov	rdi, rcx
	mov	rsi, rax
	mov	ecx, 24
	rep movsb
	lea	rax, QWORD PTR $T12[rsp]
	lea	rcx, QWORD PTR $T11[rsp]
	mov	rdi, rax
	mov	rsi, rcx
	mov	ecx, 24
	rep movsb
	lea	rdx, QWORD PTR $T12[rsp]
	mov	rcx, QWORD PTR j$5[rsp]
	call	ccvalue_retarget
; Line 278
	mov	rax, QWORD PTR tree$[rsp]
	cmp	QWORD PTR [rax+80], 0
	je	SHORT $LN21@ccemit_tre
	mov	rax, QWORD PTR tree$[rsp]
	mov	r9, QWORD PTR [rax+80]
	mov	r8, QWORD PTR irset$[rsp]
	mov	rdx, QWORD PTR func$[rsp]
	mov	rcx, QWORD PTR emit$[rsp]
	call	ccemit_tree
$LN21@ccemit_tre:
; Line 280
	xor	eax, eax
	jmp	$LN1@ccemit_tre
; Line 281
	jmp	$LN19@ccemit_tre
$LN18@ccemit_tre:
; Line 282
	mov	rax, QWORD PTR tree$[rsp]
	cmp	DWORD PTR [rax], 14
	jne	$LN22@ccemit_tre
; Line 287
	lea	r8, OFFSET FLAT:$SG49597
	mov	rdx, QWORD PTR irset$[rsp]
	lea	rcx, QWORD PTR $T21[rsp]
	call	ccblock_label
	lea	rcx, QWORD PTR $T13[rsp]
	mov	rdi, rcx
	mov	rsi, rax
	mov	ecx, 24
	rep movsb
	lea	rax, QWORD PTR p$16[rsp]
	lea	rcx, QWORD PTR $T13[rsp]
	mov	rdi, rax
	mov	rsi, rcx
	mov	ecx, 24
	rep movsb
; Line 288
	mov	rax, QWORD PTR tree$[rsp]
	mov	r9, QWORD PTR [rax+64]
	mov	r8, QWORD PTR irset$[rsp]
	mov	rdx, QWORD PTR func$[rsp]
	mov	rcx, QWORD PTR emit$[rsp]
	call	ccemit_rvalue
	mov	QWORD PTR v$6[rsp], rax
; Line 289
	lea	rax, QWORD PTR $T14[rsp]
	mov	rdi, rax
	xor	eax, eax
	mov	ecx, 24
	rep stosb
	lea	rax, QWORD PTR $T15[rsp]
	lea	rcx, QWORD PTR $T14[rsp]
	mov	rdi, rax
	mov	rsi, rcx
	mov	ecx, 24
	rep movsb
	mov	r8, QWORD PTR v$6[rsp]
	lea	rdx, QWORD PTR $T15[rsp]
	mov	rcx, QWORD PTR irset$[rsp]
	call	ccblock_fjump
	mov	QWORD PTR c$7[rsp], rax
; Line 291
	mov	rax, QWORD PTR tree$[rsp]
	mov	r9, QWORD PTR [rax+72]
	mov	r8, QWORD PTR irset$[rsp]
	mov	rdx, QWORD PTR func$[rsp]
	mov	rcx, QWORD PTR emit$[rsp]
	call	ccemit_tree
; Line 293
	lea	rax, QWORD PTR $T17[rsp]
	lea	rcx, QWORD PTR p$16[rsp]
	mov	rdi, rax
	mov	rsi, rcx
	mov	ecx, 24
	rep movsb
	lea	rdx, QWORD PTR $T17[rsp]
	mov	rcx, QWORD PTR irset$[rsp]
	call	ccblock_jump
	mov	QWORD PTR l$8[rsp], rax
; Line 295
	lea	r8, OFFSET FLAT:$SG49598
	mov	rdx, QWORD PTR irset$[rsp]
	lea	rcx, QWORD PTR $T22[rsp]
	call	ccblock_label
	lea	rcx, QWORD PTR $T18[rsp]
	mov	rdi, rcx
	mov	rsi, rax
	mov	ecx, 24
	rep movsb
	lea	rax, QWORD PTR $T19[rsp]
	lea	rcx, QWORD PTR $T18[rsp]
	mov	rdi, rax
	mov	rsi, rcx
	mov	ecx, 24
	rep movsb
	lea	rdx, QWORD PTR $T19[rsp]
	mov	rcx, QWORD PTR c$7[rsp]
	call	ccvalue_retarget
; Line 298
	xor	eax, eax
	jmp	SHORT $LN1@ccemit_tre
$LN22@ccemit_tre:
$LN19@ccemit_tre:
$LN15@ccemit_tre:
$LN13@ccemit_tre:
$LN11@ccemit_tre:
$LN9@ccemit_tre:
$LN7@ccemit_tre:
$LN5@ccemit_tre:
$LN3@ccemit_tre:
; Line 301
	lea	rax, OFFSET FLAT:$SG49599
	test	rax, rax
	je	SHORT $LN24@ccemit_tre
	int	3
$LN24@ccemit_tre:
; Line 302
	xor	eax, eax
$LN1@ccemit_tre:
; Line 303
	add	rsp, 520				; 00000208H
	pop	rdi
	pop	rsi
	ret	0
ccemit_tree ENDP
_TEXT	ENDS
; Function compile flags: /Odtp
_TEXT	SEGMENT
tv78 = 32
rtree$ = 40
list$ = 48
rvalue$ = 56
allude$ = 64
ltree$ = 72
tv92 = 80
call$ = 88
emit$ = 112
func$ = 120
block$ = 128
tree$ = 136
ccemit_invoke_easy PROC
; File W:\cpp\void\ktt-c\ccemit.c
; Line 100
	mov	QWORD PTR [rsp+32], r9
	mov	QWORD PTR [rsp+24], r8
	mov	QWORD PTR [rsp+16], rdx
	mov	QWORD PTR [rsp+8], rcx
	sub	rsp, 104				; 00000068H
; Line 101
	mov	rax, QWORD PTR tree$[rsp]
	mov	rax, QWORD PTR [rax+72]
	mov	QWORD PTR ltree$[rsp], rax
; Line 102
	mov	rax, QWORD PTR tree$[rsp]
	mov	rax, QWORD PTR [rax+80]
	mov	QWORD PTR rtree$[rsp], rax
; Line 104
	mov	rax, QWORD PTR ltree$[rsp]
	cmp	DWORD PTR [rax], 6
	je	SHORT $LN6@ccemit_inv
	int	3
$LN6@ccemit_inv:
; Line 106
	mov	rcx, QWORD PTR tree$[rsp]
	call	cctree_resolve_symbol
	mov	QWORD PTR allude$[rsp], rax
; Line 107
	cmp	QWORD PTR allude$[rsp], 0
	jne	SHORT $LN8@ccemit_inv
	int	3
$LN8@ccemit_inv:
; Line 109
	mov	rdx, QWORD PTR allude$[rsp]
	mov	rcx, QWORD PTR emit$[rsp]
	call	ccemit_global
	mov	QWORD PTR call$[rsp], rax
; Line 111
	mov	QWORD PTR rvalue$[rsp], 0
; Line 114
	mov	rax, QWORD PTR rtree$[rsp]
	mov	QWORD PTR list$[rsp], rax
	jmp	SHORT $LN4@ccemit_inv
$LN2@ccemit_inv:
	mov	rax, QWORD PTR list$[rsp]
	add	rax, 136				; 00000088H
	mov	QWORD PTR list$[rsp], rax
$LN4@ccemit_inv:
	cmp	QWORD PTR rtree$[rsp], 0
	je	SHORT $LN10@ccemit_inv
	mov	eax, 4
	imul	rax, rax, -1
	mov	rcx, QWORD PTR rtree$[rsp]
	mov	eax, DWORD PTR [rcx+rax]
	mov	DWORD PTR tv78[rsp], eax
	jmp	SHORT $LN11@ccemit_inv
$LN10@ccemit_inv:
	mov	DWORD PTR tv78[rsp], 0
$LN11@ccemit_inv:
	mov	eax, DWORD PTR tv78[rsp]
	xor	edx, edx
	mov	ecx, 136				; 00000088H
	div	rcx
	imul	rax, rax, 136				; 00000088H
	mov	rcx, QWORD PTR rtree$[rsp]
	add	rcx, rax
	mov	rax, rcx
	cmp	QWORD PTR list$[rsp], rax
	jae	SHORT $LN3@ccemit_inv
; Line 115
	mov	r9, QWORD PTR list$[rsp]
	mov	r8, QWORD PTR block$[rsp]
	mov	rdx, QWORD PTR func$[rsp]
	mov	rcx, QWORD PTR emit$[rsp]
	call	ccemit_rvalue
	mov	QWORD PTR tv92[rsp], rax
	mov	r9d, 1
	mov	r8d, 1
	mov	edx, 8
	lea	rcx, QWORD PTR rvalue$[rsp]
	call	ccdlb_arradd
	mov	eax, eax
	mov	rcx, QWORD PTR rvalue$[rsp]
	mov	rdx, QWORD PTR tv92[rsp]
	mov	QWORD PTR [rcx+rax*8], rdx
	jmp	$LN2@ccemit_inv
$LN3@ccemit_inv:
; Line 117
	mov	r8, QWORD PTR rvalue$[rsp]
	mov	rax, QWORD PTR call$[rsp]
	mov	rdx, QWORD PTR [rax+56]
	mov	rcx, QWORD PTR block$[rsp]
	call	ccblock_invoke
; Line 118
	add	rsp, 104				; 00000068H
	ret	0
ccemit_invoke_easy ENDP
_TEXT	ENDS
; Function compile flags: /Odtp
_TEXT	SEGMENT
couple$ = 32
result$ = 40
emit$ = 64
func$ = 72
tree$ = 80
ccemit_resolve PROC
; File W:\cpp\void\ktt-c\ccemit.c
; Line 84
	mov	QWORD PTR [rsp+24], r8
	mov	QWORD PTR [rsp+16], rdx
	mov	QWORD PTR [rsp+8], rcx
	sub	rsp, 56					; 00000038H
	cmp	QWORD PTR tree$[rsp], 0
	jne	SHORT $LN3@ccemit_res
	int	3
$LN3@ccemit_res:
; Line 85
	mov	rax, QWORD PTR tree$[rsp]
	cmp	DWORD PTR [rax], 6
	je	SHORT $LN5@ccemit_res
	mov	rax, QWORD PTR tree$[rsp]
	cmp	DWORD PTR [rax], 22
	je	SHORT $LN5@ccemit_res
	int	3
$LN5@ccemit_res:
; Line 88
	mov	rcx, QWORD PTR tree$[rsp]
	call	cctree_resolve_symbol
	mov	QWORD PTR couple$[rsp], rax
; Line 89
	cmp	QWORD PTR couple$[rsp], 0
	jne	SHORT $LN7@ccemit_res
	int	3
$LN7@ccemit_res:
; Line 92
	mov	rdx, QWORD PTR couple$[rsp]
	mov	rcx, QWORD PTR func$[rsp]
	call	ccprocd_local
	mov	QWORD PTR result$[rsp], rax
; Line 93
	cmp	QWORD PTR result$[rsp], 0
	jne	SHORT $LN9@ccemit_res
	int	3
$LN9@ccemit_res:
; Line 94
	mov	rax, QWORD PTR result$[rsp]
; Line 95
	add	rsp, 56					; 00000038H
	ret	0
ccemit_resolve ENDP
_TEXT	ENDS
; Function compile flags: /Odtp
_TEXT	SEGMENT
classic$ = 32
emit$ = 64
value$ = 72
ccemit_const_i32 PROC
; File W:\cpp\void\ktt-c\ccemit.c
; Line 77
	mov	QWORD PTR [rsp+16], rdx
	mov	QWORD PTR [rsp+8], rcx
	sub	rsp, 56					; 00000038H
; Line 78
	mov	rax, QWORD PTR value$[rsp]
	mov	QWORD PTR classic$[rsp], rax
; Line 79
	mov	r8, QWORD PTR classic$[rsp]
	xor	edx, edx
	mov	rcx, QWORD PTR emit$[rsp]
	call	ccemit_constant
; Line 80
	add	rsp, 56					; 00000038H
	ret	0
ccemit_const_i32 ENDP
_TEXT	ENDS
; Function compile flags: /Odtp
_TEXT	SEGMENT
value$ = 32
emit$ = 64
type$ = 72
clsc$ = 80
ccemit_constant PROC
; File W:\cpp\void\ktt-c\ccemit.c
; Line 63
	mov	QWORD PTR [rsp+24], r8
	mov	QWORD PTR [rsp+16], rdx
	mov	QWORD PTR [rsp+8], rcx
	sub	rsp, 56					; 00000038H
; Line 65
	mov	r9d, 65					; 00000041H
	lea	r8, OFFSET FLAT:$SG49442
	lea	rdx, OFFSET FLAT:$SG49443
	mov	ecx, 80					; 00000050H
	call	ccmalloc_
	mov	QWORD PTR value$[rsp], rax
; Line 66
	mov	r8d, 80					; 00000050H
	xor	edx, edx
	mov	rcx, QWORD PTR value$[rsp]
	call	memset
; Line 68
	mov	rax, QWORD PTR value$[rsp]
	mov	DWORD PTR [rax], 2
; Line 69
	mov	rax, QWORD PTR value$[rsp]
	mov	rcx, QWORD PTR type$[rsp]
	mov	QWORD PTR [rax+64], rcx
; Line 70
	mov	rax, QWORD PTR value$[rsp]
	mov	rcx, QWORD PTR clsc$[rsp]
	mov	QWORD PTR [rax+72], rcx
; Line 71
	mov	rax, QWORD PTR value$[rsp]
; Line 72
	add	rsp, 56					; 00000038H
	ret	0
ccemit_constant ENDP
_TEXT	ENDS
; Function compile flags: /Odtp
_TEXT	SEGMENT
type$ = 32
tv83 = 40
i$ = 48
e$ = 56
v$ = 64
emit$ = 96
func$ = 104
block$ = 112
tree$ = 120
is_param$ = 128
ccemit_include_local PROC
; File W:\cpp\void\ktt-c\ccemit.c
; Line 43
	mov	QWORD PTR [rsp+32], r9
	mov	QWORD PTR [rsp+24], r8
	mov	QWORD PTR [rsp+16], rdx
	mov	QWORD PTR [rsp+8], rcx
	sub	rsp, 88					; 00000058H
; Line 44
	cmp	QWORD PTR tree$[rsp], 0
	jne	SHORT $LN3@ccemit_inc
	int	3
$LN3@ccemit_inc:
; Line 45
	mov	rax, QWORD PTR tree$[rsp]
	cmp	DWORD PTR [rax], 15
	je	SHORT $LN5@ccemit_inc
	int	3
$LN5@ccemit_inc:
; Line 47
	mov	rax, QWORD PTR tree$[rsp]
	mov	r9, QWORD PTR [rax+48]
	mov	r8, QWORD PTR block$[rsp]
	mov	rdx, QWORD PTR func$[rsp]
	mov	rcx, QWORD PTR emit$[rsp]
	call	cctree_to_type
	mov	QWORD PTR type$[rsp], rax
; Line 48
	cmp	QWORD PTR type$[rsp], 0
	jne	SHORT $LN7@ccemit_inc
	int	3
$LN7@ccemit_inc:
; Line 50
	cmp	DWORD PTR is_param$[rsp], 0
	je	SHORT $LN9@ccemit_inc
	mov	rax, QWORD PTR tree$[rsp]
	mov	rdx, QWORD PTR [rax+24]
	mov	rcx, QWORD PTR type$[rsp]
	call	ccedict_param
	mov	QWORD PTR tv83[rsp], rax
	jmp	SHORT $LN10@ccemit_inc
$LN9@ccemit_inc:
	mov	rax, QWORD PTR tree$[rsp]
	mov	rdx, QWORD PTR [rax+24]
	mov	rcx, QWORD PTR type$[rsp]
	call	ccedict_local
	mov	QWORD PTR tv83[rsp], rax
$LN10@ccemit_inc:
	mov	rax, QWORD PTR tv83[rsp]
	mov	QWORD PTR e$[rsp], rax
; Line 54
	mov	rdx, QWORD PTR e$[rsp]
	mov	rax, QWORD PTR func$[rsp]
	mov	rcx, QWORD PTR [rax+32]
	call	ccblock_add_edict
	mov	QWORD PTR i$[rsp], rax
; Line 55
	mov	rax, QWORD PTR func$[rsp]
	add	rax, 16
	mov	r9, QWORD PTR tree$[rsp]
	mov	r8d, -8
	mov	edx, 8
	mov	rcx, rax
	call	ccdlb_tblput
	mov	eax, eax
	mov	rcx, QWORD PTR func$[rsp]
	mov	rcx, QWORD PTR [rcx+16]
	lea	rax, QWORD PTR [rcx+rax*8]
	mov	QWORD PTR v$[rsp], rax
; Line 56
	mov	eax, OFFSET FLAT:ccerr
	mov	eax, eax
	mov	ecx, DWORD PTR _tls_index
	mov	rdx, QWORD PTR gs:88
	mov	rcx, QWORD PTR [rdx+rcx*8]
	cmp	DWORD PTR [rax+rcx], 0
	je	SHORT $LN11@ccemit_inc
	int	3
$LN11@ccemit_inc:
; Line 57
	mov	rax, QWORD PTR v$[rsp]
	mov	rcx, QWORD PTR i$[rsp]
	mov	QWORD PTR [rax], rcx
; Line 58
	mov	rax, QWORD PTR i$[rsp]
; Line 59
	add	rsp, 88					; 00000058H
	ret	0
ccemit_include_local ENDP
_TEXT	ENDS
; Function compile flags: /Odtp
_TEXT	SEGMENT
type$ = 32
v$1 = 40
emit$ = 64
func$ = 72
block$ = 80
tree$ = 88
cctree_to_type PROC
; File W:\cpp\void\ktt-c\ccemit.c
; Line 24
	mov	QWORD PTR [rsp+32], r9
	mov	QWORD PTR [rsp+24], r8
	mov	QWORD PTR [rsp+16], rdx
	mov	QWORD PTR [rsp+8], rcx
	sub	rsp, 56					; 00000038H
	mov	QWORD PTR type$[rsp], 0
; Line 25
	mov	rax, QWORD PTR tree$[rsp]
	cmp	DWORD PTR [rax], 4
	jne	SHORT $LN2@cctree_to_
; Line 27
	lea	rdx, OFFSET FLAT:$SG49414
	mov	ecx, 1
	call	cctype
	mov	QWORD PTR type$[rsp], rax
; Line 28
	mov	rax, QWORD PTR tree$[rsp]
	mov	r9, QWORD PTR [rax+48]
	mov	r8, QWORD PTR block$[rsp]
	mov	rdx, QWORD PTR func$[rsp]
	mov	rcx, QWORD PTR emit$[rsp]
	call	cctree_to_type
	mov	rcx, QWORD PTR type$[rsp]
	mov	QWORD PTR [rcx+16], rax
; Line 30
	mov	rax, QWORD PTR tree$[rsp]
	mov	r9, QWORD PTR [rax+80]
	mov	r8, QWORD PTR block$[rsp]
	mov	rdx, QWORD PTR func$[rsp]
	mov	rcx, QWORD PTR emit$[rsp]
	call	ccemit_rvalue
	mov	QWORD PTR v$1[rsp], rax
; Line 31
	mov	rax, QWORD PTR type$[rsp]
	mov	rcx, QWORD PTR v$1[rsp]
	mov	QWORD PTR [rax+24], rcx
; Line 33
	jmp	SHORT $LN3@cctree_to_
$LN2@cctree_to_:
; Line 34
	mov	rax, QWORD PTR tree$[rsp]
	cmp	DWORD PTR [rax], 0
	jne	SHORT $LN4@cctree_to_
; Line 35
	lea	rdx, OFFSET FLAT:$SG49417
	xor	ecx, ecx
	call	cctype
	mov	QWORD PTR type$[rsp], rax
; Line 36
	jmp	SHORT $LN5@cctree_to_
$LN4@cctree_to_:
; Line 37
	lea	rax, OFFSET FLAT:$SG49418
	test	rax, rax
	je	SHORT $LN7@cctree_to_
	int	3
$LN7@cctree_to_:
$LN5@cctree_to_:
$LN3@cctree_to_:
; Line 38
	mov	rax, QWORD PTR type$[rsp]
; Line 39
	add	rsp, 56					; 00000038H
	ret	0
cctree_to_type ENDP
_TEXT	ENDS
; Function compile flags: /Odtp
_TEXT	SEGMENT
tv65 = 32
value$ = 40
tv72 = 48
rval$1 = 56
lval$2 = 64
emit$ = 96
func$ = 104
block$ = 112
tree$ = 120
ccemit_rvalue PROC
; File W:\cpp\void\ktt-c\ccemit.c
; Line 146
	mov	QWORD PTR [rsp+32], r9
	mov	QWORD PTR [rsp+24], r8
	mov	QWORD PTR [rsp+16], rdx
	mov	QWORD PTR [rsp+8], rcx
	sub	rsp, 88					; 00000058H
	mov	QWORD PTR value$[rsp], 0
; Line 147
	mov	rax, QWORD PTR tree$[rsp]
	mov	eax, DWORD PTR [rax]
	mov	DWORD PTR tv65[rsp], eax
	cmp	DWORD PTR tv65[rsp], 6
	je	$LN6@ccemit_rva
	cmp	DWORD PTR tv65[rsp], 7
	je	SHORT $LN4@ccemit_rva
	cmp	DWORD PTR tv65[rsp], 18
	je	SHORT $LN5@ccemit_rva
	cmp	DWORD PTR tv65[rsp], 21
	je	$LN7@ccemit_rva
	cmp	DWORD PTR tv65[rsp], 22
	je	$LN8@ccemit_rva
	jmp	$LN9@ccemit_rva
$LN4@ccemit_rva:
; Line 149
	mov	rax, QWORD PTR tree$[rsp]
	movsxd	rax, DWORD PTR [rax+96]
	mov	rdx, rax
	mov	rcx, QWORD PTR emit$[rsp]
	call	ccemit_const_i32
	mov	QWORD PTR value$[rsp], rax
; Line 150
	jmp	$LN2@ccemit_rva
$LN5@ccemit_rva:
; Line 152
	mov	rax, QWORD PTR tree$[rsp]
	mov	r9, QWORD PTR [rax+80]
	mov	r8, QWORD PTR block$[rsp]
	mov	rdx, QWORD PTR func$[rsp]
	mov	rcx, QWORD PTR emit$[rsp]
	call	ccemit_rvalue
	mov	QWORD PTR tv72[rsp], rax
	mov	rcx, QWORD PTR tree$[rsp]
	mov	r9, QWORD PTR [rcx+72]
	mov	r8, QWORD PTR block$[rsp]
	mov	rdx, QWORD PTR func$[rsp]
	mov	rcx, QWORD PTR emit$[rsp]
	call	ccemit_rvalue
	mov	rcx, QWORD PTR tv72[rsp]
	mov	r9, rcx
	mov	r8, rax
	mov	rax, QWORD PTR tree$[rsp]
	mov	edx, DWORD PTR [rax+40]
	mov	rcx, QWORD PTR block$[rsp]
	call	ccblock_arith
	mov	QWORD PTR value$[rsp], rax
; Line 156
	jmp	$LN2@ccemit_rva
$LN6@ccemit_rva:
; Line 158
	mov	r8, QWORD PTR tree$[rsp]
	mov	rdx, QWORD PTR func$[rsp]
	mov	rcx, QWORD PTR emit$[rsp]
	call	ccemit_resolve
	xor	r8d, r8d
	mov	rdx, rax
	mov	rcx, QWORD PTR block$[rsp]
	call	ccblock_fetch
	mov	QWORD PTR value$[rsp], rax
; Line 159
	jmp	$LN2@ccemit_rva
$LN7@ccemit_rva:
; Line 161
	mov	r9, QWORD PTR tree$[rsp]
	mov	r8, QWORD PTR block$[rsp]
	mov	rdx, QWORD PTR func$[rsp]
	mov	rcx, QWORD PTR emit$[rsp]
	call	ccemit_invoke_easy
	mov	QWORD PTR value$[rsp], rax
; Line 162
	jmp	$LN2@ccemit_rva
$LN8@ccemit_rva:
; Line 164
	mov	rax, QWORD PTR tree$[rsp]
	cmp	QWORD PTR [rax+72], 0
	jne	SHORT $LN11@ccemit_rva
	int	3
$LN11@ccemit_rva:
; Line 165
	mov	rax, QWORD PTR tree$[rsp]
	cmp	QWORD PTR [rax+80], 0
	jne	SHORT $LN13@ccemit_rva
	int	3
$LN13@ccemit_rva:
; Line 168
	mov	rax, QWORD PTR tree$[rsp]
	mov	r9, QWORD PTR [rax+72]
	mov	r8, QWORD PTR block$[rsp]
	mov	rdx, QWORD PTR func$[rsp]
	mov	rcx, QWORD PTR emit$[rsp]
	call	ccemit_lvalue
	mov	QWORD PTR lval$2[rsp], rax
; Line 169
	mov	rax, QWORD PTR tree$[rsp]
	mov	r9, QWORD PTR [rax+80]
	mov	r8, QWORD PTR block$[rsp]
	mov	rdx, QWORD PTR func$[rsp]
	mov	rcx, QWORD PTR emit$[rsp]
	call	ccemit_rvalue
	mov	QWORD PTR rval$1[rsp], rax
; Line 171
	mov	r8, QWORD PTR rval$1[rsp]
	mov	rdx, QWORD PTR lval$2[rsp]
	mov	rcx, QWORD PTR block$[rsp]
	call	ccblock_fetch
	mov	QWORD PTR value$[rsp], rax
; Line 172
	jmp	SHORT $LN2@ccemit_rva
$LN9@ccemit_rva:
; Line 173
	lea	rax, OFFSET FLAT:$SG49506
	test	rax, rax
	je	SHORT $LN15@ccemit_rva
	int	3
$LN15@ccemit_rva:
$LN2@ccemit_rva:
; Line 175
	mov	rax, QWORD PTR value$[rsp]
; Line 176
	add	rsp, 88					; 00000058H
	ret	0
ccemit_rvalue ENDP
_TEXT	ENDS
; Function compile flags: /Odtp
_TEXT	SEGMENT
tv65 = 32
value$ = 40
rval$1 = 48
lval$2 = 56
emit$ = 80
func$ = 88
block$ = 96
tree$ = 104
ccemit_lvalue PROC
; File W:\cpp\void\ktt-c\ccemit.c
; Line 122
	mov	QWORD PTR [rsp+32], r9
	mov	QWORD PTR [rsp+24], r8
	mov	QWORD PTR [rsp+16], rdx
	mov	QWORD PTR [rsp+8], rcx
	sub	rsp, 72					; 00000048H
	mov	QWORD PTR value$[rsp], 0
; Line 123
	mov	rax, QWORD PTR tree$[rsp]
	mov	eax, DWORD PTR [rax]
	mov	DWORD PTR tv65[rsp], eax
	cmp	DWORD PTR tv65[rsp], 6
	je	SHORT $LN4@ccemit_lva
	cmp	DWORD PTR tv65[rsp], 22
	je	SHORT $LN5@ccemit_lva
	jmp	$LN6@ccemit_lva
$LN4@ccemit_lva:
; Line 125
	mov	r8, QWORD PTR tree$[rsp]
	mov	rdx, QWORD PTR func$[rsp]
	mov	rcx, QWORD PTR emit$[rsp]
	call	ccemit_resolve
	mov	QWORD PTR value$[rsp], rax
; Line 126
	jmp	$LN2@ccemit_lva
$LN5@ccemit_lva:
; Line 129
	mov	rax, QWORD PTR tree$[rsp]
	cmp	QWORD PTR [rax+72], 0
	jne	SHORT $LN8@ccemit_lva
	int	3
$LN8@ccemit_lva:
; Line 130
	mov	rax, QWORD PTR tree$[rsp]
	cmp	QWORD PTR [rax+80], 0
	jne	SHORT $LN10@ccemit_lva
	int	3
$LN10@ccemit_lva:
; Line 133
	mov	rax, QWORD PTR tree$[rsp]
	mov	r9, QWORD PTR [rax+72]
	mov	r8, QWORD PTR block$[rsp]
	mov	rdx, QWORD PTR func$[rsp]
	mov	rcx, QWORD PTR emit$[rsp]
	call	ccemit_lvalue
	mov	QWORD PTR lval$2[rsp], rax
; Line 134
	mov	rax, QWORD PTR tree$[rsp]
	mov	r9, QWORD PTR [rax+80]
	mov	r8, QWORD PTR block$[rsp]
	mov	rdx, QWORD PTR func$[rsp]
	mov	rcx, QWORD PTR emit$[rsp]
	call	ccemit_rvalue
	mov	QWORD PTR rval$1[rsp], rax
; Line 136
	mov	r8, QWORD PTR rval$1[rsp]
	mov	rdx, QWORD PTR lval$2[rsp]
	mov	rcx, QWORD PTR block$[rsp]
	call	ccblock_address
	mov	QWORD PTR value$[rsp], rax
; Line 137
	jmp	SHORT $LN2@ccemit_lva
$LN6@ccemit_lva:
; Line 139
	lea	rax, OFFSET FLAT:$SG49488
	test	rax, rax
	je	SHORT $LN12@ccemit_lva
	int	3
$LN12@ccemit_lva:
$LN2@ccemit_lva:
; Line 141
	mov	rax, QWORD PTR value$[rsp]
; Line 142
	add	rsp, 72					; 00000048H
	ret	0
ccemit_lvalue ENDP
_TEXT	ENDS
; Function compile flags: /Odtp
_TEXT	SEGMENT
tree$ = 32
next$1 = 40
reader$ = 64
ccread_translation_unit PROC
; File W:\cpp\void\ktt-c\ccread.c
; Line 1231
	mov	QWORD PTR [rsp+8], rcx
	sub	rsp, 56					; 00000038H
; Line 1232
	call	cctree_translation_unit
	mov	QWORD PTR tree$[rsp], rax
$LN2@ccread_tra:
; Line 1234
	xor	r8d, r8d
	mov	rdx, QWORD PTR tree$[rsp]
	mov	rcx, QWORD PTR reader$[rsp]
	call	ccread_external_declaration
	mov	QWORD PTR next$1[rsp], rax
	cmp	QWORD PTR next$1[rsp], 0
	je	SHORT $LN3@ccread_tra
; Line 1235
	mov	rax, QWORD PTR tree$[rsp]
	add	rax, 32					; 00000020H
	mov	r9d, 1
	mov	r8d, 1
	mov	edx, 8
	mov	rcx, rax
	call	ccdlb_arradd
	mov	eax, eax
	mov	rcx, QWORD PTR tree$[rsp]
	mov	rcx, QWORD PTR [rcx+32]
	mov	rdx, QWORD PTR next$1[rsp]
	mov	QWORD PTR [rcx+rax*8], rdx
	jmp	SHORT $LN2@ccread_tra
$LN3@ccread_tra:
; Line 1237
	mov	rax, QWORD PTR tree$[rsp]
; Line 1238
	add	rsp, 56					; 00000038H
	ret	0
ccread_translation_unit ENDP
_TEXT	ENDS
; Function compile flags: /Odtp
_TEXT	SEGMENT
tv91 = 48
decl$ = 56
name$ = 64
reader$ = 96
root$ = 104
mark$ = 112
ccread_external_declaration PROC
; File W:\cpp\void\ktt-c\ccread.c
; Line 1242
	mov	DWORD PTR [rsp+24], r8d
	mov	QWORD PTR [rsp+16], rdx
	mov	QWORD PTR [rsp+8], rcx
	sub	rsp, 88					; 00000058H
; Line 1243
	mov	eax, DWORD PTR mark$[rsp]
	or	eax, 4
	or	eax, 16
	mov	r8d, eax
	mov	rdx, QWORD PTR root$[rsp]
	mov	rcx, QWORD PTR reader$[rsp]
	call	ccread_init_decl
	mov	QWORD PTR decl$[rsp], rax
; Line 1245
	cmp	QWORD PTR decl$[rsp], 0
	jne	SHORT $LN2@ccread_ext
	xor	eax, eax
	jmp	$LN1@ccread_ext
$LN2@ccread_ext:
; Line 1247
	mov	rax, QWORD PTR decl$[rsp]
	cmp	DWORD PTR [rax], 16
	je	SHORT $LN9@ccread_ext
	int	3
$LN9@ccread_ext:
; Line 1248
	mov	rax, QWORD PTR decl$[rsp]
	cmp	QWORD PTR [rax+32], 0
	jne	SHORT $LN11@ccread_ext
	int	3
$LN11@ccread_ext:
; Line 1250
	mov	rax, QWORD PTR decl$[rsp]
	mov	rax, QWORD PTR [rax+32]
	mov	rax, QWORD PTR [rax]
	mov	QWORD PTR name$[rsp], rax
; Line 1252
	mov	rax, QWORD PTR name$[rsp]
	cmp	DWORD PTR [rax], 15
	je	SHORT $LN13@ccread_ext
	int	3
$LN13@ccread_ext:
; Line 1253
	mov	rax, QWORD PTR name$[rsp]
	cmp	QWORD PTR [rax+48], 0
	jne	SHORT $LN15@ccread_ext
	int	3
$LN15@ccread_ext:
; Line 1254
	mov	rax, QWORD PTR name$[rsp]
	cmp	QWORD PTR [rax+24], 0
	jne	SHORT $LN17@ccread_ext
	int	3
$LN17@ccread_ext:
; Line 1256
	mov	rax, QWORD PTR name$[rsp]
	mov	rax, QWORD PTR [rax+48]
	cmp	DWORD PTR [rax], 3
	jne	$LN3@ccread_ext
; Line 1259
	mov	rax, QWORD PTR decl$[rsp]
	cmp	QWORD PTR [rax+32], 0
	je	SHORT $LN19@ccread_ext
	mov	eax, 4
	imul	rax, rax, -1
	mov	rcx, QWORD PTR decl$[rsp]
	mov	rcx, QWORD PTR [rcx+32]
	mov	eax, DWORD PTR [rax+rcx]
	mov	DWORD PTR tv91[rsp], eax
	jmp	SHORT $LN20@ccread_ext
$LN19@ccread_ext:
	mov	DWORD PTR tv91[rsp], 0
$LN20@ccread_ext:
	mov	eax, DWORD PTR tv91[rsp]
	xor	edx, edx
	mov	ecx, 8
	div	rcx
	cmp	rax, 1
	je	SHORT $LN21@ccread_ext
	int	3
$LN21@ccread_ext:
; Line 1261
	mov	r8d, DWORD PTR mark$[rsp]
	mov	rdx, QWORD PTR name$[rsp]
	mov	rcx, QWORD PTR reader$[rsp]
	call	ccread_block
	mov	rcx, QWORD PTR name$[rsp]
	mov	QWORD PTR [rcx+88], rax
; Line 1263
	mov	rax, QWORD PTR name$[rsp]
	cmp	QWORD PTR [rax+88], 0
	jne	SHORT $LN5@ccread_ext
	mov	rax, QWORD PTR reader$[rsp]
	mov	rax, QWORD PTR [rax+96]
	mov	eax, DWORD PTR [rax+4]
	shr	eax, 1
	and	eax, 1
	test	eax, eax
	jne	SHORT $LN5@ccread_ext
	lea	rax, OFFSET FLAT:$SG49379
	mov	QWORD PTR [rsp+40], rax
	lea	rax, OFFSET FLAT:$SG49380
	mov	QWORD PTR [rsp+32], rax
	lea	r9, OFFSET FLAT:$SG49381
	mov	r8d, 1263				; 000004efH
	lea	rdx, OFFSET FLAT:$SG49382
	mov	ecx, 46					; 0000002eH
	call	cctrace_
	int	3
	int	3
$LN5@ccread_ext:
; Line 1264
	jmp	SHORT $LN4@ccread_ext
$LN3@ccread_ext:
; Line 1267
	mov	rax, QWORD PTR reader$[rsp]
	mov	rax, QWORD PTR [rax+96]
	mov	eax, DWORD PTR [rax+4]
	shr	eax, 1
	and	eax, 1
	test	eax, eax
	jne	SHORT $LN6@ccread_ext
	lea	rax, OFFSET FLAT:$SG49384
	mov	QWORD PTR [rsp+40], rax
	lea	rax, OFFSET FLAT:$SG49385
	mov	QWORD PTR [rsp+32], rax
	lea	r9, OFFSET FLAT:$SG49386
	mov	r8d, 1267				; 000004f3H
	lea	rdx, OFFSET FLAT:$SG49387
	mov	ecx, 47					; 0000002fH
	call	cctrace_
	int	3
	int	3
$LN6@ccread_ext:
$LN4@ccread_ext:
; Line 1270
	cmp	QWORD PTR decl$[rsp], 0
	jne	SHORT $LN7@ccread_ext
	mov	rcx, QWORD PTR reader$[rsp]
	call	ccsee_end
	test	eax, eax
	jne	SHORT $LN7@ccread_ext
	lea	rax, OFFSET FLAT:$SG49389
	mov	QWORD PTR [rsp+40], rax
	lea	rax, OFFSET FLAT:$SG49390
	mov	QWORD PTR [rsp+32], rax
	lea	r9, OFFSET FLAT:$SG49391
	mov	r8d, 1270				; 000004f6H
	lea	rdx, OFFSET FLAT:$SG49392
	mov	ecx, 48					; 00000030H
	call	cctrace_
	int	3
	int	3
$LN7@ccread_ext:
; Line 1271
	mov	rax, QWORD PTR decl$[rsp]
$LN1@ccread_ext:
; Line 1272
	add	rsp, 88					; 00000058H
	ret	0
ccread_external_declaration ENDP
_TEXT	ENDS
; Function compile flags: /Odtp
_TEXT	SEGMENT
stmt$ = 32
reader$ = 64
root$ = 72
mark$ = 80
ccread_block_or_single_stmt PROC
; File W:\cpp\void\ktt-c\ccread.c
; Line 1085
	mov	DWORD PTR [rsp+24], r8d
	mov	QWORD PTR [rsp+16], rdx
	mov	QWORD PTR [rsp+8], rcx
	sub	rsp, 56					; 00000038H
	mov	r8d, DWORD PTR mark$[rsp]
	mov	rdx, QWORD PTR root$[rsp]
	mov	rcx, QWORD PTR reader$[rsp]
	call	ccread_block
	mov	QWORD PTR stmt$[rsp], rax
; Line 1086
	cmp	QWORD PTR stmt$[rsp], 0
	jne	SHORT $LN2@ccread_blo
	mov	r8d, DWORD PTR mark$[rsp]
	mov	rdx, QWORD PTR root$[rsp]
	mov	rcx, QWORD PTR reader$[rsp]
	call	ccread_statement
	mov	QWORD PTR stmt$[rsp], rax
$LN2@ccread_blo:
; Line 1087
	mov	rax, QWORD PTR stmt$[rsp]
; Line 1088
	add	rsp, 56					; 00000038H
	ret	0
ccread_block_or_single_stmt ENDP
_TEXT	ENDS
; Function compile flags: /Odtp
_TEXT	SEGMENT
child$ = 48
then_tree$1 = 56
cond_tree$2 = 64
else_tree$3 = 72
then_tree$4 = 80
cond_tree$5 = 88
expr_tree$6 = 96
ident$7 = 104
list$8 = 112
reader$ = 144
root$ = 152
mark$ = 160
ccread_statement PROC
; File W:\cpp\void\ktt-c\ccread.c
; Line 1093
	mov	DWORD PTR [rsp+24], r8d
	mov	QWORD PTR [rsp+16], rdx
	mov	QWORD PTR [rsp+8], rcx
	sub	rsp, 136				; 00000088H
; Line 1094
	mov	QWORD PTR child$[rsp], 0
; Line 1096
	mov	edx, 6
	mov	rcx, QWORD PTR reader$[rsp]
	call	ccsee
	test	eax, eax
	je	SHORT $LN2@ccread_sta
; Line 1099
	jmp	$LN3@ccread_sta
$LN2@ccread_sta:
; Line 1100
	mov	edx, 5
	mov	rcx, QWORD PTR reader$[rsp]
	call	cceat
	test	rax, rax
	je	$LN4@ccread_sta
; Line 1101
	mov	r8d, DWORD PTR mark$[rsp]
	mov	rdx, QWORD PTR root$[rsp]
	mov	rcx, QWORD PTR reader$[rsp]
	call	ccread_block
	mov	QWORD PTR child$[rsp], rax
; Line 1102
	mov	edx, 6
	mov	rcx, QWORD PTR reader$[rsp]
	call	cceat
	test	rax, rax
	jne	SHORT $LN6@ccread_sta
	lea	rax, OFFSET FLAT:$SG49228
	mov	QWORD PTR [rsp+40], rax
	lea	rax, OFFSET FLAT:$SG49229
	mov	QWORD PTR [rsp+32], rax
	lea	r9, OFFSET FLAT:$SG49230
	mov	r8d, 1102				; 0000044eH
	lea	rdx, OFFSET FLAT:$SG49231
	mov	ecx, 28
	call	cctrace_
	int	3
	int	3
$LN6@ccread_sta:
; Line 1103
	mov	rax, QWORD PTR child$[rsp]
	jmp	$LN1@ccread_sta
; Line 1104
	jmp	$LN5@ccread_sta
$LN4@ccread_sta:
; Line 1105
	mov	r8d, DWORD PTR mark$[rsp]
	mov	rdx, QWORD PTR root$[rsp]
	mov	rcx, QWORD PTR reader$[rsp]
	call	ccread_init_decl
	mov	QWORD PTR child$[rsp], rax
	cmp	QWORD PTR child$[rsp], 0
	je	SHORT $LN7@ccread_sta
; Line 1106
	mov	rax, QWORD PTR reader$[rsp]
	mov	rax, QWORD PTR [rax+96]
	mov	eax, DWORD PTR [rax+4]
	shr	eax, 1
	and	eax, 1
	test	eax, eax
	jne	SHORT $LN9@ccread_sta
	lea	rax, OFFSET FLAT:$SG49235
	mov	QWORD PTR [rsp+40], rax
	lea	rax, OFFSET FLAT:$SG49236
	mov	QWORD PTR [rsp+32], rax
	lea	r9, OFFSET FLAT:$SG49237
	mov	r8d, 1106				; 00000452H
	lea	rdx, OFFSET FLAT:$SG49238
	mov	ecx, 29
	call	cctrace_
	int	3
	int	3
$LN9@ccread_sta:
; Line 1107
	mov	rax, QWORD PTR child$[rsp]
	jmp	$LN1@ccread_sta
; Line 1108
	jmp	$LN8@ccread_sta
$LN7@ccread_sta:
; Line 1109
	mov	edx, 81					; 00000051H
	mov	rcx, QWORD PTR reader$[rsp]
	call	cceat
	test	rax, rax
	je	$LN10@ccread_sta
; Line 1111
	mov	r8d, DWORD PTR mark$[rsp]
	mov	rdx, QWORD PTR root$[rsp]
	mov	rcx, QWORD PTR reader$[rsp]
	call	ccread_expression
	mov	QWORD PTR expr_tree$6[rsp], rax
; Line 1112
	mov	r8, QWORD PTR expr_tree$6[rsp]
	mov	edx, DWORD PTR mark$[rsp]
	mov	rcx, QWORD PTR root$[rsp]
	call	cctree_return
	mov	QWORD PTR child$[rsp], rax
; Line 1114
	cmp	QWORD PTR expr_tree$6[rsp], 0
	jne	SHORT $LN12@ccread_sta
	lea	rax, OFFSET FLAT:$SG49242
	mov	QWORD PTR [rsp+40], rax
	lea	rax, OFFSET FLAT:$SG49243
	mov	QWORD PTR [rsp+32], rax
	lea	r9, OFFSET FLAT:$SG49244
	mov	r8d, 1114				; 0000045aH
	lea	rdx, OFFSET FLAT:$SG49245
	mov	ecx, 30
	call	cctrace_
	int	3
	int	3
$LN12@ccread_sta:
; Line 1116
	mov	rax, QWORD PTR reader$[rsp]
	mov	rax, QWORD PTR [rax+96]
	mov	eax, DWORD PTR [rax+4]
	shr	eax, 1
	and	eax, 1
	test	eax, eax
	jne	SHORT $LN13@ccread_sta
	lea	rax, OFFSET FLAT:$SG49247
	mov	QWORD PTR [rsp+40], rax
	lea	rax, OFFSET FLAT:$SG49248
	mov	QWORD PTR [rsp+32], rax
	lea	r9, OFFSET FLAT:$SG49249
	mov	r8d, 1116				; 0000045cH
	lea	rdx, OFFSET FLAT:$SG49250
	mov	ecx, 31
	call	cctrace_
	int	3
	int	3
$LN13@ccread_sta:
; Line 1117
	jmp	$LN11@ccread_sta
$LN10@ccread_sta:
; Line 1118
	mov	edx, 78					; 0000004eH
	mov	rcx, QWORD PTR reader$[rsp]
	call	cceat
	test	rax, rax
	je	$LN14@ccread_sta
; Line 1120
	mov	QWORD PTR cond_tree$2[rsp], 0
	mov	QWORD PTR then_tree$1[rsp], 0
; Line 1122
	mov	edx, 3
	mov	rcx, QWORD PTR reader$[rsp]
	call	cceat
	test	rax, rax
	jne	SHORT $LN16@ccread_sta
	lea	rax, OFFSET FLAT:$SG49254
	mov	QWORD PTR [rsp+40], rax
	lea	rax, OFFSET FLAT:$SG49255
	mov	QWORD PTR [rsp+32], rax
	lea	r9, OFFSET FLAT:$SG49256
	mov	r8d, 1122				; 00000462H
	lea	rdx, OFFSET FLAT:$SG49257
	mov	ecx, 32					; 00000020H
	call	cctrace_
	int	3
	int	3
$LN16@ccread_sta:
; Line 1123
	mov	r8d, DWORD PTR mark$[rsp]
	mov	rdx, QWORD PTR root$[rsp]
	mov	rcx, QWORD PTR reader$[rsp]
	call	ccread_expression
	mov	QWORD PTR cond_tree$2[rsp], rax
; Line 1124
	mov	edx, 4
	mov	rcx, QWORD PTR reader$[rsp]
	call	cceat
	test	rax, rax
	jne	SHORT $LN17@ccread_sta
	lea	rax, OFFSET FLAT:$SG49259
	mov	QWORD PTR [rsp+40], rax
	lea	rax, OFFSET FLAT:$SG49260
	mov	QWORD PTR [rsp+32], rax
	lea	r9, OFFSET FLAT:$SG49261
	mov	r8d, 1124				; 00000464H
	lea	rdx, OFFSET FLAT:$SG49262
	mov	ecx, 33					; 00000021H
	call	cctrace_
	int	3
	int	3
$LN17@ccread_sta:
; Line 1126
	cmp	QWORD PTR cond_tree$2[rsp], 0
	jne	SHORT $LN18@ccread_sta
	lea	rax, OFFSET FLAT:$SG49264
	mov	QWORD PTR [rsp+40], rax
	lea	rax, OFFSET FLAT:$SG49265
	mov	QWORD PTR [rsp+32], rax
	lea	r9, OFFSET FLAT:$SG49266
	mov	r8d, 1126				; 00000466H
	lea	rdx, OFFSET FLAT:$SG49267
	mov	ecx, 34					; 00000022H
	call	cctrace_
	int	3
	int	3
$LN18@ccread_sta:
; Line 1128
	mov	rax, QWORD PTR reader$[rsp]
	mov	rax, QWORD PTR [rax+96]
	mov	eax, DWORD PTR [rax+4]
	shr	eax, 1
	and	eax, 1
	test	eax, eax
	jne	SHORT $LN19@ccread_sta
; Line 1130
	mov	r8d, DWORD PTR mark$[rsp]
	mov	rdx, QWORD PTR root$[rsp]
	mov	rcx, QWORD PTR reader$[rsp]
	call	ccread_block_or_single_stmt
	mov	QWORD PTR then_tree$1[rsp], rax
; Line 1131
	cmp	QWORD PTR then_tree$1[rsp], 0
	jne	SHORT $LN20@ccread_sta
	lea	rax, OFFSET FLAT:$SG49270
	mov	QWORD PTR [rsp+40], rax
	lea	rax, OFFSET FLAT:$SG49271
	mov	QWORD PTR [rsp+32], rax
	lea	r9, OFFSET FLAT:$SG49272
	mov	r8d, 1131				; 0000046bH
	lea	rdx, OFFSET FLAT:$SG49273
	mov	ecx, 35					; 00000023H
	call	cctrace_
	int	3
	int	3
$LN20@ccread_sta:
$LN19@ccread_sta:
; Line 1133
	mov	r9, QWORD PTR then_tree$1[rsp]
	mov	r8, QWORD PTR cond_tree$2[rsp]
	mov	edx, DWORD PTR mark$[rsp]
	mov	rcx, QWORD PTR root$[rsp]
	call	cctree_while
	mov	QWORD PTR child$[rsp], rax
; Line 1134
	jmp	$LN15@ccread_sta
$LN14@ccread_sta:
; Line 1135
	mov	edx, 80					; 00000050H
	mov	rcx, QWORD PTR reader$[rsp]
	call	cceat
	test	rax, rax
	je	$LN21@ccread_sta
; Line 1137
	mov	r8d, DWORD PTR mark$[rsp]
	mov	rdx, QWORD PTR root$[rsp]
	mov	rcx, QWORD PTR reader$[rsp]
	call	ccread_litide
	mov	QWORD PTR ident$7[rsp], rax
; Line 1138
	cmp	QWORD PTR ident$7[rsp], 0
	jne	SHORT $LN23@ccread_sta
	lea	rax, OFFSET FLAT:$SG49277
	mov	QWORD PTR [rsp+40], rax
	lea	rax, OFFSET FLAT:$SG49278
	mov	QWORD PTR [rsp+32], rax
	lea	r9, OFFSET FLAT:$SG49279
	mov	r8d, 1138				; 00000472H
	lea	rdx, OFFSET FLAT:$SG49280
	mov	ecx, 36					; 00000024H
	call	cctrace_
	int	3
	int	3
$LN23@ccread_sta:
; Line 1140
	mov	r8, QWORD PTR ident$7[rsp]
	mov	edx, DWORD PTR mark$[rsp]
	mov	rcx, QWORD PTR root$[rsp]
	call	cctree_goto
	mov	QWORD PTR child$[rsp], rax
; Line 1142
	mov	rax, QWORD PTR reader$[rsp]
	mov	rax, QWORD PTR [rax+96]
	mov	eax, DWORD PTR [rax+4]
	shr	eax, 1
	and	eax, 1
	test	eax, eax
	jne	SHORT $LN24@ccread_sta
	lea	rax, OFFSET FLAT:$SG49282
	mov	QWORD PTR [rsp+40], rax
	lea	rax, OFFSET FLAT:$SG49283
	mov	QWORD PTR [rsp+32], rax
	lea	r9, OFFSET FLAT:$SG49284
	mov	r8d, 1142				; 00000476H
	lea	rdx, OFFSET FLAT:$SG49285
	mov	ecx, 37					; 00000025H
	call	cctrace_
	int	3
	int	3
$LN24@ccread_sta:
; Line 1143
	jmp	$LN22@ccread_sta
$LN21@ccread_sta:
; Line 1144
	mov	edx, 74					; 0000004aH
	mov	rcx, QWORD PTR reader$[rsp]
	call	ccsee
	test	eax, eax
	je	SHORT $LN25@ccread_sta
; Line 1147
	jmp	$LN26@ccread_sta
$LN25@ccread_sta:
; Line 1148
	mov	edx, 72					; 00000048H
	mov	rcx, QWORD PTR reader$[rsp]
	call	cceat
	test	rax, rax
	je	$LN27@ccread_sta
; Line 1150
	mov	QWORD PTR cond_tree$5[rsp], 0
; Line 1151
	mov	QWORD PTR then_tree$4[rsp], 0
; Line 1152
	mov	QWORD PTR else_tree$3[rsp], 0
; Line 1154
	mov	edx, 3
	mov	rcx, QWORD PTR reader$[rsp]
	call	cceat
	test	rax, rax
	jne	SHORT $LN29@ccread_sta
	lea	rax, OFFSET FLAT:$SG49291
	mov	QWORD PTR [rsp+40], rax
	lea	rax, OFFSET FLAT:$SG49292
	mov	QWORD PTR [rsp+32], rax
	lea	r9, OFFSET FLAT:$SG49293
	mov	r8d, 1154				; 00000482H
	lea	rdx, OFFSET FLAT:$SG49294
	mov	ecx, 38					; 00000026H
	call	cctrace_
	int	3
	int	3
$LN29@ccread_sta:
; Line 1155
	mov	r8d, DWORD PTR mark$[rsp]
	mov	rdx, QWORD PTR root$[rsp]
	mov	rcx, QWORD PTR reader$[rsp]
	call	ccread_expression
	mov	QWORD PTR cond_tree$5[rsp], rax
; Line 1156
	mov	edx, 4
	mov	rcx, QWORD PTR reader$[rsp]
	call	cceat
	test	rax, rax
	jne	SHORT $LN30@ccread_sta
	lea	rax, OFFSET FLAT:$SG49296
	mov	QWORD PTR [rsp+40], rax
	lea	rax, OFFSET FLAT:$SG49297
	mov	QWORD PTR [rsp+32], rax
	lea	r9, OFFSET FLAT:$SG49298
	mov	r8d, 1156				; 00000484H
	lea	rdx, OFFSET FLAT:$SG49299
	mov	ecx, 39					; 00000027H
	call	cctrace_
	int	3
	int	3
$LN30@ccread_sta:
; Line 1158
	cmp	QWORD PTR cond_tree$5[rsp], 0
	jne	SHORT $LN31@ccread_sta
	lea	rax, OFFSET FLAT:$SG49301
	mov	QWORD PTR [rsp+40], rax
	lea	rax, OFFSET FLAT:$SG49302
	mov	QWORD PTR [rsp+32], rax
	lea	r9, OFFSET FLAT:$SG49303
	mov	r8d, 1158				; 00000486H
	lea	rdx, OFFSET FLAT:$SG49304
	mov	ecx, 40					; 00000028H
	call	cctrace_
	int	3
	int	3
$LN31@ccread_sta:
; Line 1160
	mov	rax, QWORD PTR reader$[rsp]
	mov	rax, QWORD PTR [rax+96]
	mov	eax, DWORD PTR [rax+4]
	shr	eax, 1
	and	eax, 1
	test	eax, eax
	jne	SHORT $LN32@ccread_sta
; Line 1161
	mov	r8d, DWORD PTR mark$[rsp]
	mov	rdx, QWORD PTR root$[rsp]
	mov	rcx, QWORD PTR reader$[rsp]
	call	ccread_block_or_single_stmt
	mov	QWORD PTR then_tree$4[rsp], rax
; Line 1162
	cmp	QWORD PTR then_tree$4[rsp], 0
	jne	SHORT $LN33@ccread_sta
	lea	rax, OFFSET FLAT:$SG49307
	mov	QWORD PTR [rsp+40], rax
	lea	rax, OFFSET FLAT:$SG49308
	mov	QWORD PTR [rsp+32], rax
	lea	r9, OFFSET FLAT:$SG49309
	mov	r8d, 1162				; 0000048aH
	lea	rdx, OFFSET FLAT:$SG49310
	mov	ecx, 41					; 00000029H
	call	cctrace_
	int	3
	int	3
$LN33@ccread_sta:
$LN32@ccread_sta:
; Line 1164
	mov	edx, 74					; 0000004aH
	mov	rcx, QWORD PTR reader$[rsp]
	call	cceat
	test	rax, rax
	je	SHORT $LN34@ccread_sta
	mov	rax, QWORD PTR reader$[rsp]
	mov	rax, QWORD PTR [rax+96]
	mov	eax, DWORD PTR [rax+4]
	shr	eax, 1
	and	eax, 1
	test	eax, eax
	jne	SHORT $LN34@ccread_sta
; Line 1165
	mov	r8d, DWORD PTR mark$[rsp]
	mov	rdx, QWORD PTR root$[rsp]
	mov	rcx, QWORD PTR reader$[rsp]
	call	ccread_block_or_single_stmt
	mov	QWORD PTR else_tree$3[rsp], rax
; Line 1166
	cmp	QWORD PTR else_tree$3[rsp], 0
	jne	SHORT $LN35@ccread_sta
	lea	rax, OFFSET FLAT:$SG49313
	mov	QWORD PTR [rsp+40], rax
	lea	rax, OFFSET FLAT:$SG49314
	mov	QWORD PTR [rsp+32], rax
	lea	r9, OFFSET FLAT:$SG49315
	mov	r8d, 1166				; 0000048eH
	lea	rdx, OFFSET FLAT:$SG49316
	mov	ecx, 42					; 0000002aH
	call	cctrace_
	int	3
	int	3
$LN35@ccread_sta:
$LN34@ccread_sta:
; Line 1169
	mov	rax, QWORD PTR else_tree$3[rsp]
	mov	QWORD PTR [rsp+32], rax
	mov	r9, QWORD PTR then_tree$4[rsp]
	mov	r8, QWORD PTR cond_tree$5[rsp]
	mov	edx, DWORD PTR mark$[rsp]
	mov	rcx, QWORD PTR root$[rsp]
	call	cctree_ternary
	mov	QWORD PTR child$[rsp], rax
; Line 1171
	jmp	$LN28@ccread_sta
$LN27@ccread_sta:
; Line 1173
	mov	r8d, DWORD PTR mark$[rsp]
	mov	rdx, QWORD PTR root$[rsp]
	mov	rcx, QWORD PTR reader$[rsp]
	call	ccread_expression
	mov	QWORD PTR child$[rsp], rax
	cmp	QWORD PTR child$[rsp], 0
	je	$LN36@ccread_sta
; Line 1176
	mov	rax, QWORD PTR reader$[rsp]
	mov	rax, QWORD PTR [rax+96]
	mov	eax, DWORD PTR [rax+4]
	shr	eax, 1
	and	eax, 1
	test	eax, eax
	jne	$LN37@ccread_sta
; Line 1178
	mov	rax, QWORD PTR child$[rsp]
	cmp	DWORD PTR [rax], 6
	jne	$LN38@ccread_sta
; Line 1180
	mov	edx, 10
	mov	rcx, QWORD PTR reader$[rsp]
	call	cceat
	test	rax, rax
	je	SHORT $LN40@ccread_sta
; Line 1183
	mov	QWORD PTR list$8[rsp], 0
; Line 1184
	mov	rax, QWORD PTR reader$[rsp]
	mov	rax, QWORD PTR [rax+96]
	mov	eax, DWORD PTR [rax+4]
	shr	eax, 1
	and	eax, 1
	test	eax, eax
	jne	SHORT $LN42@ccread_sta
; Line 1185
	mov	r8d, DWORD PTR mark$[rsp]
	mov	rdx, QWORD PTR root$[rsp]
	mov	rcx, QWORD PTR reader$[rsp]
	call	ccread_statement_list
	mov	QWORD PTR list$8[rsp], rax
$LN42@ccread_sta:
; Line 1187
	mov	r9, QWORD PTR list$8[rsp]
	mov	r8, QWORD PTR child$[rsp]
	mov	edx, DWORD PTR mark$[rsp]
	mov	rcx, QWORD PTR root$[rsp]
	call	cctree_label
	mov	QWORD PTR child$[rsp], rax
; Line 1188
	jmp	SHORT $LN41@ccread_sta
$LN40@ccread_sta:
; Line 1189
	lea	rax, OFFSET FLAT:$SG49324
	mov	QWORD PTR [rsp+40], rax
	lea	rax, OFFSET FLAT:$SG49325
	mov	QWORD PTR [rsp+32], rax
	lea	r9, OFFSET FLAT:$SG49326
	mov	r8d, 1189				; 000004a5H
	lea	rdx, OFFSET FLAT:$SG49327
	mov	ecx, 43					; 0000002bH
	call	cctrace_
	int	3
	int	3
$LN41@ccread_sta:
; Line 1190
	jmp	SHORT $LN39@ccread_sta
$LN38@ccread_sta:
; Line 1191
	lea	rax, OFFSET FLAT:$SG49328
	mov	QWORD PTR [rsp+40], rax
	lea	rax, OFFSET FLAT:$SG49329
	mov	QWORD PTR [rsp+32], rax
	lea	r9, OFFSET FLAT:$SG49330
	mov	r8d, 1191				; 000004a7H
	lea	rdx, OFFSET FLAT:$SG49331
	mov	ecx, 44					; 0000002cH
	call	cctrace_
	int	3
	int	3
$LN39@ccread_sta:
$LN37@ccread_sta:
; Line 1194
	mov	rax, QWORD PTR child$[rsp]
	jmp	SHORT $LN1@ccread_sta
$LN36@ccread_sta:
$LN28@ccread_sta:
$LN26@ccread_sta:
$LN22@ccread_sta:
$LN15@ccread_sta:
$LN11@ccread_sta:
$LN8@ccread_sta:
$LN5@ccread_sta:
$LN3@ccread_sta:
; Line 1196
	mov	rax, QWORD PTR child$[rsp]
$LN1@ccread_sta:
; Line 1197
	add	rsp, 136				; 00000088H
	ret	0
ccread_statement ENDP
_TEXT	ENDS
; Function compile flags: /Odtp
_TEXT	SEGMENT
list$ = 32
next$ = 40
reader$ = 64
root$ = 72
mark$ = 80
ccread_statement_list PROC
; File W:\cpp\void\ktt-c\ccread.c
; Line 1201
	mov	DWORD PTR [rsp+24], r8d
	mov	QWORD PTR [rsp+16], rdx
	mov	QWORD PTR [rsp+8], rcx
	sub	rsp, 56					; 00000038H
	mov	QWORD PTR list$[rsp], 0
$LN2@ccread_sta:
; Line 1202
	mov	r8d, DWORD PTR mark$[rsp]
	mov	rdx, QWORD PTR root$[rsp]
	mov	rcx, QWORD PTR reader$[rsp]
	call	ccread_statement
	mov	QWORD PTR next$[rsp], rax
	cmp	QWORD PTR next$[rsp], 0
	je	SHORT $LN3@ccread_sta
; Line 1203
	mov	r9d, 1
	mov	r8d, 1
	mov	edx, 8
	lea	rcx, QWORD PTR list$[rsp]
	call	ccdlb_arradd
	mov	eax, eax
	mov	rcx, QWORD PTR list$[rsp]
	mov	rdx, QWORD PTR next$[rsp]
	mov	QWORD PTR [rcx+rax*8], rdx
; Line 1204
	mov	rcx, QWORD PTR reader$[rsp]
	call	ccsee_end
	test	eax, eax
	je	SHORT $LN4@ccread_sta
	jmp	SHORT $LN3@ccread_sta
$LN4@ccread_sta:
; Line 1205
	jmp	SHORT $LN2@ccread_sta
$LN3@ccread_sta:
; Line 1206
	mov	rax, QWORD PTR list$[rsp]
; Line 1207
	add	rsp, 56					; 00000038H
	ret	0
ccread_statement_list ENDP
_TEXT	ENDS
; Function compile flags: /Odtp
_TEXT	SEGMENT
tree$ = 48
reader$ = 80
root$ = 88
mark$ = 96
ccread_block PROC
; File W:\cpp\void\ktt-c\ccread.c
; Line 1211
	mov	DWORD PTR [rsp+24], r8d
	mov	QWORD PTR [rsp+16], rdx
	mov	QWORD PTR [rsp+8], rcx
	sub	rsp, 72					; 00000048H
	mov	QWORD PTR tree$[rsp], 0
; Line 1212
	mov	edx, 5
	mov	rcx, QWORD PTR reader$[rsp]
	call	cceat
	test	rax, rax
	je	SHORT $LN2@ccread_blo
; Line 1213
	xor	r8d, r8d
	mov	edx, DWORD PTR mark$[rsp]
	mov	rcx, QWORD PTR root$[rsp]
	call	cctree_block
	mov	QWORD PTR tree$[rsp], rax
; Line 1214
	mov	r8d, DWORD PTR mark$[rsp]
	mov	rdx, QWORD PTR tree$[rsp]
	mov	rcx, QWORD PTR reader$[rsp]
	call	ccread_statement_list
	mov	rcx, QWORD PTR tree$[rsp]
	mov	QWORD PTR [rcx+32], rax
; Line 1215
	mov	edx, 6
	mov	rcx, QWORD PTR reader$[rsp]
	call	cceat
	test	rax, rax
	jne	SHORT $LN3@ccread_blo
; Line 1216
	lea	rax, OFFSET FLAT:$SG49351
	mov	QWORD PTR [rsp+40], rax
	lea	rax, OFFSET FLAT:$SG49352
	mov	QWORD PTR [rsp+32], rax
	lea	r9, OFFSET FLAT:$SG49353
	mov	r8d, 1216				; 000004c0H
	lea	rdx, OFFSET FLAT:$SG49354
	mov	ecx, 45					; 0000002dH
	call	cctrace_
	int	3
	int	3
$LN3@ccread_blo:
$LN2@ccread_blo:
; Line 1218
	mov	rax, QWORD PTR tree$[rsp]
; Line 1219
	add	rsp, 72					; 00000048H
	ret	0
ccread_block ENDP
_TEXT	ENDS
; Function compile flags: /Odtp
_TEXT	SEGMENT
list$ = 32
next$ = 40
reader$ = 64
root$ = 72
mark$ = 80
ccread_param_decl_list PROC
; File W:\cpp\void\ktt-c\ccread.c
; Line 1059
	mov	DWORD PTR [rsp+24], r8d
	mov	QWORD PTR [rsp+16], rdx
	mov	QWORD PTR [rsp+8], rcx
	sub	rsp, 56					; 00000038H
	mov	QWORD PTR list$[rsp], 0
$LN2@ccread_par:
; Line 1060
	mov	r8d, DWORD PTR mark$[rsp]
	mov	rdx, QWORD PTR root$[rsp]
	mov	rcx, QWORD PTR reader$[rsp]
	call	ccread_param_decl
	mov	QWORD PTR next$[rsp], rax
	cmp	QWORD PTR next$[rsp], 0
	je	SHORT $LN3@ccread_par
; Line 1061
	mov	r9d, 1
	mov	r8d, 1
	mov	edx, 8
	lea	rcx, QWORD PTR list$[rsp]
	call	ccdlb_arradd
	mov	eax, eax
	mov	rcx, QWORD PTR list$[rsp]
	mov	rdx, QWORD PTR next$[rsp]
	mov	QWORD PTR [rcx+rax*8], rdx
; Line 1062
	mov	edx, 9
	mov	rcx, QWORD PTR reader$[rsp]
	call	cceat
	test	rax, rax
	jne	SHORT $LN4@ccread_par
	jmp	SHORT $LN3@ccread_par
$LN4@ccread_par:
; Line 1063
	jmp	SHORT $LN2@ccread_par
$LN3@ccread_par:
; Line 1064
	mov	rax, QWORD PTR list$[rsp]
; Line 1065
	add	rsp, 56					; 00000038H
	ret	0
ccread_param_decl_list ENDP
_TEXT	ENDS
; Function compile flags: /Odtp
_TEXT	SEGMENT
spec$ = 48
decl$ = 56
reader$ = 80
root$ = 88
mark$ = 96
ccread_param_decl PROC
; File W:\cpp\void\ktt-c\ccread.c
; Line 1044
	mov	DWORD PTR [rsp+24], r8d
	mov	QWORD PTR [rsp+16], rdx
	mov	QWORD PTR [rsp+8], rcx
	sub	rsp, 72					; 00000048H
; Line 1045
	mov	QWORD PTR spec$[rsp], 0
; Line 1046
	mov	QWORD PTR decl$[rsp], 0
; Line 1048
	mov	edx, 12
	mov	rcx, QWORD PTR reader$[rsp]
	call	ccsee
	test	eax, eax
	je	SHORT $LN2@ccread_par
; Line 1049
	lea	rax, OFFSET FLAT:$SG49168
	mov	QWORD PTR [rsp+40], rax
	lea	rax, OFFSET FLAT:$SG49169
	mov	QWORD PTR [rsp+32], rax
	lea	r9, OFFSET FLAT:$SG49170
	mov	r8d, 1049				; 00000419H
	lea	rdx, OFFSET FLAT:$SG49171
	mov	ecx, 27
	call	cctrace_
	int	3
	int	3
$LN2@ccread_par:
; Line 1051
	mov	r8d, DWORD PTR mark$[rsp]
	mov	rdx, QWORD PTR root$[rsp]
	mov	rcx, QWORD PTR reader$[rsp]
	call	ccread_declaration_specifiers
	mov	QWORD PTR spec$[rsp], rax
; Line 1052
	cmp	QWORD PTR spec$[rsp], 0
	je	SHORT $LN3@ccread_par
	mov	r9, QWORD PTR spec$[rsp]
	mov	r8d, DWORD PTR mark$[rsp]
	mov	rdx, QWORD PTR root$[rsp]
	mov	rcx, QWORD PTR reader$[rsp]
	call	ccread_decl_name
	mov	QWORD PTR decl$[rsp], rax
$LN3@ccread_par:
; Line 1054
	mov	rax, QWORD PTR decl$[rsp]
; Line 1055
	add	rsp, 72					; 00000048H
	ret	0
ccread_param_decl ENDP
_TEXT	ENDS
; Function compile flags: /Odtp
_TEXT	SEGMENT
tok$1 = 32
reader$ = 64
root$ = 72
mark$ = 80
ccread_alignment_specifier PROC
; File W:\cpp\void\ktt-c\ccread.c
; Line 974
	mov	DWORD PTR [rsp+24], r8d
	mov	QWORD PTR [rsp+16], rdx
	mov	QWORD PTR [rsp+8], rcx
	sub	rsp, 56					; 00000038H
	mov	rcx, QWORD PTR reader$[rsp]
	call	kttc__peek_alignment_specifier
	test	rax, rax
	je	SHORT $LN2@ccread_ali
; Line 975
	mov	rcx, QWORD PTR reader$[rsp]
	call	ccgobble
	mov	QWORD PTR tok$1[rsp], rax
; Line 977
	mov	eax, 1
	jmp	SHORT $LN1@ccread_ali
$LN2@ccread_ali:
; Line 979
	xor	eax, eax
$LN1@ccread_ali:
; Line 980
	add	rsp, 56					; 00000038H
	ret	0
ccread_alignment_specifier ENDP
_TEXT	ENDS
; Function compile flags: /Odtp
_TEXT	SEGMENT
tok$1 = 32
reader$ = 64
root$ = 72
mark$ = 80
ccread_function_specifier PROC
; File W:\cpp\void\ktt-c\ccread.c
; Line 960
	mov	DWORD PTR [rsp+24], r8d
	mov	QWORD PTR [rsp+16], rdx
	mov	QWORD PTR [rsp+8], rcx
	sub	rsp, 56					; 00000038H
	mov	rcx, QWORD PTR reader$[rsp]
	call	kttc__peek_func_specifier
	test	rax, rax
	je	SHORT $LN2@ccread_fun
; Line 961
	mov	rcx, QWORD PTR reader$[rsp]
	call	ccgobble
	mov	QWORD PTR tok$1[rsp], rax
; Line 963
	mov	eax, 1
	jmp	SHORT $LN1@ccread_fun
$LN2@ccread_fun:
; Line 965
	xor	eax, eax
$LN1@ccread_fun:
; Line 966
	add	rsp, 56					; 00000038H
	ret	0
ccread_function_specifier ENDP
_TEXT	ENDS
; Function compile flags: /Odtp
_TEXT	SEGMENT
tok$1 = 32
reader$ = 64
root$ = 72
mark$ = 80
ccread_type_qualifier PROC
; File W:\cpp\void\ktt-c\ccread.c
; Line 946
	mov	DWORD PTR [rsp+24], r8d
	mov	QWORD PTR [rsp+16], rdx
	mov	QWORD PTR [rsp+8], rcx
	sub	rsp, 56					; 00000038H
	mov	rcx, QWORD PTR reader$[rsp]
	call	kttc__peek_type_qualifier
	test	rax, rax
	je	SHORT $LN2@ccread_typ
; Line 947
	mov	rcx, QWORD PTR reader$[rsp]
	call	ccgobble
	mov	QWORD PTR tok$1[rsp], rax
; Line 949
	mov	eax, 1
	jmp	SHORT $LN1@ccread_typ
$LN2@ccread_typ:
; Line 951
	xor	eax, eax
$LN1@ccread_typ:
; Line 952
	add	rsp, 56					; 00000038H
	ret	0
ccread_type_qualifier ENDP
_TEXT	ENDS
; Function compile flags: /Odtp
_TEXT	SEGMENT
tok$1 = 32
reader$ = 64
root$ = 72
mark$ = 80
ccread_storage_class_specifier PROC
; File W:\cpp\void\ktt-c\ccread.c
; Line 927
	mov	DWORD PTR [rsp+24], r8d
	mov	QWORD PTR [rsp+16], rdx
	mov	QWORD PTR [rsp+8], rcx
	sub	rsp, 56					; 00000038H
; Line 928
	mov	rcx, QWORD PTR reader$[rsp]
	call	kttc__peek_storage_class
	test	rax, rax
	je	SHORT $LN2@ccread_sto
; Line 930
	mov	rcx, QWORD PTR reader$[rsp]
	call	ccgobble
	mov	QWORD PTR tok$1[rsp], rax
; Line 933
	mov	eax, 1
	jmp	SHORT $LN1@ccread_sto
$LN2@ccread_sto:
; Line 935
	xor	eax, eax
$LN1@ccread_sto:
; Line 936
	add	rsp, 56					; 00000038H
	ret	0
ccread_storage_class_specifier ENDP
_TEXT	ENDS
; Function compile flags: /Odtp
_TEXT	SEGMENT
tv68 = 32
tok$1 = 40
reader$ = 64
root$ = 72
mark$ = 80
ccread_type_specifier PROC
; File W:\cpp\void\ktt-c\ccread.c
; Line 894
	mov	DWORD PTR [rsp+24], r8d
	mov	QWORD PTR [rsp+16], rdx
	mov	QWORD PTR [rsp+8], rcx
	sub	rsp, 56					; 00000038H
; Line 896
	mov	rcx, QWORD PTR reader$[rsp]
	call	ccsee_typespec
	mov	QWORD PTR tok$1[rsp], rax
	cmp	QWORD PTR tok$1[rsp], 0
	je	$LN4@ccread_typ
; Line 897
	mov	rax, QWORD PTR tok$1[rsp]
	mov	eax, DWORD PTR [rax]
	mov	DWORD PTR tv68[rsp], eax
	mov	eax, DWORD PTR tv68[rsp]
	sub	eax, 46					; 0000002eH
	mov	DWORD PTR tv68[rsp], eax
	cmp	DWORD PTR tv68[rsp], 15
	ja	$LN2@ccread_typ
	movsxd	rax, DWORD PTR tv68[rsp]
	lea	rcx, OFFSET FLAT:__ImageBase
	mov	eax, DWORD PTR $LN19@ccread_typ[rcx+rax*4]
	add	rax, rcx
	jmp	rax
$LN5@ccread_typ:
$LN6@ccread_typ:
; Line 899
	mov	r8d, DWORD PTR mark$[rsp]
	mov	rdx, QWORD PTR root$[rsp]
	mov	rcx, QWORD PTR reader$[rsp]
	call	ccread_struct_or_union_specifier
	jmp	$LN1@ccread_typ
$LN7@ccread_typ:
; Line 900
	mov	rcx, QWORD PTR reader$[rsp]
	call	ccgobble
	xor	r8d, r8d
	xor	edx, edx
	xor	ecx, ecx
	call	cctree_new
	jmp	$LN1@ccread_typ
$LN8@ccread_typ:
; Line 901
	mov	rcx, QWORD PTR reader$[rsp]
	call	ccgobble
	xor	r8d, r8d
	xor	edx, edx
	xor	ecx, ecx
	call	cctree_new
	jmp	$LN1@ccread_typ
$LN9@ccread_typ:
; Line 902
	mov	rcx, QWORD PTR reader$[rsp]
	call	ccgobble
	xor	r8d, r8d
	xor	edx, edx
	xor	ecx, ecx
	call	cctree_new
	jmp	$LN1@ccread_typ
$LN10@ccread_typ:
; Line 903
	mov	rcx, QWORD PTR reader$[rsp]
	call	ccgobble
	xor	r8d, r8d
	xor	edx, edx
	xor	ecx, ecx
	call	cctree_new
	jmp	$LN1@ccread_typ
$LN11@ccread_typ:
; Line 904
	mov	rcx, QWORD PTR reader$[rsp]
	call	ccgobble
	xor	r8d, r8d
	xor	edx, edx
	xor	ecx, ecx
	call	cctree_new
	jmp	$LN1@ccread_typ
$LN12@ccread_typ:
; Line 905
	mov	rcx, QWORD PTR reader$[rsp]
	call	ccgobble
	xor	r8d, r8d
	xor	edx, edx
	xor	ecx, ecx
	call	cctree_new
	jmp	SHORT $LN1@ccread_typ
$LN13@ccread_typ:
; Line 906
	mov	rcx, QWORD PTR reader$[rsp]
	call	ccgobble
	xor	r8d, r8d
	xor	edx, edx
	xor	ecx, ecx
	call	cctree_new
	jmp	SHORT $LN1@ccread_typ
$LN14@ccread_typ:
; Line 907
	mov	rcx, QWORD PTR reader$[rsp]
	call	ccgobble
	xor	r8d, r8d
	xor	edx, edx
	xor	ecx, ecx
	call	cctree_new
	jmp	SHORT $LN1@ccread_typ
$LN15@ccread_typ:
; Line 908
	mov	rcx, QWORD PTR reader$[rsp]
	call	ccgobble
	xor	r8d, r8d
	xor	edx, edx
	xor	ecx, ecx
	call	cctree_new
	jmp	SHORT $LN1@ccread_typ
$LN16@ccread_typ:
; Line 909
	mov	rcx, QWORD PTR reader$[rsp]
	call	ccgobble
	xor	r8d, r8d
	xor	edx, edx
	xor	ecx, ecx
	call	cctree_new
	jmp	SHORT $LN1@ccread_typ
$LN17@ccread_typ:
; Line 910
	mov	rcx, QWORD PTR reader$[rsp]
	call	ccgobble
	xor	r8d, r8d
	xor	edx, edx
	xor	ecx, ecx
	call	cctree_new
	jmp	SHORT $LN1@ccread_typ
$LN2@ccread_typ:
$LN4@ccread_typ:
; Line 913
	xor	eax, eax
$LN1@ccread_typ:
; Line 914
	add	rsp, 56					; 00000038H
	ret	0
	npad	2
$LN19@ccread_typ:
	DD	$LN7@ccread_typ
	DD	$LN8@ccread_typ
	DD	$LN9@ccread_typ
	DD	$LN10@ccread_typ
	DD	$LN17@ccread_typ
	DD	$LN16@ccread_typ
	DD	$LN2@ccread_typ
	DD	$LN15@ccread_typ
	DD	$LN14@ccread_typ
	DD	$LN13@ccread_typ
	DD	$LN12@ccread_typ
	DD	$LN11@ccread_typ
	DD	$LN2@ccread_typ
	DD	$LN2@ccread_typ
	DD	$LN5@ccread_typ
	DD	$LN6@ccread_typ
ccread_type_specifier ENDP
_TEXT	ENDS
; Function compile flags: /Odtp
_TEXT	SEGMENT
list$1 = 48
next$2 = 56
name$3 = 64
tree$4 = 72
reader$ = 96
root$ = 104
mark$ = 112
ccread_struct_or_union_specifier PROC
; File W:\cpp\void\ktt-c\ccread.c
; Line 847
	mov	DWORD PTR [rsp+24], r8d
	mov	QWORD PTR [rsp+16], rdx
	mov	QWORD PTR [rsp+8], rcx
	sub	rsp, 88					; 00000058H
	mov	edx, 61					; 0000003dH
	mov	rcx, QWORD PTR reader$[rsp]
	call	cceat
	test	rax, rax
	je	$LN4@ccread_str
; Line 850
	mov	r8d, DWORD PTR mark$[rsp]
	mov	rdx, QWORD PTR root$[rsp]
	mov	rcx, QWORD PTR reader$[rsp]
	call	ccread_litide
	mov	QWORD PTR name$3[rsp], rax
; Line 851
	mov	edx, 5
	mov	rcx, QWORD PTR reader$[rsp]
	call	cceat
	test	rax, rax
	jne	SHORT $LN6@ccread_str
; Line 852
	lea	rax, OFFSET FLAT:$SG49072
	mov	QWORD PTR [rsp+40], rax
	lea	rax, OFFSET FLAT:$SG49073
	mov	QWORD PTR [rsp+32], rax
	lea	r9, OFFSET FLAT:$SG49074
	mov	r8d, 852				; 00000354H
	lea	rdx, OFFSET FLAT:$SG49075
	mov	ecx, 24
	call	cctrace_
	int	3
	int	3
$LN6@ccread_str:
; Line 854
	mov	QWORD PTR list$1[rsp], 0
$LN2@ccread_str:
; Line 855
	mov	r8d, DWORD PTR mark$[rsp]
	mov	rdx, QWORD PTR root$[rsp]
	mov	rcx, QWORD PTR reader$[rsp]
	call	ccread_struct_decl
	mov	QWORD PTR next$2[rsp], rax
	cmp	QWORD PTR next$2[rsp], 0
	je	SHORT $LN3@ccread_str
; Line 856
	mov	r9d, 1
	mov	r8d, 1
	mov	edx, 8
	lea	rcx, QWORD PTR list$1[rsp]
	call	ccdlb_arradd
	mov	eax, eax
	mov	rcx, QWORD PTR list$1[rsp]
	mov	rdx, QWORD PTR next$2[rsp]
	mov	QWORD PTR [rcx+rax*8], rdx
; Line 857
	mov	rax, QWORD PTR reader$[rsp]
	mov	rax, QWORD PTR [rax+96]
	mov	eax, DWORD PTR [rax+4]
	shr	eax, 1
	and	eax, 1
	test	eax, eax
	jne	SHORT $LN7@ccread_str
	lea	rax, OFFSET FLAT:$SG49077
	mov	QWORD PTR [rsp+40], rax
	lea	rax, OFFSET FLAT:$SG49078
	mov	QWORD PTR [rsp+32], rax
	lea	r9, OFFSET FLAT:$SG49079
	mov	r8d, 857				; 00000359H
	lea	rdx, OFFSET FLAT:$SG49080
	mov	ecx, 25
	call	cctrace_
	int	3
	int	3
$LN7@ccread_str:
; Line 858
	jmp	$LN2@ccread_str
$LN3@ccread_str:
; Line 859
	mov	edx, 6
	mov	rcx, QWORD PTR reader$[rsp]
	call	cceat
	test	rax, rax
	jne	SHORT $LN8@ccread_str
; Line 860
	lea	rax, OFFSET FLAT:$SG49082
	mov	QWORD PTR [rsp+40], rax
	lea	rax, OFFSET FLAT:$SG49083
	mov	QWORD PTR [rsp+32], rax
	lea	r9, OFFSET FLAT:$SG49084
	mov	r8d, 860				; 0000035cH
	lea	rdx, OFFSET FLAT:$SG49085
	mov	ecx, 26
	call	cctrace_
	int	3
	int	3
$LN8@ccread_str:
; Line 861
	mov	rdx, QWORD PTR name$3[rsp]
	mov	rcx, QWORD PTR list$1[rsp]
	call	cctreee_struct_specifier
	mov	QWORD PTR tree$4[rsp], rax
; Line 862
	mov	rax, QWORD PTR tree$4[rsp]
	jmp	SHORT $LN1@ccread_str
; Line 863
	jmp	SHORT $LN5@ccread_str
$LN4@ccread_str:
; Line 864
	mov	edx, 60					; 0000003cH
	mov	rcx, QWORD PTR reader$[rsp]
	call	cceat
	test	rax, rax
	je	SHORT $LN9@ccread_str
; Line 866
	lea	rax, OFFSET FLAT:$SG49087
	test	rax, rax
	je	SHORT $LN11@ccread_str
	int	3
$LN11@ccread_str:
$LN9@ccread_str:
$LN5@ccread_str:
; Line 868
	xor	eax, eax
$LN1@ccread_str:
; Line 869
	add	rsp, 88					; 00000058H
	ret	0
ccread_struct_or_union_specifier ENDP
_TEXT	ENDS
; Function compile flags: /Odtp
_TEXT	SEGMENT
type$ = 48
list$ = 56
reader$ = 80
root$ = 88
mark$ = 96
ccread_struct_decl PROC
; File W:\cpp\void\ktt-c\ccread.c
; Line 836
	mov	DWORD PTR [rsp+24], r8d
	mov	QWORD PTR [rsp+16], rdx
	mov	QWORD PTR [rsp+8], rcx
	sub	rsp, 72					; 00000048H
; Line 837
	mov	r8d, DWORD PTR mark$[rsp]
	mov	rdx, QWORD PTR root$[rsp]
	mov	rcx, QWORD PTR reader$[rsp]
	call	ccread_specifier_qualifier_list
	mov	QWORD PTR type$[rsp], rax
	cmp	QWORD PTR type$[rsp], 0
	je	SHORT $LN2@ccread_str
; Line 838
	mov	r9, QWORD PTR type$[rsp]
	mov	r8d, DWORD PTR mark$[rsp]
	mov	rdx, QWORD PTR root$[rsp]
	mov	rcx, QWORD PTR reader$[rsp]
	call	ccread_struct_decl_name_list
	mov	QWORD PTR list$[rsp], rax
	cmp	QWORD PTR list$[rsp], 0
	je	SHORT $LN3@ccread_str
; Line 839
	mov	r9, QWORD PTR list$[rsp]
	mov	r8, QWORD PTR type$[rsp]
	mov	edx, DWORD PTR mark$[rsp]
	mov	rcx, QWORD PTR root$[rsp]
	call	cctree_decl
	jmp	SHORT $LN1@ccread_str
	jmp	SHORT $LN4@ccread_str
$LN3@ccread_str:
; Line 840
	lea	rax, OFFSET FLAT:$SG49053
	mov	QWORD PTR [rsp+40], rax
	lea	rax, OFFSET FLAT:$SG49054
	mov	QWORD PTR [rsp+32], rax
	lea	r9, OFFSET FLAT:$SG49055
	mov	r8d, 840				; 00000348H
	lea	rdx, OFFSET FLAT:$SG49056
	mov	ecx, 23
	call	cctrace_
	int	3
	int	3
$LN4@ccread_str:
$LN2@ccread_str:
; Line 842
	xor	eax, eax
$LN1@ccread_str:
; Line 843
	add	rsp, 72					; 00000048H
	ret	0
ccread_struct_decl ENDP
_TEXT	ENDS
; Function compile flags: /Odtp
_TEXT	SEGMENT
type$ = 48
list$ = 56
reader$ = 80
root$ = 88
mark$ = 96
ccread_init_decl PROC
; File W:\cpp\void\ktt-c\ccread.c
; Line 824
	mov	DWORD PTR [rsp+24], r8d
	mov	QWORD PTR [rsp+16], rdx
	mov	QWORD PTR [rsp+8], rcx
	sub	rsp, 72					; 00000048H
; Line 825
	mov	r8d, DWORD PTR mark$[rsp]
	mov	rdx, QWORD PTR root$[rsp]
	mov	rcx, QWORD PTR reader$[rsp]
	call	ccread_declaration_specifiers
	mov	QWORD PTR type$[rsp], rax
	cmp	QWORD PTR type$[rsp], 0
	je	$LN2@ccread_ini
; Line 826
	mov	r8d, DWORD PTR mark$[rsp]
	mov	rdx, QWORD PTR root$[rsp]
	mov	rcx, QWORD PTR reader$[rsp]
	call	ccread_attribute_seq
; Line 827
	mov	r9, QWORD PTR type$[rsp]
	mov	r8d, DWORD PTR mark$[rsp]
	mov	rdx, QWORD PTR root$[rsp]
	mov	rcx, QWORD PTR reader$[rsp]
	call	ccread_init_decl_name_list
	mov	QWORD PTR list$[rsp], rax
	cmp	QWORD PTR list$[rsp], 0
	je	SHORT $LN3@ccread_ini
; Line 828
	mov	r9, QWORD PTR list$[rsp]
	mov	r8, QWORD PTR type$[rsp]
	mov	edx, DWORD PTR mark$[rsp]
	mov	rcx, QWORD PTR root$[rsp]
	call	cctree_decl
	jmp	SHORT $LN1@ccread_ini
	jmp	SHORT $LN4@ccread_ini
$LN3@ccread_ini:
; Line 829
	lea	rax, OFFSET FLAT:$SG49039
	mov	QWORD PTR [rsp+40], rax
	lea	rax, OFFSET FLAT:$SG49040
	mov	QWORD PTR [rsp+32], rax
	lea	r9, OFFSET FLAT:$SG49041
	mov	r8d, 829				; 0000033dH
	lea	rdx, OFFSET FLAT:$SG49042
	mov	ecx, 22
	call	cctrace_
	int	3
	int	3
$LN4@ccread_ini:
$LN2@ccread_ini:
; Line 831
	xor	eax, eax
$LN1@ccread_ini:
; Line 832
	add	rsp, 72					; 00000048H
	ret	0
ccread_init_decl ENDP
_TEXT	ENDS
; Function compile flags: /Odtp
_TEXT	SEGMENT
next$ = 32
list$ = 40
reader$ = 64
root$ = 72
mark$ = 80
type$ = 88
ccread_struct_decl_name_list PROC
; File W:\cpp\void\ktt-c\ccread.c
; Line 814
	mov	QWORD PTR [rsp+32], r9
	mov	DWORD PTR [rsp+24], r8d
	mov	QWORD PTR [rsp+16], rdx
	mov	QWORD PTR [rsp+8], rcx
	sub	rsp, 56					; 00000038H
	mov	QWORD PTR list$[rsp], 0
$LN4@ccread_str:
; Line 816
	mov	r9, QWORD PTR type$[rsp]
	mov	r8d, DWORD PTR mark$[rsp]
	mov	rdx, QWORD PTR root$[rsp]
	mov	rcx, QWORD PTR reader$[rsp]
	call	ccread_struct_decl_name
	mov	QWORD PTR next$[rsp], rax
; Line 817
	cmp	QWORD PTR next$[rsp], 0
	je	SHORT $LN5@ccread_str
	mov	r9d, 1
	mov	r8d, 1
	mov	edx, 8
	lea	rcx, QWORD PTR list$[rsp]
	call	ccdlb_arradd
	mov	eax, eax
	mov	rcx, QWORD PTR list$[rsp]
	mov	rdx, QWORD PTR next$[rsp]
	mov	QWORD PTR [rcx+rax*8], rdx
$LN5@ccread_str:
; Line 818
	cmp	QWORD PTR next$[rsp], 0
	je	SHORT $LN6@ccread_str
	mov	edx, 9
	mov	rcx, QWORD PTR reader$[rsp]
	call	cceat
	test	rax, rax
	jne	SHORT $LN4@ccread_str
$LN6@ccread_str:
; Line 819
	mov	rax, QWORD PTR list$[rsp]
; Line 820
	add	rsp, 56					; 00000038H
	ret	0
ccread_struct_decl_name_list ENDP
_TEXT	ENDS
; Function compile flags: /Odtp
_TEXT	SEGMENT
list$ = 32
next$ = 40
reader$ = 64
root$ = 72
mark$ = 80
type$ = 88
ccread_init_decl_name_list PROC
; File W:\cpp\void\ktt-c\ccread.c
; Line 802
	mov	QWORD PTR [rsp+32], r9
	mov	DWORD PTR [rsp+24], r8d
	mov	QWORD PTR [rsp+16], rdx
	mov	QWORD PTR [rsp+8], rcx
	sub	rsp, 56					; 00000038H
	cmp	QWORD PTR root$[rsp], 0
	jne	SHORT $LN7@ccread_ini
	int	3
$LN7@ccread_ini:
; Line 803
	mov	QWORD PTR list$[rsp], 0
$LN4@ccread_ini:
; Line 805
	mov	r9, QWORD PTR type$[rsp]
	mov	r8d, DWORD PTR mark$[rsp]
	mov	rdx, QWORD PTR root$[rsp]
	mov	rcx, QWORD PTR reader$[rsp]
	call	ccread_init_decl_name
	mov	QWORD PTR next$[rsp], rax
; Line 806
	cmp	QWORD PTR next$[rsp], 0
	jne	SHORT $LN5@ccread_ini
	jmp	SHORT $LN3@ccread_ini
$LN5@ccread_ini:
; Line 807
	mov	r9d, 1
	mov	r8d, 1
	mov	edx, 8
	lea	rcx, QWORD PTR list$[rsp]
	call	ccdlb_arradd
	mov	eax, eax
	mov	rcx, QWORD PTR list$[rsp]
	mov	rdx, QWORD PTR next$[rsp]
	mov	QWORD PTR [rcx+rax*8], rdx
; Line 808
	mov	edx, 9
	mov	rcx, QWORD PTR reader$[rsp]
	call	cceat
	test	rax, rax
	jne	SHORT $LN4@ccread_ini
$LN3@ccread_ini:
; Line 809
	mov	rax, QWORD PTR list$[rsp]
; Line 810
	add	rsp, 56					; 00000038H
	ret	0
ccread_init_decl_name_list ENDP
_TEXT	ENDS
; Function compile flags: /Odtp
_TEXT	SEGMENT
decl$ = 48
reader$ = 80
root$ = 88
mark$ = 96
type$ = 104
ccread_struct_decl_name PROC
; File W:\cpp\void\ktt-c\ccread.c
; Line 789
	mov	QWORD PTR [rsp+32], r9
	mov	DWORD PTR [rsp+24], r8d
	mov	QWORD PTR [rsp+16], rdx
	mov	QWORD PTR [rsp+8], rcx
	sub	rsp, 72					; 00000048H
	cmp	QWORD PTR type$[rsp], 0
	jne	SHORT $LN6@ccread_str
	int	3
$LN6@ccread_str:
; Line 790
	mov	r9, QWORD PTR type$[rsp]
	mov	r8d, DWORD PTR mark$[rsp]
	mov	rdx, QWORD PTR root$[rsp]
	mov	rcx, QWORD PTR reader$[rsp]
	call	ccread_decl_name
	mov	QWORD PTR decl$[rsp], rax
; Line 791
	cmp	QWORD PTR decl$[rsp], 0
	je	SHORT $LN2@ccread_str
; Line 792
	mov	edx, 10
	mov	rcx, QWORD PTR reader$[rsp]
	call	cceat
	test	rax, rax
	je	SHORT $LN3@ccread_str
; Line 793
	mov	r8d, DWORD PTR mark$[rsp]
	mov	rdx, QWORD PTR root$[rsp]
	mov	rcx, QWORD PTR reader$[rsp]
	call	ccread_constant_expression
	mov	rcx, QWORD PTR decl$[rsp]
	mov	QWORD PTR [rcx+56], rax
; Line 794
	mov	rax, QWORD PTR decl$[rsp]
	cmp	QWORD PTR [rax+56], 0
	jne	SHORT $LN4@ccread_str
	lea	rax, OFFSET FLAT:$SG48998
	mov	QWORD PTR [rsp+40], rax
	lea	rax, OFFSET FLAT:$SG48999
	mov	QWORD PTR [rsp+32], rax
	lea	r9, OFFSET FLAT:$SG49000
	mov	r8d, 794				; 0000031aH
	lea	rdx, OFFSET FLAT:$SG49001
	mov	ecx, 21
	call	cctrace_
	int	3
	int	3
$LN4@ccread_str:
$LN3@ccread_str:
$LN2@ccread_str:
; Line 797
	mov	rax, QWORD PTR decl$[rsp]
; Line 798
	add	rsp, 72					; 00000048H
	ret	0
ccread_struct_decl_name ENDP
_TEXT	ENDS
; Function compile flags: /Odtp
_TEXT	SEGMENT
decl$ = 48
reader$ = 80
root$ = 88
mark$ = 96
type$ = 104
ccread_init_decl_name PROC
; File W:\cpp\void\ktt-c\ccread.c
; Line 774
	mov	QWORD PTR [rsp+32], r9
	mov	DWORD PTR [rsp+24], r8d
	mov	QWORD PTR [rsp+16], rdx
	mov	QWORD PTR [rsp+8], rcx
	sub	rsp, 72					; 00000048H
	cmp	QWORD PTR type$[rsp], 0
	jne	SHORT $LN6@ccread_ini
	int	3
$LN6@ccread_ini:
; Line 776
	mov	r9, QWORD PTR type$[rsp]
	mov	r8d, DWORD PTR mark$[rsp]
	mov	rdx, QWORD PTR root$[rsp]
	mov	rcx, QWORD PTR reader$[rsp]
	call	ccread_decl_name
	mov	QWORD PTR decl$[rsp], rax
; Line 778
	cmp	QWORD PTR decl$[rsp], 0
	je	SHORT $LN2@ccread_ini
; Line 779
	mov	edx, 109				; 0000006dH
	mov	rcx, QWORD PTR reader$[rsp]
	call	cceat
	test	rax, rax
	je	SHORT $LN3@ccread_ini
; Line 780
	mov	r8d, DWORD PTR mark$[rsp]
	mov	rdx, QWORD PTR root$[rsp]
	mov	rcx, QWORD PTR reader$[rsp]
	call	ccread_initializer
	mov	rcx, QWORD PTR decl$[rsp]
	mov	QWORD PTR [rcx+64], rax
; Line 781
	mov	rax, QWORD PTR decl$[rsp]
	cmp	QWORD PTR [rax+64], 0
	jne	SHORT $LN4@ccread_ini
	lea	rax, OFFSET FLAT:$SG48984
	mov	QWORD PTR [rsp+40], rax
	lea	rax, OFFSET FLAT:$SG48985
	mov	QWORD PTR [rsp+32], rax
	lea	r9, OFFSET FLAT:$SG48986
	mov	r8d, 781				; 0000030dH
	lea	rdx, OFFSET FLAT:$SG48987
	mov	ecx, 20
	call	cctrace_
	int	3
	int	3
$LN4@ccread_ini:
$LN3@ccread_ini:
$LN2@ccread_ini:
; Line 784
	mov	rax, QWORD PTR decl$[rsp]
; Line 785
	add	rsp, 72					; 00000048H
	ret	0
ccread_init_decl_name ENDP
_TEXT	ENDS
; Function compile flags: /Odtp
_TEXT	SEGMENT
reader$ = 48
root$ = 56
mark$ = 64
type$ = 72
ccread_decl_name_modifier_maybe PROC
; File W:\cpp\void\ktt-c\ccread.c
; Line 758
	mov	QWORD PTR [rsp+32], r9
	mov	DWORD PTR [rsp+24], r8d
	mov	QWORD PTR [rsp+16], rdx
	mov	QWORD PTR [rsp+8], rcx
	sub	rsp, 40					; 00000028H
	mov	edx, 92					; 0000005cH
	mov	rcx, QWORD PTR reader$[rsp]
	call	cceat
	test	rax, rax
	je	SHORT $LN2@ccread_dec
; Line 759
	mov	r9, QWORD PTR type$[rsp]
	mov	r8d, DWORD PTR mark$[rsp]
	mov	rdx, QWORD PTR root$[rsp]
	mov	rcx, QWORD PTR reader$[rsp]
	call	ccread_decl_name_modifier_maybe
	mov	rcx, rax
	call	cctreee_pointer_modifier
	jmp	SHORT $LN1@ccread_dec
$LN2@ccread_dec:
; Line 760
	mov	rax, QWORD PTR type$[rsp]
$LN1@ccread_dec:
; Line 761
	add	rsp, 40					; 00000028H
	ret	0
ccread_decl_name_modifier_maybe ENDP
_TEXT	ENDS
; Function compile flags: /Odtp
_TEXT	SEGMENT
mod$1 = 48
tmp$2 = 56
res$3 = 64
name$4 = 72
mod$5 = 80
mod$6 = 88
reader$ = 128
root$ = 136
mark$ = 144
type$ = 152
ccread_direct_decl_name PROC
; File W:\cpp\void\ktt-c\ccread.c
; Line 733
	mov	QWORD PTR [rsp+32], r9
	mov	DWORD PTR [rsp+24], r8d
	mov	QWORD PTR [rsp+16], rdx
	mov	QWORD PTR [rsp+8], rcx
	push	rsi
	push	rdi
	sub	rsp, 104				; 00000068H
	mov	edx, 3
	mov	rcx, QWORD PTR reader$[rsp]
	call	cceat
	test	rax, rax
	je	$LN2@ccread_dir
; Line 736
	mov	rcx, QWORD PTR type$[rsp]
	call	cctree_clone
	mov	QWORD PTR mod$1[rsp], rax
; Line 737
	mov	r9, QWORD PTR mod$1[rsp]
	mov	r8d, DWORD PTR mark$[rsp]
	mov	rdx, QWORD PTR root$[rsp]
	mov	rcx, QWORD PTR reader$[rsp]
	call	ccread_decl_name
	mov	QWORD PTR res$3[rsp], rax
; Line 738
	mov	edx, 4
	mov	rcx, QWORD PTR reader$[rsp]
	call	cceat
	test	rax, rax
	jne	SHORT $LN4@ccread_dir
; Line 739
	lea	rax, OFFSET FLAT:$SG48954
	mov	QWORD PTR [rsp+40], rax
	lea	rax, OFFSET FLAT:$SG48955
	mov	QWORD PTR [rsp+32], rax
	lea	r9, OFFSET FLAT:$SG48956
	mov	r8d, 739				; 000002e3H
	lea	rdx, OFFSET FLAT:$SG48957
	mov	ecx, 19
	call	cctrace_
	int	3
	int	3
$LN4@ccread_dir:
; Line 741
	mov	r9, QWORD PTR type$[rsp]
	mov	r8d, DWORD PTR mark$[rsp]
	mov	rdx, QWORD PTR root$[rsp]
	mov	rcx, QWORD PTR reader$[rsp]
	call	ccread_direct_decl_name_modifier
	mov	QWORD PTR tmp$2[rsp], rax
; Line 742
	mov	rdi, QWORD PTR mod$1[rsp]
	mov	rsi, QWORD PTR tmp$2[rsp]
	mov	ecx, 136				; 00000088H
	rep movsb
; Line 743
	mov	rcx, QWORD PTR tmp$2[rsp]
	call	cctree_del
; Line 744
	mov	rax, QWORD PTR res$3[rsp]
	jmp	$LN1@ccread_dir
; Line 745
	jmp	$LN3@ccread_dir
$LN2@ccread_dir:
; Line 746
	mov	edx, 18
	mov	rcx, QWORD PTR reader$[rsp]
	call	ccsee
	test	eax, eax
	je	$LN5@ccread_dir
; Line 747
	mov	r8d, DWORD PTR mark$[rsp]
	mov	rdx, QWORD PTR root$[rsp]
	mov	rcx, QWORD PTR reader$[rsp]
	call	ccread_litide
	mov	QWORD PTR name$4[rsp], rax
; Line 748
	mov	r9, QWORD PTR type$[rsp]
	mov	r8d, DWORD PTR mark$[rsp]
	mov	rdx, QWORD PTR root$[rsp]
	mov	rcx, QWORD PTR reader$[rsp]
	call	ccread_direct_decl_name_modifier
	mov	QWORD PTR mod$5[rsp], rax
; Line 749
	mov	QWORD PTR [rsp+40], 0
	mov	QWORD PTR [rsp+32], 0
	mov	r9, QWORD PTR name$4[rsp]
	mov	r8, QWORD PTR mod$5[rsp]
	mov	edx, DWORD PTR mark$[rsp]
	mov	rcx, QWORD PTR root$[rsp]
	call	cctree_decl_name
	jmp	SHORT $LN1@ccread_dir
; Line 750
	jmp	SHORT $LN6@ccread_dir
$LN5@ccread_dir:
; Line 751
	mov	r9, QWORD PTR type$[rsp]
	mov	r8d, DWORD PTR mark$[rsp]
	mov	rdx, QWORD PTR root$[rsp]
	mov	rcx, QWORD PTR reader$[rsp]
	call	ccread_direct_decl_name_modifier
	mov	QWORD PTR mod$6[rsp], rax
; Line 752
	mov	QWORD PTR [rsp+40], 0
	mov	QWORD PTR [rsp+32], 0
	xor	r9d, r9d
	mov	r8, QWORD PTR mod$6[rsp]
	mov	edx, DWORD PTR mark$[rsp]
	mov	rcx, QWORD PTR root$[rsp]
	call	cctree_decl_name
$LN6@ccread_dir:
$LN3@ccread_dir:
$LN1@ccread_dir:
; Line 754
	add	rsp, 104				; 00000068H
	pop	rdi
	pop	rsi
	ret	0
ccread_direct_decl_name ENDP
_TEXT	ENDS
; Function compile flags: /Odtp
_TEXT	SEGMENT
modifier$1 = 48
list$2 = 56
rval$3 = 64
modi$4 = 72
reader$ = 96
root$ = 104
mark$ = 112
type$ = 120
ccread_direct_decl_name_modifier PROC
; File W:\cpp\void\ktt-c\ccread.c
; Line 710
	mov	QWORD PTR [rsp+32], r9
	mov	DWORD PTR [rsp+24], r8d
	mov	QWORD PTR [rsp+16], rdx
	mov	QWORD PTR [rsp+8], rcx
	sub	rsp, 88					; 00000058H
	mov	edx, 3
	mov	rcx, QWORD PTR reader$[rsp]
	call	cceat
	test	rax, rax
	je	$LN2@ccread_dir
; Line 711
	mov	r8d, DWORD PTR mark$[rsp]
	mov	rdx, QWORD PTR root$[rsp]
	mov	rcx, QWORD PTR reader$[rsp]
	call	ccread_param_type_list
	mov	QWORD PTR list$2[rsp], rax
; Line 712
	mov	edx, 4
	mov	rcx, QWORD PTR reader$[rsp]
	call	cceat
	test	rax, rax
	jne	SHORT $LN4@ccread_dir
	lea	rax, OFFSET FLAT:$SG48919
	mov	QWORD PTR [rsp+40], rax
	lea	rax, OFFSET FLAT:$SG48920
	mov	QWORD PTR [rsp+32], rax
	lea	r9, OFFSET FLAT:$SG48921
	mov	r8d, 712				; 000002c8H
	lea	rdx, OFFSET FLAT:$SG48922
	mov	ecx, 15
	call	cctrace_
	int	3
	int	3
$LN4@ccread_dir:
; Line 713
	mov	r9, QWORD PTR type$[rsp]
	mov	r8d, DWORD PTR mark$[rsp]
	mov	rdx, QWORD PTR root$[rsp]
	mov	rcx, QWORD PTR reader$[rsp]
	call	ccread_direct_decl_name_modifier
	mov	QWORD PTR modifier$1[rsp], rax
; Line 714
	mov	rax, QWORD PTR modifier$1[rsp]
	cmp	DWORD PTR [rax], 3
	jne	SHORT $LN5@ccread_dir
	lea	rax, OFFSET FLAT:$SG48924
	mov	QWORD PTR [rsp+40], rax
	lea	rax, OFFSET FLAT:$SG48925
	mov	QWORD PTR [rsp+32], rax
	lea	r9, OFFSET FLAT:$SG48926
	mov	r8d, 714				; 000002caH
	lea	rdx, OFFSET FLAT:$SG48927
	mov	ecx, 16
	call	cctrace_
$LN5@ccread_dir:
; Line 715
	mov	rax, QWORD PTR modifier$1[rsp]
	cmp	DWORD PTR [rax], 4
	jne	SHORT $LN6@ccread_dir
	lea	rax, OFFSET FLAT:$SG48929
	mov	QWORD PTR [rsp+40], rax
	lea	rax, OFFSET FLAT:$SG48930
	mov	QWORD PTR [rsp+32], rax
	lea	r9, OFFSET FLAT:$SG48931
	mov	r8d, 715				; 000002cbH
	lea	rdx, OFFSET FLAT:$SG48932
	mov	ecx, 17
	call	cctrace_
$LN6@ccread_dir:
; Line 716
	mov	rdx, QWORD PTR list$2[rsp]
	mov	rcx, QWORD PTR modifier$1[rsp]
	call	cctreee_function_modifier
	jmp	$LN1@ccread_dir
; Line 717
	jmp	$LN3@ccread_dir
$LN2@ccread_dir:
; Line 718
	mov	edx, 7
	mov	rcx, QWORD PTR reader$[rsp]
	call	cceat
	test	rax, rax
	je	$LN7@ccread_dir
; Line 720
	mov	r8d, DWORD PTR mark$[rsp]
	mov	rdx, QWORD PTR root$[rsp]
	mov	rcx, QWORD PTR reader$[rsp]
	call	ccread_expression
	mov	QWORD PTR rval$3[rsp], rax
; Line 722
	mov	edx, 8
	mov	rcx, QWORD PTR reader$[rsp]
	call	cceat
	test	rax, rax
	jne	SHORT $LN8@ccread_dir
; Line 723
	lea	rax, OFFSET FLAT:$SG48935
	mov	QWORD PTR [rsp+40], rax
	lea	rax, OFFSET FLAT:$SG48936
	mov	QWORD PTR [rsp+32], rax
	lea	r9, OFFSET FLAT:$SG48937
	mov	r8d, 723				; 000002d3H
	lea	rdx, OFFSET FLAT:$SG48938
	mov	ecx, 18
	call	cctrace_
	int	3
	int	3
$LN8@ccread_dir:
; Line 725
	mov	r9, QWORD PTR type$[rsp]
	mov	r8d, DWORD PTR mark$[rsp]
	mov	rdx, QWORD PTR root$[rsp]
	mov	rcx, QWORD PTR reader$[rsp]
	call	ccread_direct_decl_name_modifier
	mov	QWORD PTR modi$4[rsp], rax
; Line 726
	mov	rdx, QWORD PTR rval$3[rsp]
	mov	rcx, QWORD PTR modi$4[rsp]
	call	cctreee_array_modifier
	jmp	SHORT $LN1@ccread_dir
$LN7@ccread_dir:
$LN3@ccread_dir:
; Line 728
	mov	rax, QWORD PTR type$[rsp]
$LN1@ccread_dir:
; Line 729
	add	rsp, 88					; 00000058H
	ret	0
ccread_direct_decl_name_modifier ENDP
_TEXT	ENDS
; Function compile flags: /Odtp
_TEXT	SEGMENT
type$ = 32
reader$ = 64
root$ = 72
mark$ = 80
ccread_specifier_qualifier_list PROC
; File W:\cpp\void\ktt-c\ccread.c
; Line 989
	mov	DWORD PTR [rsp+24], r8d
	mov	QWORD PTR [rsp+16], rdx
	mov	QWORD PTR [rsp+8], rcx
	sub	rsp, 56					; 00000038H
; Line 990
	mov	r8d, DWORD PTR mark$[rsp]
	mov	rdx, QWORD PTR root$[rsp]
	mov	rcx, QWORD PTR reader$[rsp]
	call	ccread_type_specifier
	mov	QWORD PTR type$[rsp], rax
; Line 991
	mov	r8d, DWORD PTR mark$[rsp]
	mov	rdx, QWORD PTR root$[rsp]
	mov	rcx, QWORD PTR reader$[rsp]
	call	ccread_type_qualifier
; Line 992
	mov	r8d, DWORD PTR mark$[rsp]
	mov	rdx, QWORD PTR root$[rsp]
	mov	rcx, QWORD PTR reader$[rsp]
	call	ccread_alignment_specifier
; Line 994
	mov	rax, QWORD PTR type$[rsp]
; Line 995
	add	rsp, 56					; 00000038H
	ret	0
ccread_specifier_qualifier_list ENDP
_TEXT	ENDS
; Function compile flags: /Odtp
_TEXT	SEGMENT
reader$ = 8
root$ = 16
mark$ = 24
ccread_attribute_seq PROC
; File W:\cpp\void\ktt-c\ccread.c
; Line 1004
	mov	DWORD PTR [rsp+24], r8d
	mov	QWORD PTR [rsp+16], rdx
	mov	QWORD PTR [rsp+8], rcx
; Line 1006
	xor	eax, eax
; Line 1007
	ret	0
ccread_attribute_seq ENDP
_TEXT	ENDS
; Function compile flags: /Odtp
_TEXT	SEGMENT
type$ = 32
reader$ = 64
root$ = 72
mark$ = 80
ccread_declaration_specifiers PROC
; File W:\cpp\void\ktt-c\ccread.c
; Line 1018
	mov	DWORD PTR [rsp+24], r8d
	mov	QWORD PTR [rsp+16], rdx
	mov	QWORD PTR [rsp+8], rcx
	sub	rsp, 56					; 00000038H
; Line 1019
	mov	r8d, DWORD PTR mark$[rsp]
	mov	rdx, QWORD PTR root$[rsp]
	mov	rcx, QWORD PTR reader$[rsp]
	call	ccread_storage_class_specifier
; Line 1021
	mov	r8d, DWORD PTR mark$[rsp]
	mov	rdx, QWORD PTR root$[rsp]
	mov	rcx, QWORD PTR reader$[rsp]
	call	ccread_specifier_qualifier_list
	mov	QWORD PTR type$[rsp], rax
; Line 1023
	mov	r8d, DWORD PTR mark$[rsp]
	mov	rdx, QWORD PTR root$[rsp]
	mov	rcx, QWORD PTR reader$[rsp]
	call	ccread_function_specifier
; Line 1025
	mov	rax, QWORD PTR type$[rsp]
; Line 1026
	add	rsp, 56					; 00000038H
	ret	0
ccread_declaration_specifiers ENDP
_TEXT	ENDS
; Function compile flags: /Odtp
_TEXT	SEGMENT
tree$ = 32
reader$ = 64
root$ = 72
mark$ = 80
type$ = 88
ccread_decl_name PROC
; File W:\cpp\void\ktt-c\ccread.c
; Line 765
	mov	QWORD PTR [rsp+32], r9
	mov	DWORD PTR [rsp+24], r8d
	mov	QWORD PTR [rsp+16], rdx
	mov	QWORD PTR [rsp+8], rcx
	sub	rsp, 56					; 00000038H
	cmp	QWORD PTR type$[rsp], 0
	jne	SHORT $LN3@ccread_dec
	int	3
$LN3@ccread_dec:
; Line 767
	mov	r9, QWORD PTR type$[rsp]
	mov	r8d, DWORD PTR mark$[rsp]
	mov	rdx, QWORD PTR root$[rsp]
	mov	rcx, QWORD PTR reader$[rsp]
	call	ccread_decl_name_modifier_maybe
	mov	r9, rax
	mov	r8d, DWORD PTR mark$[rsp]
	mov	rdx, QWORD PTR root$[rsp]
	mov	rcx, QWORD PTR reader$[rsp]
	call	ccread_direct_decl_name
	mov	QWORD PTR tree$[rsp], rax
; Line 769
	mov	rax, QWORD PTR tree$[rsp]
; Line 770
	add	rsp, 56					; 00000038H
	ret	0
ccread_decl_name ENDP
_TEXT	ENDS
; Function compile flags: /Odtp
_TEXT	SEGMENT
reader$ = 48
root$ = 56
mark$ = 64
ccread_initializer PROC
; File W:\cpp\void\ktt-c\ccread.c
; Line 690
	mov	DWORD PTR [rsp+24], r8d
	mov	QWORD PTR [rsp+16], rdx
	mov	QWORD PTR [rsp+8], rcx
	sub	rsp, 40					; 00000028H
; Line 705
	mov	r8d, DWORD PTR mark$[rsp]
	mov	rdx, QWORD PTR root$[rsp]
	mov	rcx, QWORD PTR reader$[rsp]
	call	ccread_assignment_expr
; Line 706
	add	rsp, 40					; 00000028H
	ret	0
ccread_initializer ENDP
_TEXT	ENDS
; Function compile flags: /Odtp
_TEXT	SEGMENT
list$ = 32
reader$ = 64
root$ = 72
mark$ = 80
ccread_param_type_list PROC
; File W:\cpp\void\ktt-c\ccread.c
; Line 1069
	mov	DWORD PTR [rsp+24], r8d
	mov	QWORD PTR [rsp+16], rdx
	mov	QWORD PTR [rsp+8], rcx
	sub	rsp, 56					; 00000038H
; Line 1070
	mov	r8d, DWORD PTR mark$[rsp]
	mov	rdx, QWORD PTR root$[rsp]
	mov	rcx, QWORD PTR reader$[rsp]
	call	ccread_param_decl_list
	mov	QWORD PTR list$[rsp], rax
; Line 1075
	mov	rax, QWORD PTR list$[rsp]
; Line 1076
	add	rsp, 56					; 00000038H
	ret	0
ccread_param_type_list ENDP
_TEXT	ENDS
; Function compile flags: /Odtp
_TEXT	SEGMENT
reader$ = 48
root$ = 56
mark$ = 64
ccread_constant_expression PROC
; File W:\cpp\void\ktt-c\ccread.c
; Line 575
	mov	DWORD PTR [rsp+24], r8d
	mov	QWORD PTR [rsp+16], rdx
	mov	QWORD PTR [rsp+8], rcx
	sub	rsp, 40					; 00000028H
; Line 576
	mov	r8d, DWORD PTR mark$[rsp]
	mov	rdx, QWORD PTR root$[rsp]
	mov	rcx, QWORD PTR reader$[rsp]
	call	ccread_conditional_expr
; Line 577
	add	rsp, 40					; 00000028H
	ret	0
ccread_constant_expression ENDP
_TEXT	ENDS
; Function compile flags: /Odtp
_TEXT	SEGMENT
lhs$ = 48
tok$1 = 56
rhs$2 = 64
parser$ = 96
root$ = 104
mark$ = 112
ccread_assignment_expr PROC
; File W:\cpp\void\ktt-c\ccread.c
; Line 562
	mov	DWORD PTR [rsp+24], r8d
	mov	QWORD PTR [rsp+16], rdx
	mov	QWORD PTR [rsp+8], rcx
	sub	rsp, 88					; 00000058H
	mov	r8d, DWORD PTR mark$[rsp]
	mov	rdx, QWORD PTR root$[rsp]
	mov	rcx, QWORD PTR parser$[rsp]
	call	ccread_conditional_expr
	mov	QWORD PTR lhs$[rsp], rax
; Line 563
	mov	edx, 109				; 0000006dH
	mov	rcx, QWORD PTR parser$[rsp]
	call	cceat
	mov	QWORD PTR tok$1[rsp], rax
	cmp	QWORD PTR tok$1[rsp], 0
	je	SHORT $LN2@ccread_ass
; Line 564
	mov	r8d, DWORD PTR mark$[rsp]
	mov	rdx, QWORD PTR root$[rsp]
	mov	rcx, QWORD PTR parser$[rsp]
	call	ccread_assignment_expr
	mov	QWORD PTR rhs$2[rsp], rax
; Line 565
	mov	rax, QWORD PTR rhs$2[rsp]
	mov	QWORD PTR [rsp+32], rax
	mov	r9, QWORD PTR lhs$[rsp]
	mov	r8, QWORD PTR tok$1[rsp]
	mov	edx, DWORD PTR mark$[rsp]
	mov	rcx, QWORD PTR root$[rsp]
	call	cctree_binary
	mov	QWORD PTR lhs$[rsp], rax
$LN2@ccread_ass:
; Line 567
	mov	rax, QWORD PTR lhs$[rsp]
; Line 568
	add	rsp, 88					; 00000058H
	ret	0
ccread_assignment_expr ENDP
_TEXT	ENDS
; Function compile flags: /Odtp
_TEXT	SEGMENT
rhs$1 = 48
lhs$2 = 56
rad$ = 64
parser$ = 96
root$ = 104
mark$ = 112
ccread_conditional_expr PROC
; File W:\cpp\void\ktt-c\ccread.c
; Line 533
	mov	DWORD PTR [rsp+24], r8d
	mov	QWORD PTR [rsp+16], rdx
	mov	QWORD PTR [rsp+8], rcx
	sub	rsp, 88					; 00000058H
; Line 534
	mov	r8d, DWORD PTR mark$[rsp]
	mov	rdx, QWORD PTR root$[rsp]
	mov	rcx, QWORD PTR parser$[rsp]
	call	ccread_logical_or_expr
	mov	QWORD PTR rad$[rsp], rax
; Line 536
	mov	edx, 108				; 0000006cH
	mov	rcx, QWORD PTR parser$[rsp]
	call	cceat
	test	rax, rax
	je	$LN2@ccread_con
; Line 538
	mov	QWORD PTR lhs$2[rsp], 0
	mov	QWORD PTR rhs$1[rsp], 0
; Line 539
	mov	r8d, DWORD PTR mark$[rsp]
	mov	rdx, QWORD PTR root$[rsp]
	mov	rcx, QWORD PTR parser$[rsp]
	call	ccread_logical_or_expr
	mov	QWORD PTR lhs$2[rsp], rax
; Line 541
	mov	edx, 10
	mov	rcx, QWORD PTR parser$[rsp]
	call	cceat
	test	rax, rax
	je	SHORT $LN3@ccread_con
; Line 542
	mov	r8d, DWORD PTR mark$[rsp]
	mov	rdx, QWORD PTR root$[rsp]
	mov	rcx, QWORD PTR parser$[rsp]
	call	ccread_conditional_expr
	mov	QWORD PTR rhs$1[rsp], rax
; Line 543
	jmp	SHORT $LN4@ccread_con
$LN3@ccread_con:
; Line 544
	lea	rax, OFFSET FLAT:$SG48838
	mov	QWORD PTR [rsp+40], rax
	lea	rax, OFFSET FLAT:$SG48839
	mov	QWORD PTR [rsp+32], rax
	lea	r9, OFFSET FLAT:$SG48840
	mov	r8d, 544				; 00000220H
	lea	rdx, OFFSET FLAT:$SG48841
	mov	ecx, 14
	call	cctrace_
	int	3
	int	3
$LN4@ccread_con:
; Line 547
	mov	rax, QWORD PTR rhs$1[rsp]
	mov	QWORD PTR [rsp+32], rax
	mov	r9, QWORD PTR lhs$2[rsp]
	mov	r8, QWORD PTR rad$[rsp]
	mov	edx, DWORD PTR mark$[rsp]
	mov	rcx, QWORD PTR root$[rsp]
	call	cctree_ternary
	jmp	SHORT $LN1@ccread_con
$LN2@ccread_con:
; Line 550
	mov	rax, QWORD PTR rad$[rsp]
$LN1@ccread_con:
; Line 551
	add	rsp, 88					; 00000058H
	ret	0
ccread_conditional_expr ENDP
_TEXT	ENDS
; Function compile flags: /Odtp
_TEXT	SEGMENT
lhs$ = 48
rhs$1 = 56
tok$2 = 64
parser$ = 96
root$ = 104
mark$ = 112
ccread_logical_or_expr PROC
; File W:\cpp\void\ktt-c\ccread.c
; Line 518
	mov	DWORD PTR [rsp+24], r8d
	mov	QWORD PTR [rsp+16], rdx
	mov	QWORD PTR [rsp+8], rcx
	sub	rsp, 88					; 00000058H
	mov	r8d, DWORD PTR mark$[rsp]
	mov	rdx, QWORD PTR root$[rsp]
	mov	rcx, QWORD PTR parser$[rsp]
	call	ccread_logical_and_expr
	mov	QWORD PTR lhs$[rsp], rax
$LN2@ccread_log:
; Line 519
	mov	edx, 107				; 0000006bH
	mov	rcx, QWORD PTR parser$[rsp]
	call	ccsee
	test	eax, eax
	je	SHORT $LN3@ccread_log
; Line 520
	mov	rcx, QWORD PTR parser$[rsp]
	call	ccgobble
	mov	QWORD PTR tok$2[rsp], rax
; Line 521
	mov	r8d, DWORD PTR mark$[rsp]
	mov	rdx, QWORD PTR root$[rsp]
	mov	rcx, QWORD PTR parser$[rsp]
	call	ccread_logical_and_expr
	mov	QWORD PTR rhs$1[rsp], rax
; Line 522
	mov	rax, QWORD PTR rhs$1[rsp]
	mov	QWORD PTR [rsp+32], rax
	mov	r9, QWORD PTR lhs$[rsp]
	mov	r8, QWORD PTR tok$2[rsp]
	mov	edx, DWORD PTR mark$[rsp]
	mov	rcx, QWORD PTR root$[rsp]
	call	cctree_binary
	mov	QWORD PTR lhs$[rsp], rax
; Line 523
	jmp	SHORT $LN2@ccread_log
$LN3@ccread_log:
; Line 524
	mov	rax, QWORD PTR lhs$[rsp]
; Line 525
	add	rsp, 88					; 00000058H
	ret	0
ccread_logical_or_expr ENDP
_TEXT	ENDS
; Function compile flags: /Odtp
_TEXT	SEGMENT
lhs$ = 48
rhs$1 = 56
tok$2 = 64
parser$ = 96
root$ = 104
mark$ = 112
ccread_logical_and_expr PROC
; File W:\cpp\void\ktt-c\ccread.c
; Line 503
	mov	DWORD PTR [rsp+24], r8d
	mov	QWORD PTR [rsp+16], rdx
	mov	QWORD PTR [rsp+8], rcx
	sub	rsp, 88					; 00000058H
	mov	r8d, DWORD PTR mark$[rsp]
	mov	rdx, QWORD PTR root$[rsp]
	mov	rcx, QWORD PTR parser$[rsp]
	call	ccread_bitwise_or_expr
	mov	QWORD PTR lhs$[rsp], rax
$LN2@ccread_log:
; Line 504
	mov	edx, 106				; 0000006aH
	mov	rcx, QWORD PTR parser$[rsp]
	call	ccsee
	test	eax, eax
	je	SHORT $LN3@ccread_log
; Line 505
	mov	rcx, QWORD PTR parser$[rsp]
	call	ccgobble
	mov	QWORD PTR tok$2[rsp], rax
; Line 506
	mov	r8d, DWORD PTR mark$[rsp]
	mov	rdx, QWORD PTR root$[rsp]
	mov	rcx, QWORD PTR parser$[rsp]
	call	ccread_bitwise_or_expr
	mov	QWORD PTR rhs$1[rsp], rax
; Line 507
	mov	rax, QWORD PTR rhs$1[rsp]
	mov	QWORD PTR [rsp+32], rax
	mov	r9, QWORD PTR lhs$[rsp]
	mov	r8, QWORD PTR tok$2[rsp]
	mov	edx, DWORD PTR mark$[rsp]
	mov	rcx, QWORD PTR root$[rsp]
	call	cctree_binary
	mov	QWORD PTR lhs$[rsp], rax
; Line 508
	jmp	SHORT $LN2@ccread_log
$LN3@ccread_log:
; Line 509
	mov	rax, QWORD PTR lhs$[rsp]
; Line 510
	add	rsp, 88					; 00000058H
	ret	0
ccread_logical_and_expr ENDP
_TEXT	ENDS
; Function compile flags: /Odtp
_TEXT	SEGMENT
lhs$ = 48
rhs$1 = 56
tok$2 = 64
parser$ = 96
root$ = 104
mark$ = 112
ccread_bitwise_or_expr PROC
; File W:\cpp\void\ktt-c\ccread.c
; Line 488
	mov	DWORD PTR [rsp+24], r8d
	mov	QWORD PTR [rsp+16], rdx
	mov	QWORD PTR [rsp+8], rcx
	sub	rsp, 88					; 00000058H
	mov	r8d, DWORD PTR mark$[rsp]
	mov	rdx, QWORD PTR root$[rsp]
	mov	rcx, QWORD PTR parser$[rsp]
	call	ccread_bitwise_xor_expr
	mov	QWORD PTR lhs$[rsp], rax
$LN2@ccread_bit:
; Line 489
	mov	edx, 105				; 00000069H
	mov	rcx, QWORD PTR parser$[rsp]
	call	ccsee
	test	eax, eax
	je	SHORT $LN3@ccread_bit
; Line 490
	mov	rcx, QWORD PTR parser$[rsp]
	call	ccgobble
	mov	QWORD PTR tok$2[rsp], rax
; Line 491
	mov	r8d, DWORD PTR mark$[rsp]
	mov	rdx, QWORD PTR root$[rsp]
	mov	rcx, QWORD PTR parser$[rsp]
	call	ccread_bitwise_xor_expr
	mov	QWORD PTR rhs$1[rsp], rax
; Line 492
	mov	rax, QWORD PTR rhs$1[rsp]
	mov	QWORD PTR [rsp+32], rax
	mov	r9, QWORD PTR lhs$[rsp]
	mov	r8, QWORD PTR tok$2[rsp]
	mov	edx, DWORD PTR mark$[rsp]
	mov	rcx, QWORD PTR root$[rsp]
	call	cctree_binary
	mov	QWORD PTR lhs$[rsp], rax
; Line 493
	jmp	SHORT $LN2@ccread_bit
$LN3@ccread_bit:
; Line 494
	mov	rax, QWORD PTR lhs$[rsp]
; Line 495
	add	rsp, 88					; 00000058H
	ret	0
ccread_bitwise_or_expr ENDP
_TEXT	ENDS
; Function compile flags: /Odtp
_TEXT	SEGMENT
lhs$ = 48
rhs$1 = 56
tok$2 = 64
parser$ = 96
root$ = 104
mark$ = 112
ccread_bitwise_xor_expr PROC
; File W:\cpp\void\ktt-c\ccread.c
; Line 473
	mov	DWORD PTR [rsp+24], r8d
	mov	QWORD PTR [rsp+16], rdx
	mov	QWORD PTR [rsp+8], rcx
	sub	rsp, 88					; 00000058H
	mov	r8d, DWORD PTR mark$[rsp]
	mov	rdx, QWORD PTR root$[rsp]
	mov	rcx, QWORD PTR parser$[rsp]
	call	ccread_bitwise_and_expr
	mov	QWORD PTR lhs$[rsp], rax
$LN2@ccread_bit:
; Line 474
	mov	edx, 103				; 00000067H
	mov	rcx, QWORD PTR parser$[rsp]
	call	ccsee
	test	eax, eax
	je	SHORT $LN3@ccread_bit
; Line 475
	mov	rcx, QWORD PTR parser$[rsp]
	call	ccgobble
	mov	QWORD PTR tok$2[rsp], rax
; Line 476
	mov	r8d, DWORD PTR mark$[rsp]
	mov	rdx, QWORD PTR root$[rsp]
	mov	rcx, QWORD PTR parser$[rsp]
	call	ccread_bitwise_and_expr
	mov	QWORD PTR rhs$1[rsp], rax
; Line 477
	mov	rax, QWORD PTR rhs$1[rsp]
	mov	QWORD PTR [rsp+32], rax
	mov	r9, QWORD PTR lhs$[rsp]
	mov	r8, QWORD PTR tok$2[rsp]
	mov	edx, DWORD PTR mark$[rsp]
	mov	rcx, QWORD PTR root$[rsp]
	call	cctree_binary
	mov	QWORD PTR lhs$[rsp], rax
; Line 478
	jmp	SHORT $LN2@ccread_bit
$LN3@ccread_bit:
; Line 479
	mov	rax, QWORD PTR lhs$[rsp]
; Line 480
	add	rsp, 88					; 00000058H
	ret	0
ccread_bitwise_xor_expr ENDP
_TEXT	ENDS
; Function compile flags: /Odtp
_TEXT	SEGMENT
lhs$ = 48
rhs$1 = 56
tok$2 = 64
parser$ = 96
root$ = 104
mark$ = 112
ccread_bitwise_and_expr PROC
; File W:\cpp\void\ktt-c\ccread.c
; Line 458
	mov	DWORD PTR [rsp+24], r8d
	mov	QWORD PTR [rsp+16], rdx
	mov	QWORD PTR [rsp+8], rcx
	sub	rsp, 88					; 00000058H
	mov	r8d, DWORD PTR mark$[rsp]
	mov	rdx, QWORD PTR root$[rsp]
	mov	rcx, QWORD PTR parser$[rsp]
	call	ccread_equality_expr
	mov	QWORD PTR lhs$[rsp], rax
$LN2@ccread_bit:
; Line 459
	mov	edx, 103				; 00000067H
	mov	rcx, QWORD PTR parser$[rsp]
	call	ccsee
	test	eax, eax
	je	SHORT $LN3@ccread_bit
; Line 460
	mov	rcx, QWORD PTR parser$[rsp]
	call	ccgobble
	mov	QWORD PTR tok$2[rsp], rax
; Line 461
	mov	r8d, DWORD PTR mark$[rsp]
	mov	rdx, QWORD PTR root$[rsp]
	mov	rcx, QWORD PTR parser$[rsp]
	call	ccread_equality_expr
	mov	QWORD PTR rhs$1[rsp], rax
; Line 462
	mov	rax, QWORD PTR rhs$1[rsp]
	mov	QWORD PTR [rsp+32], rax
	mov	r9, QWORD PTR lhs$[rsp]
	mov	r8, QWORD PTR tok$2[rsp]
	mov	edx, DWORD PTR mark$[rsp]
	mov	rcx, QWORD PTR root$[rsp]
	call	cctree_binary
	mov	QWORD PTR lhs$[rsp], rax
; Line 463
	jmp	SHORT $LN2@ccread_bit
$LN3@ccread_bit:
; Line 464
	mov	rax, QWORD PTR lhs$[rsp]
; Line 465
	add	rsp, 88					; 00000058H
	ret	0
ccread_bitwise_and_expr ENDP
_TEXT	ENDS
; Function compile flags: /Odtp
_TEXT	SEGMENT
lhs$ = 48
rhs$1 = 56
tok$2 = 64
parser$ = 96
root$ = 104
mark$ = 112
ccread_equality_expr PROC
; File W:\cpp\void\ktt-c\ccread.c
; Line 441
	mov	DWORD PTR [rsp+24], r8d
	mov	QWORD PTR [rsp+16], rdx
	mov	QWORD PTR [rsp+8], rcx
	sub	rsp, 88					; 00000058H
	mov	r8d, DWORD PTR mark$[rsp]
	mov	rdx, QWORD PTR root$[rsp]
	mov	rcx, QWORD PTR parser$[rsp]
	call	ccread_relational_expr
	mov	QWORD PTR lhs$[rsp], rax
; Line 442
	mov	edx, 101				; 00000065H
	mov	rcx, QWORD PTR parser$[rsp]
	call	ccsee
	test	eax, eax
	jne	SHORT $LN3@ccread_equ
	mov	edx, 102				; 00000066H
	mov	rcx, QWORD PTR parser$[rsp]
	call	ccsee
	test	eax, eax
	je	SHORT $LN2@ccread_equ
$LN3@ccread_equ:
; Line 444
	mov	rcx, QWORD PTR parser$[rsp]
	call	ccgobble
	mov	QWORD PTR tok$2[rsp], rax
; Line 445
	mov	r8d, DWORD PTR mark$[rsp]
	mov	rdx, QWORD PTR root$[rsp]
	mov	rcx, QWORD PTR parser$[rsp]
	call	ccread_equality_expr
	mov	QWORD PTR rhs$1[rsp], rax
; Line 446
	mov	rax, QWORD PTR rhs$1[rsp]
	mov	QWORD PTR [rsp+32], rax
	mov	r9, QWORD PTR lhs$[rsp]
	mov	r8, QWORD PTR tok$2[rsp]
	mov	edx, DWORD PTR mark$[rsp]
	mov	rcx, QWORD PTR root$[rsp]
	call	cctree_binary
	mov	QWORD PTR lhs$[rsp], rax
$LN2@ccread_equ:
; Line 448
	mov	rax, QWORD PTR lhs$[rsp]
; Line 449
	add	rsp, 88					; 00000058H
	ret	0
ccread_equality_expr ENDP
_TEXT	ENDS
; Function compile flags: /Odtp
_TEXT	SEGMENT
lhs$ = 48
rhs$1 = 56
tok$2 = 64
parser$ = 96
root$ = 104
mark$ = 112
ccread_relational_expr PROC
; File W:\cpp\void\ktt-c\ccread.c
; Line 422
	mov	DWORD PTR [rsp+24], r8d
	mov	QWORD PTR [rsp+16], rdx
	mov	QWORD PTR [rsp+8], rcx
	sub	rsp, 88					; 00000058H
	mov	r8d, DWORD PTR mark$[rsp]
	mov	rdx, QWORD PTR root$[rsp]
	mov	rcx, QWORD PTR parser$[rsp]
	call	ccread_shift_expr
	mov	QWORD PTR lhs$[rsp], rax
$LN2@ccread_rel:
; Line 425
	mov	edx, 100				; 00000064H
	mov	rcx, QWORD PTR parser$[rsp]
	call	ccsee
	test	eax, eax
	jne	SHORT $LN4@ccread_rel
	mov	edx, 118				; 00000076H
	mov	rcx, QWORD PTR parser$[rsp]
	call	ccsee
	test	eax, eax
	jne	SHORT $LN4@ccread_rel
	mov	edx, 99					; 00000063H
	mov	rcx, QWORD PTR parser$[rsp]
	call	ccsee
	test	eax, eax
	jne	SHORT $LN4@ccread_rel
	mov	edx, 117				; 00000075H
	mov	rcx, QWORD PTR parser$[rsp]
	call	ccsee
	test	eax, eax
	je	SHORT $LN3@ccread_rel
$LN4@ccread_rel:
; Line 427
	mov	rcx, QWORD PTR parser$[rsp]
	call	ccgobble
	mov	QWORD PTR tok$2[rsp], rax
; Line 428
	mov	r8d, DWORD PTR mark$[rsp]
	mov	rdx, QWORD PTR root$[rsp]
	mov	rcx, QWORD PTR parser$[rsp]
	call	ccread_shift_expr
	mov	QWORD PTR rhs$1[rsp], rax
; Line 429
	mov	rax, QWORD PTR rhs$1[rsp]
	mov	QWORD PTR [rsp+32], rax
	mov	r9, QWORD PTR lhs$[rsp]
	mov	r8, QWORD PTR tok$2[rsp]
	mov	edx, DWORD PTR mark$[rsp]
	mov	rcx, QWORD PTR root$[rsp]
	call	cctree_binary
	mov	QWORD PTR lhs$[rsp], rax
; Line 430
	jmp	$LN2@ccread_rel
$LN3@ccread_rel:
; Line 431
	mov	rax, QWORD PTR lhs$[rsp]
; Line 432
	add	rsp, 88					; 00000058H
	ret	0
ccread_relational_expr ENDP
_TEXT	ENDS
; Function compile flags: /Odtp
_TEXT	SEGMENT
lhs$ = 48
rhs$1 = 56
tok$2 = 64
parser$ = 96
root$ = 104
mark$ = 112
ccread_shift_expr PROC
; File W:\cpp\void\ktt-c\ccread.c
; Line 402
	mov	DWORD PTR [rsp+24], r8d
	mov	QWORD PTR [rsp+16], rdx
	mov	QWORD PTR [rsp+8], rcx
	sub	rsp, 88					; 00000058H
	mov	r8d, DWORD PTR mark$[rsp]
	mov	rdx, QWORD PTR root$[rsp]
	mov	rcx, QWORD PTR parser$[rsp]
	call	ccread_additive_expr
	mov	QWORD PTR lhs$[rsp], rax
$LN2@ccread_shi:
; Line 403
	mov	edx, 97					; 00000061H
	mov	rcx, QWORD PTR parser$[rsp]
	call	ccsee
	test	eax, eax
	jne	SHORT $LN4@ccread_shi
	mov	edx, 98					; 00000062H
	mov	rcx, QWORD PTR parser$[rsp]
	call	ccsee
	test	eax, eax
	je	SHORT $LN3@ccread_shi
$LN4@ccread_shi:
; Line 405
	mov	rcx, QWORD PTR parser$[rsp]
	call	ccgobble
	mov	QWORD PTR tok$2[rsp], rax
; Line 406
	mov	r8d, DWORD PTR mark$[rsp]
	mov	rdx, QWORD PTR root$[rsp]
	mov	rcx, QWORD PTR parser$[rsp]
	call	ccread_additive_expr
	mov	QWORD PTR rhs$1[rsp], rax
; Line 407
	mov	rax, QWORD PTR rhs$1[rsp]
	mov	QWORD PTR [rsp+32], rax
	mov	r9, QWORD PTR lhs$[rsp]
	mov	r8, QWORD PTR tok$2[rsp]
	mov	edx, DWORD PTR mark$[rsp]
	mov	rcx, QWORD PTR root$[rsp]
	call	cctree_binary
	mov	QWORD PTR lhs$[rsp], rax
; Line 408
	jmp	SHORT $LN2@ccread_shi
$LN3@ccread_shi:
; Line 409
	mov	rax, QWORD PTR lhs$[rsp]
; Line 410
	add	rsp, 88					; 00000058H
	ret	0
ccread_shift_expr ENDP
_TEXT	ENDS
; Function compile flags: /Odtp
_TEXT	SEGMENT
lhs$ = 48
rhs$1 = 56
tok$2 = 64
parser$ = 96
root$ = 104
mark$ = 112
ccread_additive_expr PROC
; File W:\cpp\void\ktt-c\ccread.c
; Line 384
	mov	DWORD PTR [rsp+24], r8d
	mov	QWORD PTR [rsp+16], rdx
	mov	QWORD PTR [rsp+8], rcx
	sub	rsp, 88					; 00000058H
	mov	r8d, DWORD PTR mark$[rsp]
	mov	rdx, QWORD PTR root$[rsp]
	mov	rcx, QWORD PTR parser$[rsp]
	call	ccread_multiplicative_expr
	mov	QWORD PTR lhs$[rsp], rax
$LN2@ccread_add:
; Line 385
	mov	edx, 95					; 0000005fH
	mov	rcx, QWORD PTR parser$[rsp]
	call	ccsee
	test	eax, eax
	jne	SHORT $LN4@ccread_add
	mov	edx, 96					; 00000060H
	mov	rcx, QWORD PTR parser$[rsp]
	call	ccsee
	test	eax, eax
	je	SHORT $LN3@ccread_add
$LN4@ccread_add:
; Line 388
	mov	rcx, QWORD PTR parser$[rsp]
	call	ccgobble
	mov	QWORD PTR tok$2[rsp], rax
; Line 389
	mov	r8d, DWORD PTR mark$[rsp]
	mov	rdx, QWORD PTR root$[rsp]
	mov	rcx, QWORD PTR parser$[rsp]
	call	ccread_multiplicative_expr
	mov	QWORD PTR rhs$1[rsp], rax
; Line 390
	mov	rax, QWORD PTR rhs$1[rsp]
	mov	QWORD PTR [rsp+32], rax
	mov	r9, QWORD PTR lhs$[rsp]
	mov	r8, QWORD PTR tok$2[rsp]
	mov	edx, DWORD PTR mark$[rsp]
	mov	rcx, QWORD PTR root$[rsp]
	call	cctree_binary
	mov	QWORD PTR lhs$[rsp], rax
; Line 391
	jmp	SHORT $LN2@ccread_add
$LN3@ccread_add:
; Line 392
	mov	rax, QWORD PTR lhs$[rsp]
; Line 393
	add	rsp, 88					; 00000058H
	ret	0
ccread_additive_expr ENDP
_TEXT	ENDS
; Function compile flags: /Odtp
_TEXT	SEGMENT
lhs$ = 48
rhs$1 = 56
tok$2 = 64
parser$ = 96
root$ = 104
mark$ = 112
ccread_multiplicative_expr PROC
; File W:\cpp\void\ktt-c\ccread.c
; Line 365
	mov	DWORD PTR [rsp+24], r8d
	mov	QWORD PTR [rsp+16], rdx
	mov	QWORD PTR [rsp+8], rcx
	sub	rsp, 88					; 00000058H
	mov	r8d, DWORD PTR mark$[rsp]
	mov	rdx, QWORD PTR root$[rsp]
	mov	rcx, QWORD PTR parser$[rsp]
	call	ccread_unary_expr
	mov	QWORD PTR lhs$[rsp], rax
$LN2@ccread_mul:
; Line 367
	mov	edx, 92					; 0000005cH
	mov	rcx, QWORD PTR parser$[rsp]
	call	ccsee
	test	eax, eax
	jne	SHORT $LN4@ccread_mul
	mov	edx, 93					; 0000005dH
	mov	rcx, QWORD PTR parser$[rsp]
	call	ccsee
	test	eax, eax
	jne	SHORT $LN4@ccread_mul
	mov	edx, 94					; 0000005eH
	mov	rcx, QWORD PTR parser$[rsp]
	call	ccsee
	test	eax, eax
	je	SHORT $LN3@ccread_mul
$LN4@ccread_mul:
; Line 370
	mov	rcx, QWORD PTR parser$[rsp]
	call	ccgobble
	mov	QWORD PTR tok$2[rsp], rax
; Line 371
	mov	r8d, DWORD PTR mark$[rsp]
	mov	rdx, QWORD PTR root$[rsp]
	mov	rcx, QWORD PTR parser$[rsp]
	call	ccread_unary_expr
	mov	QWORD PTR rhs$1[rsp], rax
; Line 372
	mov	rax, QWORD PTR rhs$1[rsp]
	mov	QWORD PTR [rsp+32], rax
	mov	r9, QWORD PTR lhs$[rsp]
	mov	r8, QWORD PTR tok$2[rsp]
	mov	edx, DWORD PTR mark$[rsp]
	mov	rcx, QWORD PTR root$[rsp]
	call	cctree_binary
	mov	QWORD PTR lhs$[rsp], rax
; Line 373
	jmp	$LN2@ccread_mul
$LN3@ccread_mul:
; Line 374
	mov	rax, QWORD PTR lhs$[rsp]
; Line 375
	add	rsp, 88					; 00000058H
	ret	0
ccread_multiplicative_expr ENDP
_TEXT	ENDS
; Function compile flags: /Odtp
_TEXT	SEGMENT
result$ = 32
tok$1 = 40
tok$2 = 48
tok$3 = 56
tv179 = 64
clo$4 = 72
clo$5 = 88
clo$6 = 104
reader$ = 160
root$ = 168
mark$ = 176
ccread_unary_expr PROC
; File W:\cpp\void\ktt-c\ccread.c
; Line 295
	mov	DWORD PTR [rsp+24], r8d
	mov	QWORD PTR [rsp+16], rdx
	mov	QWORD PTR [rsp+8], rcx
	push	rsi
	push	rdi
	sub	rsp, 136				; 00000088H
	mov	QWORD PTR result$[rsp], 0
; Line 297
	mov	edx, 95					; 0000005fH
	mov	rcx, QWORD PTR reader$[rsp]
	call	ccsee
	test	eax, eax
	je	$LN2@ccread_una
; Line 298
	mov	rcx, QWORD PTR reader$[rsp]
	call	ccgobble
	mov	QWORD PTR tok$1[rsp], rax
; Line 299
	mov	edx, 95					; 0000005fH
	mov	rcx, QWORD PTR reader$[rsp]
	call	cceat
	test	rax, rax
	je	SHORT $LN4@ccread_una
; Line 301
	lea	rax, QWORD PTR clo$4[rsp]
	mov	rdi, rax
	mov	rsi, QWORD PTR tok$1[rsp]
	mov	ecx, 16
	rep movsb
; Line 302
	mov	QWORD PTR clo$4[rsp+8], 123		; 0000007bH
; Line 303
	mov	r8d, DWORD PTR mark$[rsp]
	mov	rdx, QWORD PTR root$[rsp]
	mov	rcx, QWORD PTR reader$[rsp]
	call	ccread_cast_expr
	mov	r9, rax
	lea	r8, QWORD PTR clo$4[rsp]
	mov	edx, DWORD PTR mark$[rsp]
	mov	rcx, QWORD PTR root$[rsp]
	call	cctree_unary
	mov	QWORD PTR result$[rsp], rax
; Line 304
	jmp	SHORT $LN5@ccread_una
$LN4@ccread_una:
; Line 305
	mov	r8d, DWORD PTR mark$[rsp]
	mov	rdx, QWORD PTR root$[rsp]
	mov	rcx, QWORD PTR reader$[rsp]
	call	ccread_cast_expr
	mov	r9, rax
	mov	r8, QWORD PTR tok$1[rsp]
	mov	edx, DWORD PTR mark$[rsp]
	mov	rcx, QWORD PTR root$[rsp]
	call	cctree_unary
	mov	QWORD PTR result$[rsp], rax
$LN5@ccread_una:
; Line 307
	jmp	$LN3@ccread_una
$LN2@ccread_una:
; Line 308
	mov	edx, 96					; 00000060H
	mov	rcx, QWORD PTR reader$[rsp]
	call	ccsee
	test	eax, eax
	je	$LN6@ccread_una
; Line 309
	mov	rcx, QWORD PTR reader$[rsp]
	call	ccgobble
	mov	QWORD PTR tok$2[rsp], rax
; Line 310
	mov	edx, 96					; 00000060H
	mov	rcx, QWORD PTR reader$[rsp]
	call	cceat
	test	rax, rax
	je	SHORT $LN8@ccread_una
; Line 312
	lea	rax, QWORD PTR clo$5[rsp]
	mov	rdi, rax
	mov	rsi, QWORD PTR tok$2[rsp]
	mov	ecx, 16
	rep movsb
; Line 313
	mov	QWORD PTR clo$5[rsp+8], 122		; 0000007aH
; Line 314
	mov	r8d, DWORD PTR mark$[rsp]
	mov	rdx, QWORD PTR root$[rsp]
	mov	rcx, QWORD PTR reader$[rsp]
	call	ccread_cast_expr
	mov	r9, rax
	lea	r8, QWORD PTR clo$5[rsp]
	mov	edx, DWORD PTR mark$[rsp]
	mov	rcx, QWORD PTR root$[rsp]
	call	cctree_unary
	mov	QWORD PTR result$[rsp], rax
; Line 315
	jmp	SHORT $LN9@ccread_una
$LN8@ccread_una:
; Line 316
	mov	r8d, DWORD PTR mark$[rsp]
	mov	rdx, QWORD PTR root$[rsp]
	mov	rcx, QWORD PTR reader$[rsp]
	call	ccread_cast_expr
	mov	r9, rax
	mov	r8, QWORD PTR tok$2[rsp]
	mov	edx, DWORD PTR mark$[rsp]
	mov	rcx, QWORD PTR root$[rsp]
	call	cctree_unary
	mov	QWORD PTR result$[rsp], rax
$LN9@ccread_una:
; Line 318
	jmp	$LN7@ccread_una
$LN6@ccread_una:
; Line 319
	mov	edx, 92					; 0000005cH
	mov	rcx, QWORD PTR reader$[rsp]
	call	ccsee
	test	eax, eax
	je	SHORT $LN10@ccread_una
; Line 322
	mov	rcx, QWORD PTR reader$[rsp]
	call	ccgobble
	mov	QWORD PTR tok$3[rsp], rax
; Line 323
	lea	rax, QWORD PTR clo$6[rsp]
	mov	rdi, rax
	mov	rsi, QWORD PTR tok$3[rsp]
	mov	ecx, 16
	rep movsb
; Line 324
	mov	QWORD PTR clo$6[rsp+8], 84		; 00000054H
; Line 326
	mov	r8d, DWORD PTR mark$[rsp]
	mov	rdx, QWORD PTR root$[rsp]
	mov	rcx, QWORD PTR reader$[rsp]
	call	ccread_cast_expr
	mov	r9, rax
	lea	r8, QWORD PTR clo$6[rsp]
	mov	edx, DWORD PTR mark$[rsp]
	mov	rcx, QWORD PTR root$[rsp]
	call	cctree_unary
	mov	QWORD PTR result$[rsp], rax
; Line 327
	jmp	$LN11@ccread_una
$LN10@ccread_una:
; Line 328
	mov	edx, 86					; 00000056H
	mov	rcx, QWORD PTR reader$[rsp]
	call	ccsee
	test	eax, eax
	jne	SHORT $LN14@ccread_una
	mov	edx, 89					; 00000059H
	mov	rcx, QWORD PTR reader$[rsp]
	call	ccsee
	test	eax, eax
	je	SHORT $LN12@ccread_una
$LN14@ccread_una:
; Line 330
	mov	r8d, DWORD PTR mark$[rsp]
	mov	rdx, QWORD PTR root$[rsp]
	mov	rcx, QWORD PTR reader$[rsp]
	call	ccread_cast_expr
	mov	QWORD PTR tv179[rsp], rax
	mov	rcx, QWORD PTR reader$[rsp]
	call	ccgobble
	mov	rcx, QWORD PTR tv179[rsp]
	mov	r9, rcx
	mov	r8, rax
	mov	edx, DWORD PTR mark$[rsp]
	mov	rcx, QWORD PTR root$[rsp]
	call	cctree_unary
	mov	QWORD PTR result$[rsp], rax
; Line 331
	jmp	SHORT $LN13@ccread_una
$LN12@ccread_una:
; Line 332
	mov	r8d, DWORD PTR mark$[rsp]
	mov	rdx, QWORD PTR root$[rsp]
	mov	rcx, QWORD PTR reader$[rsp]
	call	ccread_postfix
	mov	QWORD PTR result$[rsp], rax
$LN13@ccread_una:
$LN11@ccread_una:
$LN7@ccread_una:
$LN3@ccread_una:
; Line 334
	mov	rax, QWORD PTR result$[rsp]
; Line 335
	add	rsp, 136				; 00000088H
	pop	rdi
	pop	rsi
	ret	0
ccread_unary_expr ENDP
_TEXT	ENDS
; Function compile flags: /Odtp
_TEXT	SEGMENT
lhs$ = 48
inc$1 = 56
args$2 = 64
args$3 = 72
dec$4 = 80
reader$ = 112
root$ = 120
mark$ = 128
ccread_postfix PROC
; File W:\cpp\void\ktt-c\ccread.c
; Line 238
	mov	DWORD PTR [rsp+24], r8d
	mov	QWORD PTR [rsp+16], rdx
	mov	QWORD PTR [rsp+8], rcx
	sub	rsp, 104				; 00000068H
; Line 242
	mov	r8d, DWORD PTR mark$[rsp]
	mov	rdx, QWORD PTR root$[rsp]
	mov	rcx, QWORD PTR reader$[rsp]
	call	ccread_primary
	mov	QWORD PTR lhs$[rsp], rax
; Line 245
	mov	edx, 3
	mov	rcx, QWORD PTR reader$[rsp]
	call	cceat
	test	rax, rax
	je	$LN2@ccread_pos
; Line 248
	mov	rax, QWORD PTR lhs$[rsp]
	cmp	DWORD PTR [rax], 6
	je	SHORT $LN14@ccread_pos
	int	3
$LN14@ccread_pos:
; Line 250
	mov	r8d, DWORD PTR mark$[rsp]
	mov	rdx, QWORD PTR root$[rsp]
	mov	rcx, QWORD PTR reader$[rsp]
	call	ccread_arglist_expr
	mov	QWORD PTR args$2[rsp], rax
; Line 252
	mov	edx, 4
	mov	rcx, QWORD PTR reader$[rsp]
	call	cceat
	test	rax, rax
	jne	SHORT $LN4@ccread_pos
; Line 253
	lea	rax, OFFSET FLAT:$SG48668
	mov	QWORD PTR [rsp+40], rax
	lea	rax, OFFSET FLAT:$SG48669
	mov	QWORD PTR [rsp+32], rax
	lea	r9, OFFSET FLAT:$SG48670
	mov	r8d, 253				; 000000fdH
	lea	rdx, OFFSET FLAT:$SG48671
	mov	ecx, 11
	call	cctrace_
	int	3
	int	3
$LN4@ccread_pos:
; Line 255
	mov	rax, QWORD PTR lhs$[rsp]
	mov	rax, QWORD PTR [rax+24]
	mov	QWORD PTR [rsp+32], rax
	mov	r9, QWORD PTR args$2[rsp]
	mov	r8, QWORD PTR lhs$[rsp]
	mov	edx, DWORD PTR mark$[rsp]
	mov	rcx, QWORD PTR root$[rsp]
	call	cctree_call
	jmp	$LN1@ccread_pos
; Line 256
	jmp	$LN3@ccread_pos
$LN2@ccread_pos:
; Line 257
	mov	edx, 7
	mov	rcx, QWORD PTR reader$[rsp]
	call	cceat
	test	rax, rax
	je	$LN5@ccread_pos
; Line 260
	mov	rax, QWORD PTR lhs$[rsp]
	cmp	DWORD PTR [rax], 6
	je	SHORT $LN16@ccread_pos
	int	3
$LN16@ccread_pos:
; Line 262
	mov	r8d, DWORD PTR mark$[rsp]
	mov	rdx, QWORD PTR root$[rsp]
	mov	rcx, QWORD PTR reader$[rsp]
	call	ccread_expression
	mov	QWORD PTR args$3[rsp], rax
; Line 264
	mov	edx, 8
	mov	rcx, QWORD PTR reader$[rsp]
	call	cceat
	test	rax, rax
	jne	SHORT $LN7@ccread_pos
; Line 265
	lea	rax, OFFSET FLAT:$SG48675
	mov	QWORD PTR [rsp+40], rax
	lea	rax, OFFSET FLAT:$SG48676
	mov	QWORD PTR [rsp+32], rax
	lea	r9, OFFSET FLAT:$SG48677
	mov	r8d, 265				; 00000109H
	lea	rdx, OFFSET FLAT:$SG48678
	mov	ecx, 12
	call	cctrace_
	int	3
	int	3
$LN7@ccread_pos:
; Line 267
	mov	rax, QWORD PTR lhs$[rsp]
	mov	rax, QWORD PTR [rax+24]
	mov	QWORD PTR [rsp+32], rax
	mov	r9, QWORD PTR args$3[rsp]
	mov	r8, QWORD PTR lhs$[rsp]
	mov	edx, DWORD PTR mark$[rsp]
	mov	rcx, QWORD PTR root$[rsp]
	call	cctree_index
	jmp	$LN1@ccread_pos
; Line 268
	jmp	$LN6@ccread_pos
$LN5@ccread_pos:
; Line 269
	mov	edx, 90					; 0000005aH
	mov	rcx, QWORD PTR reader$[rsp]
	call	ccsee
	test	eax, eax
	je	SHORT $LN8@ccread_pos
; Line 270
	mov	rcx, QWORD PTR reader$[rsp]
	call	ccgobble
	mov	r9, QWORD PTR lhs$[rsp]
	mov	r8, rax
	mov	edx, DWORD PTR mark$[rsp]
	mov	rcx, QWORD PTR root$[rsp]
	call	cctree_unary
	mov	QWORD PTR lhs$[rsp], rax
; Line 271
	jmp	SHORT $LN9@ccread_pos
$LN8@ccread_pos:
; Line 272
	mov	edx, 125				; 0000007dH
	mov	rcx, QWORD PTR reader$[rsp]
	call	cceat
	mov	QWORD PTR inc$1[rsp], rax
	cmp	QWORD PTR inc$1[rsp], 0
	je	SHORT $LN10@ccread_pos
; Line 273
	mov	r9, QWORD PTR lhs$[rsp]
	mov	r8, QWORD PTR inc$1[rsp]
	mov	edx, DWORD PTR mark$[rsp]
	mov	rcx, QWORD PTR root$[rsp]
	call	cctree_unary
	mov	QWORD PTR lhs$[rsp], rax
; Line 274
	jmp	SHORT $LN11@ccread_pos
$LN10@ccread_pos:
; Line 275
	mov	edx, 124				; 0000007cH
	mov	rcx, QWORD PTR reader$[rsp]
	call	cceat
	mov	QWORD PTR dec$4[rsp], rax
	cmp	QWORD PTR dec$4[rsp], 0
	je	SHORT $LN12@ccread_pos
; Line 276
	mov	r9, QWORD PTR lhs$[rsp]
	mov	r8, QWORD PTR inc$1[rsp]
	mov	edx, DWORD PTR mark$[rsp]
	mov	rcx, QWORD PTR root$[rsp]
	call	cctree_unary
	mov	QWORD PTR lhs$[rsp], rax
$LN12@ccread_pos:
